
coreDAQ_firmware_LOG_v1.0.elf:     file format elf32-littlearm

Sections:
Idx Name          Size      VMA       LMA       File off  Algn
  0 .isr_vector   000001e0  08000000  08000000  00001000  2**0
                  CONTENTS, ALLOC, LOAD, READONLY, DATA
  1 .text         00008c14  080001e0  080001e0  000011e0  2**4
                  CONTENTS, ALLOC, LOAD, READONLY, CODE
  2 .rodata       00000ec8  08008df4  08008df4  00009df4  2**0
                  CONTENTS, ALLOC, LOAD, READONLY, DATA
  3 .ARM.extab    00000000  08009cbc  08009cbc  0000b178  2**0
                  CONTENTS, READONLY
  4 .ARM          00000008  08009cbc  08009cbc  0000acbc  2**2
                  CONTENTS, ALLOC, LOAD, READONLY, DATA
  5 .preinit_array 00000000  08009cc4  08009cc4  0000b178  2**0
                  CONTENTS, ALLOC, LOAD, DATA
  6 .init_array   00000004  08009cc4  08009cc4  0000acc4  2**2
                  CONTENTS, ALLOC, LOAD, READONLY, DATA
  7 .fini_array   00000004  08009cc8  08009cc8  0000acc8  2**2
                  CONTENTS, ALLOC, LOAD, READONLY, DATA
  8 .data         00000178  20000000  08009ccc  0000b000  2**2
                  CONTENTS, ALLOC, LOAD, DATA
  9 .bss          0000236c  20000178  08009e44  0000b178  2**2
                  ALLOC
 10 .noinit       00000004  200024e4  08009e44  0000b4e4  2**2
                  ALLOC
 11 ._user_heap_stack 00000600  200024e8  08009e44  0000b4e8  2**0
                  ALLOC
 12 .sdram        00000000  c0000000  c0000000  0000b178  2**0
                  CONTENTS
 13 .ARM.attributes 00000030  00000000  00000000  0000b178  2**0
                  CONTENTS, READONLY
 14 .comment      00000043  00000000  00000000  0000b1a8  2**0
                  CONTENTS, READONLY
 15 .debug_frame  0000066c  00000000  00000000  0000b1ec  2**2
                  CONTENTS, READONLY, DEBUGGING, OCTETS

Disassembly of section .text:

080001e0 <__do_global_dtors_aux>:
 80001e0:	b510      	push	{r4, lr}
 80001e2:	4c05      	ldr	r4, [pc, #20]	@ (80001f8 <__do_global_dtors_aux+0x18>)
 80001e4:	7823      	ldrb	r3, [r4, #0]
 80001e6:	b933      	cbnz	r3, 80001f6 <__do_global_dtors_aux+0x16>
 80001e8:	4b04      	ldr	r3, [pc, #16]	@ (80001fc <__do_global_dtors_aux+0x1c>)
 80001ea:	b113      	cbz	r3, 80001f2 <__do_global_dtors_aux+0x12>
 80001ec:	4804      	ldr	r0, [pc, #16]	@ (8000200 <__do_global_dtors_aux+0x20>)
 80001ee:	f3af 8000 	nop.w
 80001f2:	2301      	movs	r3, #1
 80001f4:	7023      	strb	r3, [r4, #0]
 80001f6:	bd10      	pop	{r4, pc}
 80001f8:	20000178 	.word	0x20000178
 80001fc:	00000000 	.word	0x00000000
 8000200:	08008ddc 	.word	0x08008ddc

08000204 <frame_dummy>:
 8000204:	b508      	push	{r3, lr}
 8000206:	4b03      	ldr	r3, [pc, #12]	@ (8000214 <frame_dummy+0x10>)
 8000208:	b11b      	cbz	r3, 8000212 <frame_dummy+0xe>
 800020a:	4903      	ldr	r1, [pc, #12]	@ (8000218 <frame_dummy+0x14>)
 800020c:	4803      	ldr	r0, [pc, #12]	@ (800021c <frame_dummy+0x18>)
 800020e:	f3af 8000 	nop.w
 8000212:	bd08      	pop	{r3, pc}
 8000214:	00000000 	.word	0x00000000
 8000218:	2000017c 	.word	0x2000017c
 800021c:	08008ddc 	.word	0x08008ddc

08000220 <strcmp>:
 8000220:	f810 2b01 	ldrb.w	r2, [r0], #1
 8000224:	f811 3b01 	ldrb.w	r3, [r1], #1
 8000228:	2a01      	cmp	r2, #1
 800022a:	bf28      	it	cs
 800022c:	429a      	cmpcs	r2, r3
 800022e:	d0f7      	beq.n	8000220 <strcmp>
 8000230:	1ad0      	subs	r0, r2, r3
 8000232:	4770      	bx	lr

08000234 <strlen>:
 8000234:	4603      	mov	r3, r0
 8000236:	f813 2b01 	ldrb.w	r2, [r3], #1
 800023a:	2a00      	cmp	r2, #0
 800023c:	d1fb      	bne.n	8000236 <strlen+0x2>
 800023e:	1a18      	subs	r0, r3, r0
 8000240:	3801      	subs	r0, #1
 8000242:	4770      	bx	lr
	...

08000250 <memchr>:
 8000250:	f001 01ff 	and.w	r1, r1, #255	@ 0xff
 8000254:	2a10      	cmp	r2, #16
 8000256:	db2b      	blt.n	80002b0 <memchr+0x60>
 8000258:	f010 0f07 	tst.w	r0, #7
 800025c:	d008      	beq.n	8000270 <memchr+0x20>
 800025e:	f810 3b01 	ldrb.w	r3, [r0], #1
 8000262:	3a01      	subs	r2, #1
 8000264:	428b      	cmp	r3, r1
 8000266:	d02d      	beq.n	80002c4 <memchr+0x74>
 8000268:	f010 0f07 	tst.w	r0, #7
 800026c:	b342      	cbz	r2, 80002c0 <memchr+0x70>
 800026e:	d1f6      	bne.n	800025e <memchr+0xe>
 8000270:	b4f0      	push	{r4, r5, r6, r7}
 8000272:	ea41 2101 	orr.w	r1, r1, r1, lsl #8
 8000276:	ea41 4101 	orr.w	r1, r1, r1, lsl #16
 800027a:	f022 0407 	bic.w	r4, r2, #7
 800027e:	f07f 0700 	mvns.w	r7, #0
 8000282:	2300      	movs	r3, #0
 8000284:	e8f0 5602 	ldrd	r5, r6, [r0], #8
 8000288:	3c08      	subs	r4, #8
 800028a:	ea85 0501 	eor.w	r5, r5, r1
 800028e:	ea86 0601 	eor.w	r6, r6, r1
 8000292:	fa85 f547 	uadd8	r5, r5, r7
 8000296:	faa3 f587 	sel	r5, r3, r7
 800029a:	fa86 f647 	uadd8	r6, r6, r7
 800029e:	faa5 f687 	sel	r6, r5, r7
 80002a2:	b98e      	cbnz	r6, 80002c8 <memchr+0x78>
 80002a4:	d1ee      	bne.n	8000284 <memchr+0x34>
 80002a6:	bcf0      	pop	{r4, r5, r6, r7}
 80002a8:	f001 01ff 	and.w	r1, r1, #255	@ 0xff
 80002ac:	f002 0207 	and.w	r2, r2, #7
 80002b0:	b132      	cbz	r2, 80002c0 <memchr+0x70>
 80002b2:	f810 3b01 	ldrb.w	r3, [r0], #1
 80002b6:	3a01      	subs	r2, #1
 80002b8:	ea83 0301 	eor.w	r3, r3, r1
 80002bc:	b113      	cbz	r3, 80002c4 <memchr+0x74>
 80002be:	d1f8      	bne.n	80002b2 <memchr+0x62>
 80002c0:	2000      	movs	r0, #0
 80002c2:	4770      	bx	lr
 80002c4:	3801      	subs	r0, #1
 80002c6:	4770      	bx	lr
 80002c8:	2d00      	cmp	r5, #0
 80002ca:	bf06      	itte	eq
 80002cc:	4635      	moveq	r5, r6
 80002ce:	3803      	subeq	r0, #3
 80002d0:	3807      	subne	r0, #7
 80002d2:	f015 0f01 	tst.w	r5, #1
 80002d6:	d107      	bne.n	80002e8 <memchr+0x98>
 80002d8:	3001      	adds	r0, #1
 80002da:	f415 7f80 	tst.w	r5, #256	@ 0x100
 80002de:	bf02      	ittt	eq
 80002e0:	3001      	addeq	r0, #1
 80002e2:	f415 3fc0 	tsteq.w	r5, #98304	@ 0x18000
 80002e6:	3001      	addeq	r0, #1
 80002e8:	bcf0      	pop	{r4, r5, r6, r7}
 80002ea:	3801      	subs	r0, #1
 80002ec:	4770      	bx	lr
 80002ee:	bf00      	nop

080002f0 <__aeabi_uldivmod>:
 80002f0:	b953      	cbnz	r3, 8000308 <__aeabi_uldivmod+0x18>
 80002f2:	b94a      	cbnz	r2, 8000308 <__aeabi_uldivmod+0x18>
 80002f4:	2900      	cmp	r1, #0
 80002f6:	bf08      	it	eq
 80002f8:	2800      	cmpeq	r0, #0
 80002fa:	bf1c      	itt	ne
 80002fc:	f04f 31ff 	movne.w	r1, #4294967295	@ 0xffffffff
 8000300:	f04f 30ff 	movne.w	r0, #4294967295	@ 0xffffffff
 8000304:	f000 b988 	b.w	8000618 <__aeabi_idiv0>
 8000308:	f1ad 0c08 	sub.w	ip, sp, #8
 800030c:	e96d ce04 	strd	ip, lr, [sp, #-16]!
 8000310:	f000 f806 	bl	8000320 <__udivmoddi4>
 8000314:	f8dd e004 	ldr.w	lr, [sp, #4]
 8000318:	e9dd 2302 	ldrd	r2, r3, [sp, #8]
 800031c:	b004      	add	sp, #16
 800031e:	4770      	bx	lr

08000320 <__udivmoddi4>:
 8000320:	e92d 47f0 	stmdb	sp!, {r4, r5, r6, r7, r8, r9, sl, lr}
 8000324:	9d08      	ldr	r5, [sp, #32]
 8000326:	468e      	mov	lr, r1
 8000328:	4604      	mov	r4, r0
 800032a:	4688      	mov	r8, r1
 800032c:	2b00      	cmp	r3, #0
 800032e:	d14a      	bne.n	80003c6 <__udivmoddi4+0xa6>
 8000330:	428a      	cmp	r2, r1
 8000332:	4617      	mov	r7, r2
 8000334:	d962      	bls.n	80003fc <__udivmoddi4+0xdc>
 8000336:	fab2 f682 	clz	r6, r2
 800033a:	b14e      	cbz	r6, 8000350 <__udivmoddi4+0x30>
 800033c:	f1c6 0320 	rsb	r3, r6, #32
 8000340:	fa01 f806 	lsl.w	r8, r1, r6
 8000344:	fa20 f303 	lsr.w	r3, r0, r3
 8000348:	40b7      	lsls	r7, r6
 800034a:	ea43 0808 	orr.w	r8, r3, r8
 800034e:	40b4      	lsls	r4, r6
 8000350:	ea4f 4e17 	mov.w	lr, r7, lsr #16
 8000354:	fa1f fc87 	uxth.w	ip, r7
 8000358:	fbb8 f1fe 	udiv	r1, r8, lr
 800035c:	0c23      	lsrs	r3, r4, #16
 800035e:	fb0e 8811 	mls	r8, lr, r1, r8
 8000362:	ea43 4308 	orr.w	r3, r3, r8, lsl #16
 8000366:	fb01 f20c 	mul.w	r2, r1, ip
 800036a:	429a      	cmp	r2, r3
 800036c:	d909      	bls.n	8000382 <__udivmoddi4+0x62>
 800036e:	18fb      	adds	r3, r7, r3
 8000370:	f101 30ff 	add.w	r0, r1, #4294967295	@ 0xffffffff
 8000374:	f080 80ea 	bcs.w	800054c <__udivmoddi4+0x22c>
 8000378:	429a      	cmp	r2, r3
 800037a:	f240 80e7 	bls.w	800054c <__udivmoddi4+0x22c>
 800037e:	3902      	subs	r1, #2
 8000380:	443b      	add	r3, r7
 8000382:	1a9a      	subs	r2, r3, r2
 8000384:	b2a3      	uxth	r3, r4
 8000386:	fbb2 f0fe 	udiv	r0, r2, lr
 800038a:	fb0e 2210 	mls	r2, lr, r0, r2
 800038e:	ea43 4302 	orr.w	r3, r3, r2, lsl #16
 8000392:	fb00 fc0c 	mul.w	ip, r0, ip
 8000396:	459c      	cmp	ip, r3
 8000398:	d909      	bls.n	80003ae <__udivmoddi4+0x8e>
 800039a:	18fb      	adds	r3, r7, r3
 800039c:	f100 32ff 	add.w	r2, r0, #4294967295	@ 0xffffffff
 80003a0:	f080 80d6 	bcs.w	8000550 <__udivmoddi4+0x230>
 80003a4:	459c      	cmp	ip, r3
 80003a6:	f240 80d3 	bls.w	8000550 <__udivmoddi4+0x230>
 80003aa:	443b      	add	r3, r7
 80003ac:	3802      	subs	r0, #2
 80003ae:	ea40 4001 	orr.w	r0, r0, r1, lsl #16
 80003b2:	eba3 030c 	sub.w	r3, r3, ip
 80003b6:	2100      	movs	r1, #0
 80003b8:	b11d      	cbz	r5, 80003c2 <__udivmoddi4+0xa2>
 80003ba:	40f3      	lsrs	r3, r6
 80003bc:	2200      	movs	r2, #0
 80003be:	e9c5 3200 	strd	r3, r2, [r5]
 80003c2:	e8bd 87f0 	ldmia.w	sp!, {r4, r5, r6, r7, r8, r9, sl, pc}
 80003c6:	428b      	cmp	r3, r1
 80003c8:	d905      	bls.n	80003d6 <__udivmoddi4+0xb6>
 80003ca:	b10d      	cbz	r5, 80003d0 <__udivmoddi4+0xb0>
 80003cc:	e9c5 0100 	strd	r0, r1, [r5]
 80003d0:	2100      	movs	r1, #0
 80003d2:	4608      	mov	r0, r1
 80003d4:	e7f5      	b.n	80003c2 <__udivmoddi4+0xa2>
 80003d6:	fab3 f183 	clz	r1, r3
 80003da:	2900      	cmp	r1, #0
 80003dc:	d146      	bne.n	800046c <__udivmoddi4+0x14c>
 80003de:	4573      	cmp	r3, lr
 80003e0:	d302      	bcc.n	80003e8 <__udivmoddi4+0xc8>
 80003e2:	4282      	cmp	r2, r0
 80003e4:	f200 8105 	bhi.w	80005f2 <__udivmoddi4+0x2d2>
 80003e8:	1a84      	subs	r4, r0, r2
 80003ea:	eb6e 0203 	sbc.w	r2, lr, r3
 80003ee:	2001      	movs	r0, #1
 80003f0:	4690      	mov	r8, r2
 80003f2:	2d00      	cmp	r5, #0
 80003f4:	d0e5      	beq.n	80003c2 <__udivmoddi4+0xa2>
 80003f6:	e9c5 4800 	strd	r4, r8, [r5]
 80003fa:	e7e2      	b.n	80003c2 <__udivmoddi4+0xa2>
 80003fc:	2a00      	cmp	r2, #0
 80003fe:	f000 8090 	beq.w	8000522 <__udivmoddi4+0x202>
 8000402:	fab2 f682 	clz	r6, r2
 8000406:	2e00      	cmp	r6, #0
 8000408:	f040 80a4 	bne.w	8000554 <__udivmoddi4+0x234>
 800040c:	1a8a      	subs	r2, r1, r2
 800040e:	0c03      	lsrs	r3, r0, #16
 8000410:	ea4f 4e17 	mov.w	lr, r7, lsr #16
 8000414:	b280      	uxth	r0, r0
 8000416:	b2bc      	uxth	r4, r7
 8000418:	2101      	movs	r1, #1
 800041a:	fbb2 fcfe 	udiv	ip, r2, lr
 800041e:	fb0e 221c 	mls	r2, lr, ip, r2
 8000422:	ea43 4302 	orr.w	r3, r3, r2, lsl #16
 8000426:	fb04 f20c 	mul.w	r2, r4, ip
 800042a:	429a      	cmp	r2, r3
 800042c:	d907      	bls.n	800043e <__udivmoddi4+0x11e>
 800042e:	18fb      	adds	r3, r7, r3
 8000430:	f10c 38ff 	add.w	r8, ip, #4294967295	@ 0xffffffff
 8000434:	d202      	bcs.n	800043c <__udivmoddi4+0x11c>
 8000436:	429a      	cmp	r2, r3
 8000438:	f200 80e0 	bhi.w	80005fc <__udivmoddi4+0x2dc>
 800043c:	46c4      	mov	ip, r8
 800043e:	1a9b      	subs	r3, r3, r2
 8000440:	fbb3 f2fe 	udiv	r2, r3, lr
 8000444:	fb0e 3312 	mls	r3, lr, r2, r3
 8000448:	ea40 4303 	orr.w	r3, r0, r3, lsl #16
 800044c:	fb02 f404 	mul.w	r4, r2, r4
 8000450:	429c      	cmp	r4, r3
 8000452:	d907      	bls.n	8000464 <__udivmoddi4+0x144>
 8000454:	18fb      	adds	r3, r7, r3
 8000456:	f102 30ff 	add.w	r0, r2, #4294967295	@ 0xffffffff
 800045a:	d202      	bcs.n	8000462 <__udivmoddi4+0x142>
 800045c:	429c      	cmp	r4, r3
 800045e:	f200 80ca 	bhi.w	80005f6 <__udivmoddi4+0x2d6>
 8000462:	4602      	mov	r2, r0
 8000464:	1b1b      	subs	r3, r3, r4
 8000466:	ea42 400c 	orr.w	r0, r2, ip, lsl #16
 800046a:	e7a5      	b.n	80003b8 <__udivmoddi4+0x98>
 800046c:	f1c1 0620 	rsb	r6, r1, #32
 8000470:	408b      	lsls	r3, r1
 8000472:	fa22 f706 	lsr.w	r7, r2, r6
 8000476:	431f      	orrs	r7, r3
 8000478:	fa0e f401 	lsl.w	r4, lr, r1
 800047c:	fa20 f306 	lsr.w	r3, r0, r6
 8000480:	fa2e fe06 	lsr.w	lr, lr, r6
 8000484:	ea4f 4917 	mov.w	r9, r7, lsr #16
 8000488:	4323      	orrs	r3, r4
 800048a:	fa00 f801 	lsl.w	r8, r0, r1
 800048e:	fa1f fc87 	uxth.w	ip, r7
 8000492:	fbbe f0f9 	udiv	r0, lr, r9
 8000496:	0c1c      	lsrs	r4, r3, #16
 8000498:	fb09 ee10 	mls	lr, r9, r0, lr
 800049c:	ea44 440e 	orr.w	r4, r4, lr, lsl #16
 80004a0:	fb00 fe0c 	mul.w	lr, r0, ip
 80004a4:	45a6      	cmp	lr, r4
 80004a6:	fa02 f201 	lsl.w	r2, r2, r1
 80004aa:	d909      	bls.n	80004c0 <__udivmoddi4+0x1a0>
 80004ac:	193c      	adds	r4, r7, r4
 80004ae:	f100 3aff 	add.w	sl, r0, #4294967295	@ 0xffffffff
 80004b2:	f080 809c 	bcs.w	80005ee <__udivmoddi4+0x2ce>
 80004b6:	45a6      	cmp	lr, r4
 80004b8:	f240 8099 	bls.w	80005ee <__udivmoddi4+0x2ce>
 80004bc:	3802      	subs	r0, #2
 80004be:	443c      	add	r4, r7
 80004c0:	eba4 040e 	sub.w	r4, r4, lr
 80004c4:	fa1f fe83 	uxth.w	lr, r3
 80004c8:	fbb4 f3f9 	udiv	r3, r4, r9
 80004cc:	fb09 4413 	mls	r4, r9, r3, r4
 80004d0:	ea4e 4404 	orr.w	r4, lr, r4, lsl #16
 80004d4:	fb03 fc0c 	mul.w	ip, r3, ip
 80004d8:	45a4      	cmp	ip, r4
 80004da:	d908      	bls.n	80004ee <__udivmoddi4+0x1ce>
 80004dc:	193c      	adds	r4, r7, r4
 80004de:	f103 3eff 	add.w	lr, r3, #4294967295	@ 0xffffffff
 80004e2:	f080 8082 	bcs.w	80005ea <__udivmoddi4+0x2ca>
 80004e6:	45a4      	cmp	ip, r4
 80004e8:	d97f      	bls.n	80005ea <__udivmoddi4+0x2ca>
 80004ea:	3b02      	subs	r3, #2
 80004ec:	443c      	add	r4, r7
 80004ee:	ea43 4000 	orr.w	r0, r3, r0, lsl #16
 80004f2:	eba4 040c 	sub.w	r4, r4, ip
 80004f6:	fba0 ec02 	umull	lr, ip, r0, r2
 80004fa:	4564      	cmp	r4, ip
 80004fc:	4673      	mov	r3, lr
 80004fe:	46e1      	mov	r9, ip
 8000500:	d362      	bcc.n	80005c8 <__udivmoddi4+0x2a8>
 8000502:	d05f      	beq.n	80005c4 <__udivmoddi4+0x2a4>
 8000504:	b15d      	cbz	r5, 800051e <__udivmoddi4+0x1fe>
 8000506:	ebb8 0203 	subs.w	r2, r8, r3
 800050a:	eb64 0409 	sbc.w	r4, r4, r9
 800050e:	fa04 f606 	lsl.w	r6, r4, r6
 8000512:	fa22 f301 	lsr.w	r3, r2, r1
 8000516:	431e      	orrs	r6, r3
 8000518:	40cc      	lsrs	r4, r1
 800051a:	e9c5 6400 	strd	r6, r4, [r5]
 800051e:	2100      	movs	r1, #0
 8000520:	e74f      	b.n	80003c2 <__udivmoddi4+0xa2>
 8000522:	fbb1 fcf2 	udiv	ip, r1, r2
 8000526:	0c01      	lsrs	r1, r0, #16
 8000528:	ea41 410e 	orr.w	r1, r1, lr, lsl #16
 800052c:	b280      	uxth	r0, r0
 800052e:	ea40 4201 	orr.w	r2, r0, r1, lsl #16
 8000532:	463b      	mov	r3, r7
 8000534:	4638      	mov	r0, r7
 8000536:	463c      	mov	r4, r7
 8000538:	46b8      	mov	r8, r7
 800053a:	46be      	mov	lr, r7
 800053c:	2620      	movs	r6, #32
 800053e:	fbb1 f1f7 	udiv	r1, r1, r7
 8000542:	eba2 0208 	sub.w	r2, r2, r8
 8000546:	ea41 410c 	orr.w	r1, r1, ip, lsl #16
 800054a:	e766      	b.n	800041a <__udivmoddi4+0xfa>
 800054c:	4601      	mov	r1, r0
 800054e:	e718      	b.n	8000382 <__udivmoddi4+0x62>
 8000550:	4610      	mov	r0, r2
 8000552:	e72c      	b.n	80003ae <__udivmoddi4+0x8e>
 8000554:	f1c6 0220 	rsb	r2, r6, #32
 8000558:	fa2e f302 	lsr.w	r3, lr, r2
 800055c:	40b7      	lsls	r7, r6
 800055e:	40b1      	lsls	r1, r6
 8000560:	fa20 f202 	lsr.w	r2, r0, r2
 8000564:	ea4f 4e17 	mov.w	lr, r7, lsr #16
 8000568:	430a      	orrs	r2, r1
 800056a:	fbb3 f8fe 	udiv	r8, r3, lr
 800056e:	b2bc      	uxth	r4, r7
 8000570:	fb0e 3318 	mls	r3, lr, r8, r3
 8000574:	0c11      	lsrs	r1, r2, #16
 8000576:	ea41 4103 	orr.w	r1, r1, r3, lsl #16
 800057a:	fb08 f904 	mul.w	r9, r8, r4
 800057e:	40b0      	lsls	r0, r6
 8000580:	4589      	cmp	r9, r1
 8000582:	ea4f 4310 	mov.w	r3, r0, lsr #16
 8000586:	b280      	uxth	r0, r0
 8000588:	d93e      	bls.n	8000608 <__udivmoddi4+0x2e8>
 800058a:	1879      	adds	r1, r7, r1
 800058c:	f108 3cff 	add.w	ip, r8, #4294967295	@ 0xffffffff
 8000590:	d201      	bcs.n	8000596 <__udivmoddi4+0x276>
 8000592:	4589      	cmp	r9, r1
 8000594:	d81f      	bhi.n	80005d6 <__udivmoddi4+0x2b6>
 8000596:	eba1 0109 	sub.w	r1, r1, r9
 800059a:	fbb1 f9fe 	udiv	r9, r1, lr
 800059e:	fb09 f804 	mul.w	r8, r9, r4
 80005a2:	fb0e 1119 	mls	r1, lr, r9, r1
 80005a6:	b292      	uxth	r2, r2
 80005a8:	ea42 4201 	orr.w	r2, r2, r1, lsl #16
 80005ac:	4542      	cmp	r2, r8
 80005ae:	d229      	bcs.n	8000604 <__udivmoddi4+0x2e4>
 80005b0:	18ba      	adds	r2, r7, r2
 80005b2:	f109 31ff 	add.w	r1, r9, #4294967295	@ 0xffffffff
 80005b6:	d2c4      	bcs.n	8000542 <__udivmoddi4+0x222>
 80005b8:	4542      	cmp	r2, r8
 80005ba:	d2c2      	bcs.n	8000542 <__udivmoddi4+0x222>
 80005bc:	f1a9 0102 	sub.w	r1, r9, #2
 80005c0:	443a      	add	r2, r7
 80005c2:	e7be      	b.n	8000542 <__udivmoddi4+0x222>
 80005c4:	45f0      	cmp	r8, lr
 80005c6:	d29d      	bcs.n	8000504 <__udivmoddi4+0x1e4>
 80005c8:	ebbe 0302 	subs.w	r3, lr, r2
 80005cc:	eb6c 0c07 	sbc.w	ip, ip, r7
 80005d0:	3801      	subs	r0, #1
 80005d2:	46e1      	mov	r9, ip
 80005d4:	e796      	b.n	8000504 <__udivmoddi4+0x1e4>
 80005d6:	eba7 0909 	sub.w	r9, r7, r9
 80005da:	4449      	add	r1, r9
 80005dc:	f1a8 0c02 	sub.w	ip, r8, #2
 80005e0:	fbb1 f9fe 	udiv	r9, r1, lr
 80005e4:	fb09 f804 	mul.w	r8, r9, r4
 80005e8:	e7db      	b.n	80005a2 <__udivmoddi4+0x282>
 80005ea:	4673      	mov	r3, lr
 80005ec:	e77f      	b.n	80004ee <__udivmoddi4+0x1ce>
 80005ee:	4650      	mov	r0, sl
 80005f0:	e766      	b.n	80004c0 <__udivmoddi4+0x1a0>
 80005f2:	4608      	mov	r0, r1
 80005f4:	e6fd      	b.n	80003f2 <__udivmoddi4+0xd2>
 80005f6:	443b      	add	r3, r7
 80005f8:	3a02      	subs	r2, #2
 80005fa:	e733      	b.n	8000464 <__udivmoddi4+0x144>
 80005fc:	f1ac 0c02 	sub.w	ip, ip, #2
 8000600:	443b      	add	r3, r7
 8000602:	e71c      	b.n	800043e <__udivmoddi4+0x11e>
 8000604:	4649      	mov	r1, r9
 8000606:	e79c      	b.n	8000542 <__udivmoddi4+0x222>
 8000608:	eba1 0109 	sub.w	r1, r1, r9
 800060c:	46c4      	mov	ip, r8
 800060e:	fbb1 f9fe 	udiv	r9, r1, lr
 8000612:	fb09 f804 	mul.w	r8, r9, r4
 8000616:	e7c4      	b.n	80005a2 <__udivmoddi4+0x282>

08000618 <__aeabi_idiv0>:
 8000618:	4770      	bx	lr
 800061a:	bf00      	nop

0800061c <stop_all_timing>:
 800061c:	b510      	push	{r4, lr}
 800061e:	4c0c      	ldr	r4, [pc, #48]	@ (8000650 <stop_all_timing+0x34>)
 8000620:	2104      	movs	r1, #4
 8000622:	4620      	mov	r0, r4
 8000624:	f005 f9fa 	bl	8005a1c <HAL_TIM_IC_Stop_IT>
 8000628:	2108      	movs	r1, #8
 800062a:	4620      	mov	r0, r4
 800062c:	f005 f9f6 	bl	8005a1c <HAL_TIM_IC_Stop_IT>
 8000630:	f001 fe38 	bl	80022a4 <TIM3_StopConvstPWM>
 8000634:	6823      	ldr	r3, [r4, #0]
 8000636:	f06f 0204 	mvn.w	r2, #4
 800063a:	611a      	str	r2, [r3, #16]
 800063c:	611a      	str	r2, [r3, #16]
 800063e:	f06f 0208 	mvn.w	r2, #8
 8000642:	611a      	str	r2, [r3, #16]
 8000644:	611a      	str	r2, [r3, #16]
 8000646:	f06f 0201 	mvn.w	r2, #1
 800064a:	611a      	str	r2, [r3, #16]
 800064c:	611a      	str	r2, [r3, #16]
 800064e:	bd10      	pop	{r4, pc}
 8000650:	200007a0 	.word	0x200007a0

08000654 <ACQ_GetChannelMask>:
 8000654:	4b03      	ldr	r3, [pc, #12]	@ (8000664 <ACQ_GetChannelMask+0x10>)
 8000656:	7818      	ldrb	r0, [r3, #0]
 8000658:	f010 000f 	ands.w	r0, r0, #15
 800065c:	bf08      	it	eq
 800065e:	200f      	moveq	r0, #15
 8000660:	4770      	bx	lr
 8000662:	bf00      	nop
 8000664:	2000001c 	.word	0x2000001c

08000668 <ACQ_GetActiveChannelCount>:
 8000668:	b508      	push	{r3, lr}
 800066a:	f7ff fff3 	bl	8000654 <ACQ_GetChannelMask>
 800066e:	f3c0 0280 	ubfx	r2, r0, #2, #1
 8000672:	f3c0 0340 	ubfx	r3, r0, #1, #1
 8000676:	4413      	add	r3, r2
 8000678:	f000 0201 	and.w	r2, r0, #1
 800067c:	f3c0 00c0 	ubfx	r0, r0, #3, #1
 8000680:	4413      	add	r3, r2
 8000682:	4418      	add	r0, r3
 8000684:	b2c0      	uxtb	r0, r0
 8000686:	bd08      	pop	{r3, pc}

08000688 <ACQ_GetFrameBytes>:
 8000688:	b508      	push	{r3, lr}
 800068a:	f7ff ffed 	bl	8000668 <ACQ_GetActiveChannelCount>
 800068e:	0040      	lsls	r0, r0, #1
 8000690:	f000 00fe 	and.w	r0, r0, #254	@ 0xfe
 8000694:	bd08      	pop	{r3, pc}
	...

08000698 <ACQ_SetChannelMask>:
 8000698:	b510      	push	{r4, lr}
 800069a:	4604      	mov	r4, r0
 800069c:	f001 faf6 	bl	8001c8c <SM_GetState>
 80006a0:	4603      	mov	r3, r0
 80006a2:	f014 040f 	ands.w	r4, r4, #15
 80006a6:	d015      	beq.n	80006d4 <ACQ_SetChannelMask+0x3c>
 80006a8:	4a0c      	ldr	r2, [pc, #48]	@ (80006dc <ACQ_SetChannelMask+0x44>)
 80006aa:	490d      	ldr	r1, [pc, #52]	@ (80006e0 <ACQ_SetChannelMask+0x48>)
 80006ac:	7812      	ldrb	r2, [r2, #0]
 80006ae:	7809      	ldrb	r1, [r1, #0]
 80006b0:	430a      	orrs	r2, r1
 80006b2:	d111      	bne.n	80006d8 <ACQ_SetChannelMask+0x40>
 80006b4:	4a0b      	ldr	r2, [pc, #44]	@ (80006e4 <ACQ_SetChannelMask+0x4c>)
 80006b6:	7812      	ldrb	r2, [r2, #0]
 80006b8:	f002 00ff 	and.w	r0, r2, #255	@ 0xff
 80006bc:	b962      	cbnz	r2, 80006d8 <ACQ_SetChannelMask+0x40>
 80006be:	1e5a      	subs	r2, r3, #1
 80006c0:	b2d2      	uxtb	r2, r2
 80006c2:	2a02      	cmp	r2, #2
 80006c4:	d908      	bls.n	80006d8 <ACQ_SetChannelMask+0x40>
 80006c6:	2b05      	cmp	r3, #5
 80006c8:	d006      	beq.n	80006d8 <ACQ_SetChannelMask+0x40>
 80006ca:	b672      	cpsid	i
 80006cc:	4b06      	ldr	r3, [pc, #24]	@ (80006e8 <ACQ_SetChannelMask+0x50>)
 80006ce:	701c      	strb	r4, [r3, #0]
 80006d0:	b662      	cpsie	i
 80006d2:	bd10      	pop	{r4, pc}
 80006d4:	2001      	movs	r0, #1
 80006d6:	e7fc      	b.n	80006d2 <ACQ_SetChannelMask+0x3a>
 80006d8:	2002      	movs	r0, #2
 80006da:	e7fa      	b.n	80006d2 <ACQ_SetChannelMask+0x3a>
 80006dc:	200001c6 	.word	0x200001c6
 80006e0:	200001c5 	.word	0x200001c5
 80006e4:	200001c4 	.word	0x200001c4
 80006e8:	2000001c 	.word	0x2000001c

080006ec <ACQ_Init>:
 80006ec:	4b16      	ldr	r3, [pc, #88]	@ (8000748 <ACQ_Init+0x5c>)
 80006ee:	b510      	push	{r4, lr}
 80006f0:	781a      	ldrb	r2, [r3, #0]
 80006f2:	0712      	lsls	r2, r2, #28
 80006f4:	d101      	bne.n	80006fa <ACQ_Init+0xe>
 80006f6:	220f      	movs	r2, #15
 80006f8:	701a      	strb	r2, [r3, #0]
 80006fa:	f04f 4240 	mov.w	r2, #3221225472	@ 0xc0000000
 80006fe:	4b13      	ldr	r3, [pc, #76]	@ (800074c <ACQ_Init+0x60>)
 8000700:	2400      	movs	r4, #0
 8000702:	4813      	ldr	r0, [pc, #76]	@ (8000750 <ACQ_Init+0x64>)
 8000704:	601a      	str	r2, [r3, #0]
 8000706:	4b13      	ldr	r3, [pc, #76]	@ (8000754 <ACQ_Init+0x68>)
 8000708:	601c      	str	r4, [r3, #0]
 800070a:	4b13      	ldr	r3, [pc, #76]	@ (8000758 <ACQ_Init+0x6c>)
 800070c:	601c      	str	r4, [r3, #0]
 800070e:	4b13      	ldr	r3, [pc, #76]	@ (800075c <ACQ_Init+0x70>)
 8000710:	701c      	strb	r4, [r3, #0]
 8000712:	4b13      	ldr	r3, [pc, #76]	@ (8000760 <ACQ_Init+0x74>)
 8000714:	701c      	strb	r4, [r3, #0]
 8000716:	4b13      	ldr	r3, [pc, #76]	@ (8000764 <ACQ_Init+0x78>)
 8000718:	701c      	strb	r4, [r3, #0]
 800071a:	4b13      	ldr	r3, [pc, #76]	@ (8000768 <ACQ_Init+0x7c>)
 800071c:	701c      	strb	r4, [r3, #0]
 800071e:	4b13      	ldr	r3, [pc, #76]	@ (800076c <ACQ_Init+0x80>)
 8000720:	701c      	strb	r4, [r3, #0]
 8000722:	4b13      	ldr	r3, [pc, #76]	@ (8000770 <ACQ_Init+0x84>)
 8000724:	701c      	strb	r4, [r3, #0]
 8000726:	4b13      	ldr	r3, [pc, #76]	@ (8000774 <ACQ_Init+0x88>)
 8000728:	701c      	strb	r4, [r3, #0]
 800072a:	4b13      	ldr	r3, [pc, #76]	@ (8000778 <ACQ_Init+0x8c>)
 800072c:	601c      	str	r4, [r3, #0]
 800072e:	4b13      	ldr	r3, [pc, #76]	@ (800077c <ACQ_Init+0x90>)
 8000730:	601c      	str	r4, [r3, #0]
 8000732:	f000 fb2f 	bl	8000d94 <AD7606_Init>
 8000736:	f24c 3050 	movw	r0, #50000	@ 0xc350
 800073a:	f001 fd45 	bl	80021c8 <TIM3_SetFreqHz>
 800073e:	4620      	mov	r0, r4
 8000740:	e8bd 4010 	ldmia.w	sp!, {r4, lr}
 8000744:	f001 ba9c 	b.w	8001c80 <SM_SetState>
 8000748:	2000001c 	.word	0x2000001c
 800074c:	20000000 	.word	0x20000000
 8000750:	20000004 	.word	0x20000004
 8000754:	200001cc 	.word	0x200001cc
 8000758:	200001c8 	.word	0x200001c8
 800075c:	200001c6 	.word	0x200001c6
 8000760:	200001c5 	.word	0x200001c5
 8000764:	200001c4 	.word	0x200001c4
 8000768:	200001c3 	.word	0x200001c3
 800076c:	200001c2 	.word	0x200001c2
 8000770:	200001c1 	.word	0x200001c1
 8000774:	200001c0 	.word	0x200001c0
 8000778:	20000198 	.word	0x20000198
 800077c:	20000194 	.word	0x20000194

08000780 <ACQ_Arm>:
 8000780:	4601      	mov	r1, r0
 8000782:	b510      	push	{r4, lr}
 8000784:	b910      	cbnz	r0, 800078c <ACQ_Arm+0xc>
 8000786:	2401      	movs	r4, #1
 8000788:	4620      	mov	r0, r4
 800078a:	bd10      	pop	{r4, pc}
 800078c:	f7ff ff7c 	bl	8000688 <ACQ_GetFrameBytes>
 8000790:	f04f 7300 	mov.w	r3, #33554432	@ 0x2000000
 8000794:	fbb3 f3f0 	udiv	r3, r3, r0
 8000798:	4299      	cmp	r1, r3
 800079a:	d8f4      	bhi.n	8000786 <ACQ_Arm+0x6>
 800079c:	4b09      	ldr	r3, [pc, #36]	@ (80007c4 <ACQ_Arm+0x44>)
 800079e:	781c      	ldrb	r4, [r3, #0]
 80007a0:	b96c      	cbnz	r4, 80007be <ACQ_Arm+0x3e>
 80007a2:	4b09      	ldr	r3, [pc, #36]	@ (80007c8 <ACQ_Arm+0x48>)
 80007a4:	f04f 4240 	mov.w	r2, #3221225472	@ 0xc0000000
 80007a8:	2001      	movs	r0, #1
 80007aa:	601a      	str	r2, [r3, #0]
 80007ac:	4b07      	ldr	r3, [pc, #28]	@ (80007cc <ACQ_Arm+0x4c>)
 80007ae:	6019      	str	r1, [r3, #0]
 80007b0:	4b07      	ldr	r3, [pc, #28]	@ (80007d0 <ACQ_Arm+0x50>)
 80007b2:	601c      	str	r4, [r3, #0]
 80007b4:	4b07      	ldr	r3, [pc, #28]	@ (80007d4 <ACQ_Arm+0x54>)
 80007b6:	701c      	strb	r4, [r3, #0]
 80007b8:	f001 fa62 	bl	8001c80 <SM_SetState>
 80007bc:	e7e4      	b.n	8000788 <ACQ_Arm+0x8>
 80007be:	2402      	movs	r4, #2
 80007c0:	e7e2      	b.n	8000788 <ACQ_Arm+0x8>
 80007c2:	bf00      	nop
 80007c4:	200001c5 	.word	0x200001c5
 80007c8:	20000000 	.word	0x20000000
 80007cc:	200001cc 	.word	0x200001cc
 80007d0:	200001c8 	.word	0x200001c8
 80007d4:	200001c6 	.word	0x200001c6

080007d8 <ACQ_StartStream>:
 80007d8:	4b13      	ldr	r3, [pc, #76]	@ (8000828 <ACQ_StartStream+0x50>)
 80007da:	681b      	ldr	r3, [r3, #0]
 80007dc:	b510      	push	{r4, lr}
 80007de:	b1fb      	cbz	r3, 8000820 <ACQ_StartStream+0x48>
 80007e0:	4b12      	ldr	r3, [pc, #72]	@ (800082c <ACQ_StartStream+0x54>)
 80007e2:	781c      	ldrb	r4, [r3, #0]
 80007e4:	b9f4      	cbnz	r4, 8000824 <ACQ_StartStream+0x4c>
 80007e6:	4b12      	ldr	r3, [pc, #72]	@ (8000830 <ACQ_StartStream+0x58>)
 80007e8:	f04f 4240 	mov.w	r2, #3221225472	@ 0xc0000000
 80007ec:	601a      	str	r2, [r3, #0]
 80007ee:	2201      	movs	r2, #1
 80007f0:	4b10      	ldr	r3, [pc, #64]	@ (8000834 <ACQ_StartStream+0x5c>)
 80007f2:	601c      	str	r4, [r3, #0]
 80007f4:	4b10      	ldr	r3, [pc, #64]	@ (8000838 <ACQ_StartStream+0x60>)
 80007f6:	701a      	strb	r2, [r3, #0]
 80007f8:	f000 fae0 	bl	8000dbc <SPI5_ClearRxFifo>
 80007fc:	f000 fa68 	bl	8000cd0 <CS_HIGH>
 8000800:	480e      	ldr	r0, [pc, #56]	@ (800083c <ACQ_StartStream+0x64>)
 8000802:	f06f 0204 	mvn.w	r2, #4
 8000806:	2104      	movs	r1, #4
 8000808:	6803      	ldr	r3, [r0, #0]
 800080a:	611a      	str	r2, [r3, #16]
 800080c:	611a      	str	r2, [r3, #16]
 800080e:	f005 f869 	bl	80058e4 <HAL_TIM_IC_Start_IT>
 8000812:	f001 fd41 	bl	8002298 <TIM3_StartConvstPWM>
 8000816:	2003      	movs	r0, #3
 8000818:	f001 fa32 	bl	8001c80 <SM_SetState>
 800081c:	4620      	mov	r0, r4
 800081e:	bd10      	pop	{r4, pc}
 8000820:	2401      	movs	r4, #1
 8000822:	e7fb      	b.n	800081c <ACQ_StartStream+0x44>
 8000824:	2402      	movs	r4, #2
 8000826:	e7f9      	b.n	800081c <ACQ_StartStream+0x44>
 8000828:	200001cc 	.word	0x200001cc
 800082c:	200001c5 	.word	0x200001c5
 8000830:	20000000 	.word	0x20000000
 8000834:	200001c8 	.word	0x200001c8
 8000838:	200001c6 	.word	0x200001c6
 800083c:	200007a0 	.word	0x200007a0

08000840 <ACQ_ArmForTrigger>:
 8000840:	b5f0      	push	{r4, r5, r6, r7, lr}
 8000842:	460c      	mov	r4, r1
 8000844:	b085      	sub	sp, #20
 8000846:	4605      	mov	r5, r0
 8000848:	b918      	cbnz	r0, 8000852 <ACQ_ArmForTrigger+0x12>
 800084a:	2401      	movs	r4, #1
 800084c:	4620      	mov	r0, r4
 800084e:	b005      	add	sp, #20
 8000850:	bdf0      	pop	{r4, r5, r6, r7, pc}
 8000852:	f7ff ff19 	bl	8000688 <ACQ_GetFrameBytes>
 8000856:	f04f 7300 	mov.w	r3, #33554432	@ 0x2000000
 800085a:	fbb3 f3f0 	udiv	r3, r3, r0
 800085e:	429d      	cmp	r5, r3
 8000860:	d8f3      	bhi.n	800084a <ACQ_ArmForTrigger+0xa>
 8000862:	4f1e      	ldr	r7, [pc, #120]	@ (80008dc <ACQ_ArmForTrigger+0x9c>)
 8000864:	783b      	ldrb	r3, [r7, #0]
 8000866:	2b00      	cmp	r3, #0
 8000868:	d136      	bne.n	80008d8 <ACQ_ArmForTrigger+0x98>
 800086a:	4b1d      	ldr	r3, [pc, #116]	@ (80008e0 <ACQ_ArmForTrigger+0xa0>)
 800086c:	781b      	ldrb	r3, [r3, #0]
 800086e:	f003 06ff 	and.w	r6, r3, #255	@ 0xff
 8000872:	bb8b      	cbnz	r3, 80008d8 <ACQ_ArmForTrigger+0x98>
 8000874:	f7ff fed2 	bl	800061c <stop_all_timing>
 8000878:	f04f 4240 	mov.w	r2, #3221225472	@ 0xc0000000
 800087c:	4b19      	ldr	r3, [pc, #100]	@ (80008e4 <ACQ_ArmForTrigger+0xa4>)
 800087e:	703e      	strb	r6, [r7, #0]
 8000880:	601a      	str	r2, [r3, #0]
 8000882:	4b19      	ldr	r3, [pc, #100]	@ (80008e8 <ACQ_ArmForTrigger+0xa8>)
 8000884:	601d      	str	r5, [r3, #0]
 8000886:	2501      	movs	r5, #1
 8000888:	4b18      	ldr	r3, [pc, #96]	@ (80008ec <ACQ_ArmForTrigger+0xac>)
 800088a:	601e      	str	r6, [r3, #0]
 800088c:	4b18      	ldr	r3, [pc, #96]	@ (80008f0 <ACQ_ArmForTrigger+0xb0>)
 800088e:	701d      	strb	r5, [r3, #0]
 8000890:	f000 fa94 	bl	8000dbc <SPI5_ClearRxFifo>
 8000894:	f000 fa1c 	bl	8000cd0 <CS_HIGH>
 8000898:	fab4 f184 	clz	r1, r4
 800089c:	2208      	movs	r2, #8
 800089e:	0949      	lsrs	r1, r1, #5
 80008a0:	40a9      	lsls	r1, r5
 80008a2:	e9cd 1500 	strd	r1, r5, [sp]
 80008a6:	4d13      	ldr	r5, [pc, #76]	@ (80008f4 <ACQ_ArmForTrigger+0xb4>)
 80008a8:	4669      	mov	r1, sp
 80008aa:	4628      	mov	r0, r5
 80008ac:	e9cd 6602 	strd	r6, r6, [sp, #8]
 80008b0:	f004 fe0a 	bl	80054c8 <HAL_TIM_IC_ConfigChannel>
 80008b4:	4604      	mov	r4, r0
 80008b6:	2800      	cmp	r0, #0
 80008b8:	d1c7      	bne.n	800084a <ACQ_ArmForTrigger+0xa>
 80008ba:	682b      	ldr	r3, [r5, #0]
 80008bc:	f06f 0208 	mvn.w	r2, #8
 80008c0:	2108      	movs	r1, #8
 80008c2:	4628      	mov	r0, r5
 80008c4:	611a      	str	r2, [r3, #16]
 80008c6:	611a      	str	r2, [r3, #16]
 80008c8:	f005 f80c 	bl	80058e4 <HAL_TIM_IC_Start_IT>
 80008cc:	f001 fce4 	bl	8002298 <TIM3_StartConvstPWM>
 80008d0:	2002      	movs	r0, #2
 80008d2:	f001 f9d5 	bl	8001c80 <SM_SetState>
 80008d6:	e7b9      	b.n	800084c <ACQ_ArmForTrigger+0xc>
 80008d8:	2402      	movs	r4, #2
 80008da:	e7b7      	b.n	800084c <ACQ_ArmForTrigger+0xc>
 80008dc:	200001c6 	.word	0x200001c6
 80008e0:	200001c4 	.word	0x200001c4
 80008e4:	20000000 	.word	0x20000000
 80008e8:	200001cc 	.word	0x200001cc
 80008ec:	200001c8 	.word	0x200001c8
 80008f0:	200001c5 	.word	0x200001c5
 80008f4:	200007a0 	.word	0x200007a0

080008f8 <ACQ_OnTriggerEdge>:
 80008f8:	b5f8      	push	{r3, r4, r5, r6, r7, lr}
 80008fa:	4e0f      	ldr	r6, [pc, #60]	@ (8000938 <ACQ_OnTriggerEdge+0x40>)
 80008fc:	7833      	ldrb	r3, [r6, #0]
 80008fe:	b1d3      	cbz	r3, 8000936 <ACQ_OnTriggerEdge+0x3e>
 8000900:	4f0e      	ldr	r7, [pc, #56]	@ (800093c <ACQ_OnTriggerEdge+0x44>)
 8000902:	783c      	ldrb	r4, [r7, #0]
 8000904:	b9bc      	cbnz	r4, 8000936 <ACQ_OnTriggerEdge+0x3e>
 8000906:	4d0e      	ldr	r5, [pc, #56]	@ (8000940 <ACQ_OnTriggerEdge+0x48>)
 8000908:	2108      	movs	r1, #8
 800090a:	4628      	mov	r0, r5
 800090c:	f005 f886 	bl	8005a1c <HAL_TIM_IC_Stop_IT>
 8000910:	682b      	ldr	r3, [r5, #0]
 8000912:	f06f 0204 	mvn.w	r2, #4
 8000916:	4628      	mov	r0, r5
 8000918:	2104      	movs	r1, #4
 800091a:	611a      	str	r2, [r3, #16]
 800091c:	611a      	str	r2, [r3, #16]
 800091e:	f004 ffe1 	bl	80058e4 <HAL_TIM_IC_Start_IT>
 8000922:	4b08      	ldr	r3, [pc, #32]	@ (8000944 <ACQ_OnTriggerEdge+0x4c>)
 8000924:	7034      	strb	r4, [r6, #0]
 8000926:	2003      	movs	r0, #3
 8000928:	601c      	str	r4, [r3, #0]
 800092a:	2301      	movs	r3, #1
 800092c:	703b      	strb	r3, [r7, #0]
 800092e:	e8bd 40f8 	ldmia.w	sp!, {r3, r4, r5, r6, r7, lr}
 8000932:	f001 b9a5 	b.w	8001c80 <SM_SetState>
 8000936:	bdf8      	pop	{r3, r4, r5, r6, r7, pc}
 8000938:	200001c5 	.word	0x200001c5
 800093c:	200001c6 	.word	0x200001c6
 8000940:	200007a0 	.word	0x200007a0
 8000944:	200001c8 	.word	0x200001c8

08000948 <ACQ_StopStream>:
 8000948:	b508      	push	{r3, lr}
 800094a:	f7ff fe67 	bl	800061c <stop_all_timing>
 800094e:	2300      	movs	r3, #0
 8000950:	4a04      	ldr	r2, [pc, #16]	@ (8000964 <ACQ_StopStream+0x1c>)
 8000952:	2004      	movs	r0, #4
 8000954:	7013      	strb	r3, [r2, #0]
 8000956:	4a04      	ldr	r2, [pc, #16]	@ (8000968 <ACQ_StopStream+0x20>)
 8000958:	7013      	strb	r3, [r2, #0]
 800095a:	e8bd 4008 	ldmia.w	sp!, {r3, lr}
 800095e:	f001 b98f 	b.w	8001c80 <SM_SetState>
 8000962:	bf00      	nop
 8000964:	200001c6 	.word	0x200001c6
 8000968:	200001c5 	.word	0x200001c5

0800096c <ACQ_SoftReset>:
 800096c:	b508      	push	{r3, lr}
 800096e:	b672      	cpsid	i
 8000970:	f7ff fe54 	bl	800061c <stop_all_timing>
 8000974:	2000      	movs	r0, #0
 8000976:	4b0d      	ldr	r3, [pc, #52]	@ (80009ac <ACQ_SoftReset+0x40>)
 8000978:	f04f 4240 	mov.w	r2, #3221225472	@ 0xc0000000
 800097c:	7018      	strb	r0, [r3, #0]
 800097e:	4b0c      	ldr	r3, [pc, #48]	@ (80009b0 <ACQ_SoftReset+0x44>)
 8000980:	7018      	strb	r0, [r3, #0]
 8000982:	4b0c      	ldr	r3, [pc, #48]	@ (80009b4 <ACQ_SoftReset+0x48>)
 8000984:	7018      	strb	r0, [r3, #0]
 8000986:	4b0c      	ldr	r3, [pc, #48]	@ (80009b8 <ACQ_SoftReset+0x4c>)
 8000988:	601a      	str	r2, [r3, #0]
 800098a:	4b0c      	ldr	r3, [pc, #48]	@ (80009bc <ACQ_SoftReset+0x50>)
 800098c:	6018      	str	r0, [r3, #0]
 800098e:	4b0c      	ldr	r3, [pc, #48]	@ (80009c0 <ACQ_SoftReset+0x54>)
 8000990:	6018      	str	r0, [r3, #0]
 8000992:	4b0c      	ldr	r3, [pc, #48]	@ (80009c4 <ACQ_SoftReset+0x58>)
 8000994:	7018      	strb	r0, [r3, #0]
 8000996:	4b0c      	ldr	r3, [pc, #48]	@ (80009c8 <ACQ_SoftReset+0x5c>)
 8000998:	7018      	strb	r0, [r3, #0]
 800099a:	4b0c      	ldr	r3, [pc, #48]	@ (80009cc <ACQ_SoftReset+0x60>)
 800099c:	6018      	str	r0, [r3, #0]
 800099e:	4b0c      	ldr	r3, [pc, #48]	@ (80009d0 <ACQ_SoftReset+0x64>)
 80009a0:	6018      	str	r0, [r3, #0]
 80009a2:	b662      	cpsie	i
 80009a4:	e8bd 4008 	ldmia.w	sp!, {r3, lr}
 80009a8:	f001 b96a 	b.w	8001c80 <SM_SetState>
 80009ac:	200001c4 	.word	0x200001c4
 80009b0:	200001c1 	.word	0x200001c1
 80009b4:	200001c0 	.word	0x200001c0
 80009b8:	20000000 	.word	0x20000000
 80009bc:	200001cc 	.word	0x200001cc
 80009c0:	200001c8 	.word	0x200001c8
 80009c4:	200001c6 	.word	0x200001c6
 80009c8:	200001c5 	.word	0x200001c5
 80009cc:	20000198 	.word	0x20000198
 80009d0:	20000194 	.word	0x20000194

080009d4 <ACQ_Snapshot_Arm>:
 80009d4:	1e43      	subs	r3, r0, #1
 80009d6:	2b3f      	cmp	r3, #63	@ 0x3f
 80009d8:	b570      	push	{r4, r5, r6, lr}
 80009da:	d82c      	bhi.n	8000a36 <ACQ_Snapshot_Arm+0x62>
 80009dc:	4b18      	ldr	r3, [pc, #96]	@ (8000a40 <ACQ_Snapshot_Arm+0x6c>)
 80009de:	781c      	ldrb	r4, [r3, #0]
 80009e0:	4b18      	ldr	r3, [pc, #96]	@ (8000a44 <ACQ_Snapshot_Arm+0x70>)
 80009e2:	781b      	ldrb	r3, [r3, #0]
 80009e4:	431c      	orrs	r4, r3
 80009e6:	d128      	bne.n	8000a3a <ACQ_Snapshot_Arm+0x66>
 80009e8:	b672      	cpsid	i
 80009ea:	4b17      	ldr	r3, [pc, #92]	@ (8000a48 <ACQ_Snapshot_Arm+0x74>)
 80009ec:	2601      	movs	r6, #1
 80009ee:	4d17      	ldr	r5, [pc, #92]	@ (8000a4c <ACQ_Snapshot_Arm+0x78>)
 80009f0:	7018      	strb	r0, [r3, #0]
 80009f2:	4b17      	ldr	r3, [pc, #92]	@ (8000a50 <ACQ_Snapshot_Arm+0x7c>)
 80009f4:	701c      	strb	r4, [r3, #0]
 80009f6:	4b17      	ldr	r3, [pc, #92]	@ (8000a54 <ACQ_Snapshot_Arm+0x80>)
 80009f8:	701c      	strb	r4, [r3, #0]
 80009fa:	4b17      	ldr	r3, [pc, #92]	@ (8000a58 <ACQ_Snapshot_Arm+0x84>)
 80009fc:	601c      	str	r4, [r3, #0]
 80009fe:	4b17      	ldr	r3, [pc, #92]	@ (8000a5c <ACQ_Snapshot_Arm+0x88>)
 8000a00:	601c      	str	r4, [r3, #0]
 8000a02:	4b17      	ldr	r3, [pc, #92]	@ (8000a60 <ACQ_Snapshot_Arm+0x8c>)
 8000a04:	601c      	str	r4, [r3, #0]
 8000a06:	4b17      	ldr	r3, [pc, #92]	@ (8000a64 <ACQ_Snapshot_Arm+0x90>)
 8000a08:	601c      	str	r4, [r3, #0]
 8000a0a:	4b17      	ldr	r3, [pc, #92]	@ (8000a68 <ACQ_Snapshot_Arm+0x94>)
 8000a0c:	701e      	strb	r6, [r3, #0]
 8000a0e:	702c      	strb	r4, [r5, #0]
 8000a10:	b662      	cpsie	i
 8000a12:	f000 f9d3 	bl	8000dbc <SPI5_ClearRxFifo>
 8000a16:	f000 f95b 	bl	8000cd0 <CS_HIGH>
 8000a1a:	4814      	ldr	r0, [pc, #80]	@ (8000a6c <ACQ_Snapshot_Arm+0x98>)
 8000a1c:	f06f 0204 	mvn.w	r2, #4
 8000a20:	2104      	movs	r1, #4
 8000a22:	6803      	ldr	r3, [r0, #0]
 8000a24:	611a      	str	r2, [r3, #16]
 8000a26:	611a      	str	r2, [r3, #16]
 8000a28:	f004 ff5c 	bl	80058e4 <HAL_TIM_IC_Start_IT>
 8000a2c:	f001 fc34 	bl	8002298 <TIM3_StartConvstPWM>
 8000a30:	702e      	strb	r6, [r5, #0]
 8000a32:	4620      	mov	r0, r4
 8000a34:	bd70      	pop	{r4, r5, r6, pc}
 8000a36:	2401      	movs	r4, #1
 8000a38:	e7fb      	b.n	8000a32 <ACQ_Snapshot_Arm+0x5e>
 8000a3a:	2402      	movs	r4, #2
 8000a3c:	e7f9      	b.n	8000a32 <ACQ_Snapshot_Arm+0x5e>
 8000a3e:	bf00      	nop
 8000a40:	200001c5 	.word	0x200001c5
 8000a44:	200001c6 	.word	0x200001c6
 8000a48:	200001c3 	.word	0x200001c3
 8000a4c:	200001c0 	.word	0x200001c0
 8000a50:	200001c2 	.word	0x200001c2
 8000a54:	200001c1 	.word	0x200001c1
 8000a58:	200001b0 	.word	0x200001b0
 8000a5c:	200001b4 	.word	0x200001b4
 8000a60:	200001b8 	.word	0x200001b8
 8000a64:	200001bc 	.word	0x200001bc
 8000a68:	200001c4 	.word	0x200001c4
 8000a6c:	200007a0 	.word	0x200007a0

08000a70 <ACQ_Snapshot_Cancel>:
 8000a70:	b538      	push	{r3, r4, r5, lr}
 8000a72:	b672      	cpsid	i
 8000a74:	2400      	movs	r4, #0
 8000a76:	4b06      	ldr	r3, [pc, #24]	@ (8000a90 <ACQ_Snapshot_Cancel+0x20>)
 8000a78:	701c      	strb	r4, [r3, #0]
 8000a7a:	4b06      	ldr	r3, [pc, #24]	@ (8000a94 <ACQ_Snapshot_Cancel+0x24>)
 8000a7c:	701c      	strb	r4, [r3, #0]
 8000a7e:	b662      	cpsie	i
 8000a80:	4d05      	ldr	r5, [pc, #20]	@ (8000a98 <ACQ_Snapshot_Cancel+0x28>)
 8000a82:	782b      	ldrb	r3, [r5, #0]
 8000a84:	b113      	cbz	r3, 8000a8c <ACQ_Snapshot_Cancel+0x1c>
 8000a86:	f7ff fdc9 	bl	800061c <stop_all_timing>
 8000a8a:	702c      	strb	r4, [r5, #0]
 8000a8c:	2000      	movs	r0, #0
 8000a8e:	bd38      	pop	{r3, r4, r5, pc}
 8000a90:	200001c4 	.word	0x200001c4
 8000a94:	200001c1 	.word	0x200001c1
 8000a98:	200001c0 	.word	0x200001c0

08000a9c <ACQ_Snapshot_Read_adc>:
 8000a9c:	4a09      	ldr	r2, [pc, #36]	@ (8000ac4 <ACQ_Snapshot_Read_adc+0x28>)
 8000a9e:	7813      	ldrb	r3, [r2, #0]
 8000aa0:	b16b      	cbz	r3, 8000abe <ACQ_Snapshot_Read_adc+0x22>
 8000aa2:	b672      	cpsid	i
 8000aa4:	4b08      	ldr	r3, [pc, #32]	@ (8000ac8 <ACQ_Snapshot_Read_adc+0x2c>)
 8000aa6:	6819      	ldr	r1, [r3, #0]
 8000aa8:	6001      	str	r1, [r0, #0]
 8000aaa:	6859      	ldr	r1, [r3, #4]
 8000aac:	6041      	str	r1, [r0, #4]
 8000aae:	6899      	ldr	r1, [r3, #8]
 8000ab0:	68db      	ldr	r3, [r3, #12]
 8000ab2:	6081      	str	r1, [r0, #8]
 8000ab4:	60c3      	str	r3, [r0, #12]
 8000ab6:	2000      	movs	r0, #0
 8000ab8:	7010      	strb	r0, [r2, #0]
 8000aba:	b662      	cpsie	i
 8000abc:	4770      	bx	lr
 8000abe:	2002      	movs	r0, #2
 8000ac0:	4770      	bx	lr
 8000ac2:	bf00      	nop
 8000ac4:	200001c1 	.word	0x200001c1
 8000ac8:	200001a0 	.word	0x200001a0

08000acc <ACQ_OnBusyFallingISR>:
 8000acc:	e92d 41f3 	stmdb	sp!, {r0, r1, r4, r5, r6, r7, r8, lr}
 8000ad0:	4c5d      	ldr	r4, [pc, #372]	@ (8000c48 <ACQ_OnBusyFallingISR+0x17c>)
 8000ad2:	7823      	ldrb	r3, [r4, #0]
 8000ad4:	b133      	cbz	r3, 8000ae4 <ACQ_OnBusyFallingISR+0x18>
 8000ad6:	4a5d      	ldr	r2, [pc, #372]	@ (8000c4c <ACQ_OnBusyFallingISR+0x180>)
 8000ad8:	6813      	ldr	r3, [r2, #0]
 8000ada:	3301      	adds	r3, #1
 8000adc:	6013      	str	r3, [r2, #0]
 8000ade:	b002      	add	sp, #8
 8000ae0:	e8bd 81f0 	ldmia.w	sp!, {r4, r5, r6, r7, r8, pc}
 8000ae4:	2501      	movs	r5, #1
 8000ae6:	4668      	mov	r0, sp
 8000ae8:	7025      	strb	r5, [r4, #0]
 8000aea:	f000 f977 	bl	8000ddc <AD7606_Read4Words_Tight>
 8000aee:	b928      	cbnz	r0, 8000afc <ACQ_OnBusyFallingISR+0x30>
 8000af0:	4a57      	ldr	r2, [pc, #348]	@ (8000c50 <ACQ_OnBusyFallingISR+0x184>)
 8000af2:	6813      	ldr	r3, [r2, #0]
 8000af4:	442b      	add	r3, r5
 8000af6:	6013      	str	r3, [r2, #0]
 8000af8:	7020      	strb	r0, [r4, #0]
 8000afa:	e7f0      	b.n	8000ade <ACQ_OnBusyFallingISR+0x12>
 8000afc:	4f55      	ldr	r7, [pc, #340]	@ (8000c54 <ACQ_OnBusyFallingISR+0x188>)
 8000afe:	783b      	ldrb	r3, [r7, #0]
 8000b00:	2b00      	cmp	r3, #0
 8000b02:	d04f      	beq.n	8000ba4 <ACQ_OnBusyFallingISR+0xd8>
 8000b04:	4854      	ldr	r0, [pc, #336]	@ (8000c58 <ACQ_OnBusyFallingISR+0x18c>)
 8000b06:	7803      	ldrb	r3, [r0, #0]
 8000b08:	f003 06ff 	and.w	r6, r3, #255	@ 0xff
 8000b0c:	2b00      	cmp	r3, #0
 8000b0e:	d149      	bne.n	8000ba4 <ACQ_OnBusyFallingISR+0xd8>
 8000b10:	4a52      	ldr	r2, [pc, #328]	@ (8000c5c <ACQ_OnBusyFallingISR+0x190>)
 8000b12:	f9bd 3000 	ldrsh.w	r3, [sp]
 8000b16:	6811      	ldr	r1, [r2, #0]
 8000b18:	f8df 8164 	ldr.w	r8, [pc, #356]	@ 8000c80 <ACQ_OnBusyFallingISR+0x1b4>
 8000b1c:	440b      	add	r3, r1
 8000b1e:	f8df e164 	ldr.w	lr, [pc, #356]	@ 8000c84 <ACQ_OnBusyFallingISR+0x1b8>
 8000b22:	f8df c164 	ldr.w	ip, [pc, #356]	@ 8000c88 <ACQ_OnBusyFallingISR+0x1bc>
 8000b26:	6013      	str	r3, [r2, #0]
 8000b28:	f9bd 3002 	ldrsh.w	r3, [sp, #2]
 8000b2c:	f8d8 1000 	ldr.w	r1, [r8]
 8000b30:	440b      	add	r3, r1
 8000b32:	f8c8 3000 	str.w	r3, [r8]
 8000b36:	f9bd 3004 	ldrsh.w	r3, [sp, #4]
 8000b3a:	f8de 1000 	ldr.w	r1, [lr]
 8000b3e:	440b      	add	r3, r1
 8000b40:	f8ce 3000 	str.w	r3, [lr]
 8000b44:	f9bd 3006 	ldrsh.w	r3, [sp, #6]
 8000b48:	f8dc 1000 	ldr.w	r1, [ip]
 8000b4c:	440b      	add	r3, r1
 8000b4e:	4944      	ldr	r1, [pc, #272]	@ (8000c60 <ACQ_OnBusyFallingISR+0x194>)
 8000b50:	f8cc 3000 	str.w	r3, [ip]
 8000b54:	780b      	ldrb	r3, [r1, #0]
 8000b56:	3301      	adds	r3, #1
 8000b58:	b2db      	uxtb	r3, r3
 8000b5a:	700b      	strb	r3, [r1, #0]
 8000b5c:	4941      	ldr	r1, [pc, #260]	@ (8000c64 <ACQ_OnBusyFallingISR+0x198>)
 8000b5e:	7809      	ldrb	r1, [r1, #0]
 8000b60:	428b      	cmp	r3, r1
 8000b62:	d31f      	bcc.n	8000ba4 <ACQ_OnBusyFallingISR+0xd8>
 8000b64:	6812      	ldr	r2, [r2, #0]
 8000b66:	4940      	ldr	r1, [pc, #256]	@ (8000c68 <ACQ_OnBusyFallingISR+0x19c>)
 8000b68:	fb92 f2f3 	sdiv	r2, r2, r3
 8000b6c:	b212      	sxth	r2, r2
 8000b6e:	600a      	str	r2, [r1, #0]
 8000b70:	f8d8 2000 	ldr.w	r2, [r8]
 8000b74:	fb92 f2f3 	sdiv	r2, r2, r3
 8000b78:	b212      	sxth	r2, r2
 8000b7a:	604a      	str	r2, [r1, #4]
 8000b7c:	f8de 2000 	ldr.w	r2, [lr]
 8000b80:	fb92 f2f3 	sdiv	r2, r2, r3
 8000b84:	b212      	sxth	r2, r2
 8000b86:	608a      	str	r2, [r1, #8]
 8000b88:	f8dc 2000 	ldr.w	r2, [ip]
 8000b8c:	fb92 f3f3 	sdiv	r3, r2, r3
 8000b90:	b21b      	sxth	r3, r3
 8000b92:	60cb      	str	r3, [r1, #12]
 8000b94:	703e      	strb	r6, [r7, #0]
 8000b96:	7005      	strb	r5, [r0, #0]
 8000b98:	4d34      	ldr	r5, [pc, #208]	@ (8000c6c <ACQ_OnBusyFallingISR+0x1a0>)
 8000b9a:	782b      	ldrb	r3, [r5, #0]
 8000b9c:	b113      	cbz	r3, 8000ba4 <ACQ_OnBusyFallingISR+0xd8>
 8000b9e:	f7ff fd3d 	bl	800061c <stop_all_timing>
 8000ba2:	702e      	strb	r6, [r5, #0]
 8000ba4:	4d32      	ldr	r5, [pc, #200]	@ (8000c70 <ACQ_OnBusyFallingISR+0x1a4>)
 8000ba6:	782b      	ldrb	r3, [r5, #0]
 8000ba8:	b32b      	cbz	r3, 8000bf6 <ACQ_OnBusyFallingISR+0x12a>
 8000baa:	f7ff fd53 	bl	8000654 <ACQ_GetChannelMask>
 8000bae:	280f      	cmp	r0, #15
 8000bb0:	d124      	bne.n	8000bfc <ACQ_OnBusyFallingISR+0x130>
 8000bb2:	4a30      	ldr	r2, [pc, #192]	@ (8000c74 <ACQ_OnBusyFallingISR+0x1a8>)
 8000bb4:	f9bd 1000 	ldrsh.w	r1, [sp]
 8000bb8:	6813      	ldr	r3, [r2, #0]
 8000bba:	8019      	strh	r1, [r3, #0]
 8000bbc:	3308      	adds	r3, #8
 8000bbe:	f9bd 1002 	ldrsh.w	r1, [sp, #2]
 8000bc2:	f823 1c06 	strh.w	r1, [r3, #-6]
 8000bc6:	f9bd 1004 	ldrsh.w	r1, [sp, #4]
 8000bca:	f823 1c04 	strh.w	r1, [r3, #-4]
 8000bce:	f9bd 1006 	ldrsh.w	r1, [sp, #6]
 8000bd2:	f823 1c02 	strh.w	r1, [r3, #-2]
 8000bd6:	6013      	str	r3, [r2, #0]
 8000bd8:	4a27      	ldr	r2, [pc, #156]	@ (8000c78 <ACQ_OnBusyFallingISR+0x1ac>)
 8000bda:	6813      	ldr	r3, [r2, #0]
 8000bdc:	3301      	adds	r3, #1
 8000bde:	6013      	str	r3, [r2, #0]
 8000be0:	4a26      	ldr	r2, [pc, #152]	@ (8000c7c <ACQ_OnBusyFallingISR+0x1b0>)
 8000be2:	6812      	ldr	r2, [r2, #0]
 8000be4:	4293      	cmp	r3, r2
 8000be6:	d306      	bcc.n	8000bf6 <ACQ_OnBusyFallingISR+0x12a>
 8000be8:	f7ff fd18 	bl	800061c <stop_all_timing>
 8000bec:	2300      	movs	r3, #0
 8000bee:	2004      	movs	r0, #4
 8000bf0:	702b      	strb	r3, [r5, #0]
 8000bf2:	f001 f845 	bl	8001c80 <SM_SetState>
 8000bf6:	2300      	movs	r3, #0
 8000bf8:	7023      	strb	r3, [r4, #0]
 8000bfa:	e770      	b.n	8000ade <ACQ_OnBusyFallingISR+0x12>
 8000bfc:	07c6      	lsls	r6, r0, #31
 8000bfe:	d506      	bpl.n	8000c0e <ACQ_OnBusyFallingISR+0x142>
 8000c00:	4a1c      	ldr	r2, [pc, #112]	@ (8000c74 <ACQ_OnBusyFallingISR+0x1a8>)
 8000c02:	6813      	ldr	r3, [r2, #0]
 8000c04:	1c99      	adds	r1, r3, #2
 8000c06:	6011      	str	r1, [r2, #0]
 8000c08:	f9bd 2000 	ldrsh.w	r2, [sp]
 8000c0c:	801a      	strh	r2, [r3, #0]
 8000c0e:	0781      	lsls	r1, r0, #30
 8000c10:	d506      	bpl.n	8000c20 <ACQ_OnBusyFallingISR+0x154>
 8000c12:	4a18      	ldr	r2, [pc, #96]	@ (8000c74 <ACQ_OnBusyFallingISR+0x1a8>)
 8000c14:	6813      	ldr	r3, [r2, #0]
 8000c16:	1c99      	adds	r1, r3, #2
 8000c18:	6011      	str	r1, [r2, #0]
 8000c1a:	f9bd 2002 	ldrsh.w	r2, [sp, #2]
 8000c1e:	801a      	strh	r2, [r3, #0]
 8000c20:	0742      	lsls	r2, r0, #29
 8000c22:	d506      	bpl.n	8000c32 <ACQ_OnBusyFallingISR+0x166>
 8000c24:	4a13      	ldr	r2, [pc, #76]	@ (8000c74 <ACQ_OnBusyFallingISR+0x1a8>)
 8000c26:	6813      	ldr	r3, [r2, #0]
 8000c28:	1c99      	adds	r1, r3, #2
 8000c2a:	6011      	str	r1, [r2, #0]
 8000c2c:	f9bd 2004 	ldrsh.w	r2, [sp, #4]
 8000c30:	801a      	strh	r2, [r3, #0]
 8000c32:	0703      	lsls	r3, r0, #28
 8000c34:	d5d0      	bpl.n	8000bd8 <ACQ_OnBusyFallingISR+0x10c>
 8000c36:	4a0f      	ldr	r2, [pc, #60]	@ (8000c74 <ACQ_OnBusyFallingISR+0x1a8>)
 8000c38:	6813      	ldr	r3, [r2, #0]
 8000c3a:	1c99      	adds	r1, r3, #2
 8000c3c:	6011      	str	r1, [r2, #0]
 8000c3e:	f9bd 2006 	ldrsh.w	r2, [sp, #6]
 8000c42:	801a      	strh	r2, [r3, #0]
 8000c44:	e7c8      	b.n	8000bd8 <ACQ_OnBusyFallingISR+0x10c>
 8000c46:	bf00      	nop
 8000c48:	2000019c 	.word	0x2000019c
 8000c4c:	20000198 	.word	0x20000198
 8000c50:	20000194 	.word	0x20000194
 8000c54:	200001c4 	.word	0x200001c4
 8000c58:	200001c1 	.word	0x200001c1
 8000c5c:	200001bc 	.word	0x200001bc
 8000c60:	200001c2 	.word	0x200001c2
 8000c64:	200001c3 	.word	0x200001c3
 8000c68:	200001a0 	.word	0x200001a0
 8000c6c:	200001c0 	.word	0x200001c0
 8000c70:	200001c6 	.word	0x200001c6
 8000c74:	20000000 	.word	0x20000000
 8000c78:	200001c8 	.word	0x200001c8
 8000c7c:	200001cc 	.word	0x200001cc
 8000c80:	200001b8 	.word	0x200001b8
 8000c84:	200001b4 	.word	0x200001b4
 8000c88:	200001b0 	.word	0x200001b0

08000c8c <ACQ_IsStreaming>:
 8000c8c:	4b01      	ldr	r3, [pc, #4]	@ (8000c94 <ACQ_IsStreaming+0x8>)
 8000c8e:	7818      	ldrb	r0, [r3, #0]
 8000c90:	4770      	bx	lr
 8000c92:	bf00      	nop
 8000c94:	200001c6 	.word	0x200001c6

08000c98 <ACQ_StreamFramesRemaining>:
 8000c98:	4b04      	ldr	r3, [pc, #16]	@ (8000cac <ACQ_StreamFramesRemaining+0x14>)
 8000c9a:	6818      	ldr	r0, [r3, #0]
 8000c9c:	4b04      	ldr	r3, [pc, #16]	@ (8000cb0 <ACQ_StreamFramesRemaining+0x18>)
 8000c9e:	681b      	ldr	r3, [r3, #0]
 8000ca0:	4298      	cmp	r0, r3
 8000ca2:	bf8c      	ite	hi
 8000ca4:	1ac0      	subhi	r0, r0, r3
 8000ca6:	2000      	movls	r0, #0
 8000ca8:	4770      	bx	lr
 8000caa:	bf00      	nop
 8000cac:	200001cc 	.word	0x200001cc
 8000cb0:	200001c8 	.word	0x200001c8

08000cb4 <ACQ_StreamWriteAddress>:
 8000cb4:	4b01      	ldr	r3, [pc, #4]	@ (8000cbc <ACQ_StreamWriteAddress+0x8>)
 8000cb6:	6818      	ldr	r0, [r3, #0]
 8000cb8:	4770      	bx	lr
 8000cba:	bf00      	nop
 8000cbc:	20000000 	.word	0x20000000

08000cc0 <CS_LOW>:
 8000cc0:	4b02      	ldr	r3, [pc, #8]	@ (8000ccc <CS_LOW+0xc>)
 8000cc2:	685a      	ldr	r2, [r3, #4]
 8000cc4:	891b      	ldrh	r3, [r3, #8]
 8000cc6:	041b      	lsls	r3, r3, #16
 8000cc8:	6193      	str	r3, [r2, #24]
 8000cca:	4770      	bx	lr
 8000ccc:	20000004 	.word	0x20000004

08000cd0 <CS_HIGH>:
 8000cd0:	4b02      	ldr	r3, [pc, #8]	@ (8000cdc <CS_HIGH+0xc>)
 8000cd2:	685a      	ldr	r2, [r3, #4]
 8000cd4:	891b      	ldrh	r3, [r3, #8]
 8000cd6:	6193      	str	r3, [r2, #24]
 8000cd8:	4770      	bx	lr
 8000cda:	bf00      	nop
 8000cdc:	20000004 	.word	0x20000004

08000ce0 <AD7606_Reset>:
 8000ce0:	b510      	push	{r4, lr}
 8000ce2:	8a01      	ldrh	r1, [r0, #16]
 8000ce4:	4604      	mov	r4, r0
 8000ce6:	2201      	movs	r2, #1
 8000ce8:	68c0      	ldr	r0, [r0, #12]
 8000cea:	f001 ffb7 	bl	8002c5c <HAL_GPIO_WritePin>
 8000cee:	2002      	movs	r0, #2
 8000cf0:	f001 fb8a 	bl	8002408 <HAL_Delay>
 8000cf4:	68e0      	ldr	r0, [r4, #12]
 8000cf6:	8a21      	ldrh	r1, [r4, #16]
 8000cf8:	2200      	movs	r2, #0
 8000cfa:	f001 ffaf 	bl	8002c5c <HAL_GPIO_WritePin>
 8000cfe:	2002      	movs	r0, #2
 8000d00:	e8bd 4010 	ldmia.w	sp!, {r4, lr}
 8000d04:	f001 bb80 	b.w	8002408 <HAL_Delay>

08000d08 <SPI5_Ensure_Mode0_16bit_FullDuplex_SwNSS_Presc8>:
 8000d08:	4b10      	ldr	r3, [pc, #64]	@ (8000d4c <SPI5_Ensure_Mode0_16bit_FullDuplex_SwNSS_Presc8+0x44>)
 8000d0a:	689a      	ldr	r2, [r3, #8]
 8000d0c:	0612      	lsls	r2, r2, #24
 8000d0e:	d4fc      	bmi.n	8000d0a <SPI5_Ensure_Mode0_16bit_FullDuplex_SwNSS_Presc8+0x2>
 8000d10:	681a      	ldr	r2, [r3, #0]
 8000d12:	f022 0240 	bic.w	r2, r2, #64	@ 0x40
 8000d16:	601a      	str	r2, [r3, #0]
 8000d18:	68da      	ldr	r2, [r3, #12]
 8000d1a:	689a      	ldr	r2, [r3, #8]
 8000d1c:	f44f 7245 	mov.w	r2, #788	@ 0x314
 8000d20:	601a      	str	r2, [r3, #0]
 8000d22:	681a      	ldr	r2, [r3, #0]
 8000d24:	f422 4224 	bic.w	r2, r2, #41984	@ 0xa400
 8000d28:	601a      	str	r2, [r3, #0]
 8000d2a:	685a      	ldr	r2, [r3, #4]
 8000d2c:	f422 52f8 	bic.w	r2, r2, #7936	@ 0x1f00
 8000d30:	f022 0208 	bic.w	r2, r2, #8
 8000d34:	f442 6270 	orr.w	r2, r2, #3840	@ 0xf00
 8000d38:	605a      	str	r2, [r3, #4]
 8000d3a:	685a      	ldr	r2, [r3, #4]
 8000d3c:	f422 5280 	bic.w	r2, r2, #4096	@ 0x1000
 8000d40:	605a      	str	r2, [r3, #4]
 8000d42:	681a      	ldr	r2, [r3, #0]
 8000d44:	f042 0240 	orr.w	r2, r2, #64	@ 0x40
 8000d48:	601a      	str	r2, [r3, #0]
 8000d4a:	4770      	bx	lr
 8000d4c:	40015000 	.word	0x40015000

08000d50 <AD7606_SetOversampling>:
 8000d50:	2806      	cmp	r0, #6
 8000d52:	f04f 0180 	mov.w	r1, #128	@ 0x80
 8000d56:	bf28      	it	cs
 8000d58:	2006      	movcs	r0, #6
 8000d5a:	b538      	push	{r3, r4, r5, lr}
 8000d5c:	4d0c      	ldr	r5, [pc, #48]	@ (8000d90 <AD7606_SetOversampling+0x40>)
 8000d5e:	4604      	mov	r4, r0
 8000d60:	f000 0201 	and.w	r2, r0, #1
 8000d64:	4628      	mov	r0, r5
 8000d66:	f001 ff79 	bl	8002c5c <HAL_GPIO_WritePin>
 8000d6a:	f3c4 0240 	ubfx	r2, r4, #1, #1
 8000d6e:	4628      	mov	r0, r5
 8000d70:	f44f 7180 	mov.w	r1, #256	@ 0x100
 8000d74:	f001 ff72 	bl	8002c5c <HAL_GPIO_WritePin>
 8000d78:	4628      	mov	r0, r5
 8000d7a:	f3c4 0280 	ubfx	r2, r4, #2, #1
 8000d7e:	f44f 7100 	mov.w	r1, #512	@ 0x200
 8000d82:	f001 ff6b 	bl	8002c5c <HAL_GPIO_WritePin>
 8000d86:	200a      	movs	r0, #10
 8000d88:	e8bd 4038 	ldmia.w	sp!, {r3, r4, r5, lr}
 8000d8c:	f7ff be22 	b.w	80009d4 <ACQ_Snapshot_Arm>
 8000d90:	40020400 	.word	0x40020400

08000d94 <AD7606_Init>:
 8000d94:	b510      	push	{r4, lr}
 8000d96:	4604      	mov	r4, r0
 8000d98:	f7ff ff9a 	bl	8000cd0 <CS_HIGH>
 8000d9c:	f7ff ffb4 	bl	8000d08 <SPI5_Ensure_Mode0_16bit_FullDuplex_SwNSS_Presc8>
 8000da0:	200a      	movs	r0, #10
 8000da2:	f001 fb31 	bl	8002408 <HAL_Delay>
 8000da6:	4620      	mov	r0, r4
 8000da8:	f7ff ff9a 	bl	8000ce0 <AD7606_Reset>
 8000dac:	200a      	movs	r0, #10
 8000dae:	f001 fb2b 	bl	8002408 <HAL_Delay>
 8000db2:	2000      	movs	r0, #0
 8000db4:	e8bd 4010 	ldmia.w	sp!, {r4, lr}
 8000db8:	f7ff bfca 	b.w	8000d50 <AD7606_SetOversampling>

08000dbc <SPI5_ClearRxFifo>:
 8000dbc:	b082      	sub	sp, #8
 8000dbe:	4b06      	ldr	r3, [pc, #24]	@ (8000dd8 <SPI5_ClearRxFifo+0x1c>)
 8000dc0:	689a      	ldr	r2, [r3, #8]
 8000dc2:	f012 0f01 	tst.w	r2, #1
 8000dc6:	68da      	ldr	r2, [r3, #12]
 8000dc8:	9201      	str	r2, [sp, #4]
 8000dca:	9a01      	ldr	r2, [sp, #4]
 8000dcc:	d1f8      	bne.n	8000dc0 <SPI5_ClearRxFifo+0x4>
 8000dce:	689b      	ldr	r3, [r3, #8]
 8000dd0:	9301      	str	r3, [sp, #4]
 8000dd2:	9b01      	ldr	r3, [sp, #4]
 8000dd4:	b002      	add	sp, #8
 8000dd6:	4770      	bx	lr
 8000dd8:	40015000 	.word	0x40015000

08000ddc <AD7606_Read4Words_Tight>:
 8000ddc:	b538      	push	{r3, r4, r5, lr}
 8000dde:	f7ff ffed 	bl	8000dbc <SPI5_ClearRxFifo>
 8000de2:	f7ff ff6d 	bl	8000cc0 <CS_LOW>
 8000de6:	f240 73d1 	movw	r3, #2001	@ 0x7d1
 8000dea:	4a1b      	ldr	r2, [pc, #108]	@ (8000e58 <AD7606_Read4Words_Tight+0x7c>)
 8000dec:	3b01      	subs	r3, #1
 8000dee:	d109      	bne.n	8000e04 <AD7606_Read4Words_Tight+0x28>
 8000df0:	f7ff ff6e 	bl	8000cd0 <CS_HIGH>
 8000df4:	4a19      	ldr	r2, [pc, #100]	@ (8000e5c <AD7606_Read4Words_Tight+0x80>)
 8000df6:	2000      	movs	r0, #0
 8000df8:	6813      	ldr	r3, [r2, #0]
 8000dfa:	3301      	adds	r3, #1
 8000dfc:	6013      	str	r3, [r2, #0]
 8000dfe:	f7ff ffdd 	bl	8000dbc <SPI5_ClearRxFifo>
 8000e02:	e024      	b.n	8000e4e <AD7606_Read4Words_Tight+0x72>
 8000e04:	6911      	ldr	r1, [r2, #16]
 8000e06:	0649      	lsls	r1, r1, #25
 8000e08:	d5f0      	bpl.n	8000dec <AD7606_Read4Words_Tight+0x10>
 8000e0a:	f100 0208 	add.w	r2, r0, #8
 8000e0e:	4b14      	ldr	r3, [pc, #80]	@ (8000e60 <AD7606_Read4Words_Tight+0x84>)
 8000e10:	f64f 74ff 	movw	r4, #65535	@ 0xffff
 8000e14:	e00e      	b.n	8000e34 <AD7606_Read4Words_Tight+0x58>
 8000e16:	3901      	subs	r1, #1
 8000e18:	d0ea      	beq.n	8000df0 <AD7606_Read4Words_Tight+0x14>
 8000e1a:	689d      	ldr	r5, [r3, #8]
 8000e1c:	07ad      	lsls	r5, r5, #30
 8000e1e:	d5fa      	bpl.n	8000e16 <AD7606_Read4Words_Tight+0x3a>
 8000e20:	4910      	ldr	r1, [pc, #64]	@ (8000e64 <AD7606_Read4Words_Tight+0x88>)
 8000e22:	819c      	strh	r4, [r3, #12]
 8000e24:	689d      	ldr	r5, [r3, #8]
 8000e26:	07ed      	lsls	r5, r5, #31
 8000e28:	d506      	bpl.n	8000e38 <AD7606_Read4Words_Tight+0x5c>
 8000e2a:	8999      	ldrh	r1, [r3, #12]
 8000e2c:	f822 1d02 	strh.w	r1, [r2, #-2]!
 8000e30:	4282      	cmp	r2, r0
 8000e32:	d00d      	beq.n	8000e50 <AD7606_Read4Words_Tight+0x74>
 8000e34:	490b      	ldr	r1, [pc, #44]	@ (8000e64 <AD7606_Read4Words_Tight+0x88>)
 8000e36:	e7f0      	b.n	8000e1a <AD7606_Read4Words_Tight+0x3e>
 8000e38:	3901      	subs	r1, #1
 8000e3a:	d1f3      	bne.n	8000e24 <AD7606_Read4Words_Tight+0x48>
 8000e3c:	e7d8      	b.n	8000df0 <AD7606_Read4Words_Tight+0x14>
 8000e3e:	3b01      	subs	r3, #1
 8000e40:	d0d6      	beq.n	8000df0 <AD7606_Read4Words_Tight+0x14>
 8000e42:	688a      	ldr	r2, [r1, #8]
 8000e44:	0612      	lsls	r2, r2, #24
 8000e46:	d4fa      	bmi.n	8000e3e <AD7606_Read4Words_Tight+0x62>
 8000e48:	2001      	movs	r0, #1
 8000e4a:	f7ff ff41 	bl	8000cd0 <CS_HIGH>
 8000e4e:	bd38      	pop	{r3, r4, r5, pc}
 8000e50:	4b04      	ldr	r3, [pc, #16]	@ (8000e64 <AD7606_Read4Words_Tight+0x88>)
 8000e52:	4903      	ldr	r1, [pc, #12]	@ (8000e60 <AD7606_Read4Words_Tight+0x84>)
 8000e54:	e7f5      	b.n	8000e42 <AD7606_Read4Words_Tight+0x66>
 8000e56:	bf00      	nop
 8000e58:	40020400 	.word	0x40020400
 8000e5c:	200001d0 	.word	0x200001d0
 8000e60:	40015000 	.word	0x40015000
 8000e64:	00030d40 	.word	0x00030d40

08000e68 <CALDUMP_Start>:
 8000e68:	1e43      	subs	r3, r0, #1
 8000e6a:	2b03      	cmp	r3, #3
 8000e6c:	4b08      	ldr	r3, [pc, #32]	@ (8000e90 <CALDUMP_Start+0x28>)
 8000e6e:	d80c      	bhi.n	8000e8a <CALDUMP_Start+0x22>
 8000e70:	2201      	movs	r2, #1
 8000e72:	7058      	strb	r0, [r3, #1]
 8000e74:	701a      	strb	r2, [r3, #0]
 8000e76:	2200      	movs	r2, #0
 8000e78:	709a      	strb	r2, [r3, #2]
 8000e7a:	4a06      	ldr	r2, [pc, #24]	@ (8000e94 <CALDUMP_Start+0x2c>)
 8000e7c:	605a      	str	r2, [r3, #4]
 8000e7e:	4a06      	ldr	r2, [pc, #24]	@ (8000e98 <CALDUMP_Start+0x30>)
 8000e80:	609a      	str	r2, [r3, #8]
 8000e82:	f44f 6240 	mov.w	r2, #3072	@ 0xc00
 8000e86:	60da      	str	r2, [r3, #12]
 8000e88:	4770      	bx	lr
 8000e8a:	2200      	movs	r2, #0
 8000e8c:	701a      	strb	r2, [r3, #0]
 8000e8e:	4770      	bx	lr
 8000e90:	200001d4 	.word	0x200001d4
 8000e94:	02000006 	.word	0x02000006
 8000e98:	08009091 	.word	0x08009091

08000e9c <CALDUMP_IsActive>:
 8000e9c:	4b01      	ldr	r3, [pc, #4]	@ (8000ea4 <CALDUMP_IsActive+0x8>)
 8000e9e:	7818      	ldrb	r0, [r3, #0]
 8000ea0:	4770      	bx	lr
 8000ea2:	bf00      	nop
 8000ea4:	200001d4 	.word	0x200001d4

08000ea8 <CALDUMP_Task>:
 8000ea8:	b530      	push	{r4, r5, lr}
 8000eaa:	4c20      	ldr	r4, [pc, #128]	@ (8000f2c <CALDUMP_Task+0x84>)
 8000eac:	b09b      	sub	sp, #108	@ 0x6c
 8000eae:	7823      	ldrb	r3, [r4, #0]
 8000eb0:	b193      	cbz	r3, 8000ed8 <CALDUMP_Task+0x30>
 8000eb2:	78a3      	ldrb	r3, [r4, #2]
 8000eb4:	b993      	cbnz	r3, 8000edc <CALDUMP_Task+0x34>
 8000eb6:	88a3      	ldrh	r3, [r4, #4]
 8000eb8:	2160      	movs	r1, #96	@ 0x60
 8000eba:	4a1d      	ldr	r2, [pc, #116]	@ (8000f30 <CALDUMP_Task+0x88>)
 8000ebc:	a802      	add	r0, sp, #8
 8000ebe:	9301      	str	r3, [sp, #4]
 8000ec0:	88e3      	ldrh	r3, [r4, #6]
 8000ec2:	9300      	str	r3, [sp, #0]
 8000ec4:	7863      	ldrb	r3, [r4, #1]
 8000ec6:	f007 fb65 	bl	8008594 <sniprintf>
 8000eca:	b281      	uxth	r1, r0
 8000ecc:	a802      	add	r0, sp, #8
 8000ece:	f006 fb65 	bl	800759c <CDC_Transmit_HS>
 8000ed2:	b908      	cbnz	r0, 8000ed8 <CALDUMP_Task+0x30>
 8000ed4:	2301      	movs	r3, #1
 8000ed6:	70a3      	strb	r3, [r4, #2]
 8000ed8:	b01b      	add	sp, #108	@ 0x6c
 8000eda:	bd30      	pop	{r4, r5, pc}
 8000edc:	2b01      	cmp	r3, #1
 8000ede:	d113      	bne.n	8000f08 <CALDUMP_Task+0x60>
 8000ee0:	68e5      	ldr	r5, [r4, #12]
 8000ee2:	b90d      	cbnz	r5, 8000ee8 <CALDUMP_Task+0x40>
 8000ee4:	2302      	movs	r3, #2
 8000ee6:	e7f6      	b.n	8000ed6 <CALDUMP_Task+0x2e>
 8000ee8:	2d40      	cmp	r5, #64	@ 0x40
 8000eea:	68a0      	ldr	r0, [r4, #8]
 8000eec:	bf28      	it	cs
 8000eee:	2540      	movcs	r5, #64	@ 0x40
 8000ef0:	b2a9      	uxth	r1, r5
 8000ef2:	f006 fb53 	bl	800759c <CDC_Transmit_HS>
 8000ef6:	2800      	cmp	r0, #0
 8000ef8:	d1ee      	bne.n	8000ed8 <CALDUMP_Task+0x30>
 8000efa:	68a3      	ldr	r3, [r4, #8]
 8000efc:	442b      	add	r3, r5
 8000efe:	60a3      	str	r3, [r4, #8]
 8000f00:	68e3      	ldr	r3, [r4, #12]
 8000f02:	1b5b      	subs	r3, r3, r5
 8000f04:	60e3      	str	r3, [r4, #12]
 8000f06:	e7e7      	b.n	8000ed8 <CALDUMP_Task+0x30>
 8000f08:	2b02      	cmp	r3, #2
 8000f0a:	d1e5      	bne.n	8000ed8 <CALDUMP_Task+0x30>
 8000f0c:	4a09      	ldr	r2, [pc, #36]	@ (8000f34 <CALDUMP_Task+0x8c>)
 8000f0e:	ab02      	add	r3, sp, #8
 8000f10:	6810      	ldr	r0, [r2, #0]
 8000f12:	6851      	ldr	r1, [r2, #4]
 8000f14:	8912      	ldrh	r2, [r2, #8]
 8000f16:	c303      	stmia	r3!, {r0, r1}
 8000f18:	2109      	movs	r1, #9
 8000f1a:	a802      	add	r0, sp, #8
 8000f1c:	801a      	strh	r2, [r3, #0]
 8000f1e:	f006 fb3d 	bl	800759c <CDC_Transmit_HS>
 8000f22:	2800      	cmp	r0, #0
 8000f24:	d1d8      	bne.n	8000ed8 <CALDUMP_Task+0x30>
 8000f26:	7020      	strb	r0, [r4, #0]
 8000f28:	e7d6      	b.n	8000ed8 <CALDUMP_Task+0x30>
 8000f2a:	bf00      	nop
 8000f2c:	200001d4 	.word	0x200001d4
 8000f30:	08008df4 	.word	0x08008df4
 8000f34:	08008e08 	.word	0x08008e08

08000f38 <TCA_WriteReg>:
 8000f38:	b57f      	push	{r0, r1, r2, r3, r4, r5, r6, lr}
 8000f3a:	2301      	movs	r3, #1
 8000f3c:	f88d 1017 	strb.w	r1, [sp, #23]
 8000f40:	210a      	movs	r1, #10
 8000f42:	4602      	mov	r2, r0
 8000f44:	4807      	ldr	r0, [pc, #28]	@ (8000f64 <TCA_WriteReg+0x2c>)
 8000f46:	e9cd 3101 	strd	r3, r1, [sp, #4]
 8000f4a:	f10d 0117 	add.w	r1, sp, #23
 8000f4e:	9100      	str	r1, [sp, #0]
 8000f50:	2144      	movs	r1, #68	@ 0x44
 8000f52:	f002 f9ad 	bl	80032b0 <HAL_I2C_Mem_Write>
 8000f56:	fab0 f080 	clz	r0, r0
 8000f5a:	0940      	lsrs	r0, r0, #5
 8000f5c:	b007      	add	sp, #28
 8000f5e:	f85d fb04 	ldr.w	pc, [sp], #4
 8000f62:	bf00      	nop
 8000f64:	20000850 	.word	0x20000850

08000f68 <TCA_ReadReg>:
 8000f68:	b51f      	push	{r0, r1, r2, r3, r4, lr}
 8000f6a:	4602      	mov	r2, r0
 8000f6c:	2301      	movs	r3, #1
 8000f6e:	200a      	movs	r0, #10
 8000f70:	9100      	str	r1, [sp, #0]
 8000f72:	2144      	movs	r1, #68	@ 0x44
 8000f74:	e9cd 3001 	strd	r3, r0, [sp, #4]
 8000f78:	4804      	ldr	r0, [pc, #16]	@ (8000f8c <TCA_ReadReg+0x24>)
 8000f7a:	f002 fa73 	bl	8003464 <HAL_I2C_Mem_Read>
 8000f7e:	fab0 f080 	clz	r0, r0
 8000f82:	0940      	lsrs	r0, r0, #5
 8000f84:	b005      	add	sp, #20
 8000f86:	f85d fb04 	ldr.w	pc, [sp], #4
 8000f8a:	bf00      	nop
 8000f8c:	20000850 	.word	0x20000850

08000f90 <sht_crc8.constprop.0>:
 8000f90:	7803      	ldrb	r3, [r0, #0]
 8000f92:	2108      	movs	r1, #8
 8000f94:	43db      	mvns	r3, r3
 8000f96:	b2db      	uxtb	r3, r3
 8000f98:	b25a      	sxtb	r2, r3
 8000f9a:	2a00      	cmp	r2, #0
 8000f9c:	da04      	bge.n	8000fa8 <sht_crc8.constprop.0+0x18>
 8000f9e:	0052      	lsls	r2, r2, #1
 8000fa0:	f082 0231 	eor.w	r2, r2, #49	@ 0x31
 8000fa4:	b2d3      	uxtb	r3, r2
 8000fa6:	e001      	b.n	8000fac <sht_crc8.constprop.0+0x1c>
 8000fa8:	005b      	lsls	r3, r3, #1
 8000faa:	b2db      	uxtb	r3, r3
 8000fac:	3901      	subs	r1, #1
 8000fae:	d1f3      	bne.n	8000f98 <sht_crc8.constprop.0+0x8>
 8000fb0:	7842      	ldrb	r2, [r0, #1]
 8000fb2:	ea83 0002 	eor.w	r0, r3, r2
 8000fb6:	2208      	movs	r2, #8
 8000fb8:	b243      	sxtb	r3, r0
 8000fba:	2b00      	cmp	r3, #0
 8000fbc:	da04      	bge.n	8000fc8 <sht_crc8.constprop.0+0x38>
 8000fbe:	005b      	lsls	r3, r3, #1
 8000fc0:	f083 0331 	eor.w	r3, r3, #49	@ 0x31
 8000fc4:	b2d8      	uxtb	r0, r3
 8000fc6:	e001      	b.n	8000fcc <sht_crc8.constprop.0+0x3c>
 8000fc8:	0040      	lsls	r0, r0, #1
 8000fca:	b2c0      	uxtb	r0, r0
 8000fcc:	3a01      	subs	r2, #1
 8000fce:	d1f3      	bne.n	8000fb8 <sht_crc8.constprop.0+0x28>
 8000fd0:	4770      	bx	lr

08000fd2 <I2C_Init>:
 8000fd2:	b508      	push	{r3, lr}
 8000fd4:	2100      	movs	r1, #0
 8000fd6:	2008      	movs	r0, #8
 8000fd8:	f7ff ffae 	bl	8000f38 <TCA_WriteReg>
 8000fdc:	2100      	movs	r1, #0
 8000fde:	2009      	movs	r0, #9
 8000fe0:	f7ff ffaa 	bl	8000f38 <TCA_WriteReg>
 8000fe4:	2100      	movs	r1, #0
 8000fe6:	200a      	movs	r0, #10
 8000fe8:	f7ff ffa6 	bl	8000f38 <TCA_WriteReg>
 8000fec:	2100      	movs	r1, #0
 8000fee:	2004      	movs	r0, #4
 8000ff0:	f7ff ffa2 	bl	8000f38 <TCA_WriteReg>
 8000ff4:	2100      	movs	r1, #0
 8000ff6:	2005      	movs	r0, #5
 8000ff8:	f7ff ff9e 	bl	8000f38 <TCA_WriteReg>
 8000ffc:	2100      	movs	r1, #0
 8000ffe:	2006      	movs	r0, #6
 8001000:	f7ff ff9a 	bl	8000f38 <TCA_WriteReg>
 8001004:	2100      	movs	r1, #0
 8001006:	200c      	movs	r0, #12
 8001008:	f7ff ff96 	bl	8000f38 <TCA_WriteReg>
 800100c:	2100      	movs	r1, #0
 800100e:	200d      	movs	r0, #13
 8001010:	f7ff ff92 	bl	8000f38 <TCA_WriteReg>
 8001014:	2100      	movs	r1, #0
 8001016:	200e      	movs	r0, #14
 8001018:	e8bd 4008 	ldmia.w	sp!, {r3, lr}
 800101c:	f7ff bf8c 	b.w	8000f38 <TCA_WriteReg>

08001020 <TCA_WriteOutputs>:
 8001020:	b538      	push	{r3, r4, r5, lr}
 8001022:	460d      	mov	r5, r1
 8001024:	4601      	mov	r1, r0
 8001026:	2004      	movs	r0, #4
 8001028:	4614      	mov	r4, r2
 800102a:	f7ff ff85 	bl	8000f38 <TCA_WriteReg>
 800102e:	b908      	cbnz	r0, 8001034 <TCA_WriteOutputs+0x14>
 8001030:	2000      	movs	r0, #0
 8001032:	bd38      	pop	{r3, r4, r5, pc}
 8001034:	4629      	mov	r1, r5
 8001036:	2005      	movs	r0, #5
 8001038:	f7ff ff7e 	bl	8000f38 <TCA_WriteReg>
 800103c:	2800      	cmp	r0, #0
 800103e:	d0f7      	beq.n	8001030 <TCA_WriteOutputs+0x10>
 8001040:	4621      	mov	r1, r4
 8001042:	2006      	movs	r0, #6
 8001044:	f7ff ff78 	bl	8000f38 <TCA_WriteReg>
 8001048:	3800      	subs	r0, #0
 800104a:	bf18      	it	ne
 800104c:	2001      	movne	r0, #1
 800104e:	e7f0      	b.n	8001032 <TCA_WriteOutputs+0x12>

08001050 <TCA_ReadOutputs>:
 8001050:	2300      	movs	r3, #0
 8001052:	b573      	push	{r0, r1, r4, r5, r6, lr}
 8001054:	4606      	mov	r6, r0
 8001056:	460d      	mov	r5, r1
 8001058:	2004      	movs	r0, #4
 800105a:	f10d 0105 	add.w	r1, sp, #5
 800105e:	4614      	mov	r4, r2
 8001060:	f88d 3005 	strb.w	r3, [sp, #5]
 8001064:	f88d 3006 	strb.w	r3, [sp, #6]
 8001068:	f88d 3007 	strb.w	r3, [sp, #7]
 800106c:	f7ff ff7c 	bl	8000f68 <TCA_ReadReg>
 8001070:	b910      	cbnz	r0, 8001078 <TCA_ReadOutputs+0x28>
 8001072:	2000      	movs	r0, #0
 8001074:	b002      	add	sp, #8
 8001076:	bd70      	pop	{r4, r5, r6, pc}
 8001078:	f10d 0106 	add.w	r1, sp, #6
 800107c:	2005      	movs	r0, #5
 800107e:	f7ff ff73 	bl	8000f68 <TCA_ReadReg>
 8001082:	2800      	cmp	r0, #0
 8001084:	d0f5      	beq.n	8001072 <TCA_ReadOutputs+0x22>
 8001086:	f10d 0107 	add.w	r1, sp, #7
 800108a:	2006      	movs	r0, #6
 800108c:	f7ff ff6c 	bl	8000f68 <TCA_ReadReg>
 8001090:	2800      	cmp	r0, #0
 8001092:	d0ee      	beq.n	8001072 <TCA_ReadOutputs+0x22>
 8001094:	b116      	cbz	r6, 800109c <TCA_ReadOutputs+0x4c>
 8001096:	f89d 3005 	ldrb.w	r3, [sp, #5]
 800109a:	7033      	strb	r3, [r6, #0]
 800109c:	b115      	cbz	r5, 80010a4 <TCA_ReadOutputs+0x54>
 800109e:	f89d 3006 	ldrb.w	r3, [sp, #6]
 80010a2:	702b      	strb	r3, [r5, #0]
 80010a4:	b90c      	cbnz	r4, 80010aa <TCA_ReadOutputs+0x5a>
 80010a6:	2001      	movs	r0, #1
 80010a8:	e7e4      	b.n	8001074 <TCA_ReadOutputs+0x24>
 80010aa:	f89d 3007 	ldrb.w	r3, [sp, #7]
 80010ae:	7023      	strb	r3, [r4, #0]
 80010b0:	e7f9      	b.n	80010a6 <TCA_ReadOutputs+0x56>

080010b2 <ApplyGainWrite>:
 80010b2:	1e43      	subs	r3, r0, #1
 80010b4:	2b03      	cmp	r3, #3
 80010b6:	b5f7      	push	{r0, r1, r2, r4, r5, r6, r7, lr}
 80010b8:	4606      	mov	r6, r0
 80010ba:	460f      	mov	r7, r1
 80010bc:	d856      	bhi.n	800116c <ApplyGainWrite+0xba>
 80010be:	2300      	movs	r3, #0
 80010c0:	f10d 0207 	add.w	r2, sp, #7
 80010c4:	f10d 0106 	add.w	r1, sp, #6
 80010c8:	f10d 0005 	add.w	r0, sp, #5
 80010cc:	f88d 3005 	strb.w	r3, [sp, #5]
 80010d0:	f88d 3006 	strb.w	r3, [sp, #6]
 80010d4:	f88d 3007 	strb.w	r3, [sp, #7]
 80010d8:	f7ff ffba 	bl	8001050 <TCA_ReadOutputs>
 80010dc:	2800      	cmp	r0, #0
 80010de:	d045      	beq.n	800116c <ApplyGainWrite+0xba>
 80010e0:	2e03      	cmp	r6, #3
 80010e2:	f007 0401 	and.w	r4, r7, #1
 80010e6:	f3c7 0540 	ubfx	r5, r7, #1, #1
 80010ea:	f3c7 0180 	ubfx	r1, r7, #2, #1
 80010ee:	f89d 2006 	ldrb.w	r2, [sp, #6]
 80010f2:	f89d 3005 	ldrb.w	r3, [sp, #5]
 80010f6:	d024      	beq.n	8001142 <ApplyGainWrite+0x90>
 80010f8:	2e04      	cmp	r6, #4
 80010fa:	d02d      	beq.n	8001158 <ApplyGainWrite+0xa6>
 80010fc:	2e02      	cmp	r6, #2
 80010fe:	d014      	beq.n	800112a <ApplyGainWrite+0x78>
 8001100:	f022 020e 	bic.w	r2, r2, #14
 8001104:	ea42 0244 	orr.w	r2, r2, r4, lsl #1
 8001108:	ea42 02c1 	orr.w	r2, r2, r1, lsl #3
 800110c:	ea42 0285 	orr.w	r2, r2, r5, lsl #2
 8001110:	f88d 2006 	strb.w	r2, [sp, #6]
 8001114:	f89d 2007 	ldrb.w	r2, [sp, #7]
 8001118:	f89d 1006 	ldrb.w	r1, [sp, #6]
 800111c:	f89d 0005 	ldrb.w	r0, [sp, #5]
 8001120:	b003      	add	sp, #12
 8001122:	e8bd 40f0 	ldmia.w	sp!, {r4, r5, r6, r7, lr}
 8001126:	f7ff bf7b 	b.w	8001020 <TCA_WriteOutputs>
 800112a:	f003 033f 	and.w	r3, r3, #63	@ 0x3f
 800112e:	f022 0201 	bic.w	r2, r2, #1
 8001132:	ea43 1384 	orr.w	r3, r3, r4, lsl #6
 8001136:	430a      	orrs	r2, r1
 8001138:	ea43 13c5 	orr.w	r3, r3, r5, lsl #7
 800113c:	f88d 3005 	strb.w	r3, [sp, #5]
 8001140:	e7e6      	b.n	8001110 <ApplyGainWrite+0x5e>
 8001142:	f023 0338 	bic.w	r3, r3, #56	@ 0x38
 8001146:	ea43 03c4 	orr.w	r3, r3, r4, lsl #3
 800114a:	ea43 1341 	orr.w	r3, r3, r1, lsl #5
 800114e:	ea43 1305 	orr.w	r3, r3, r5, lsl #4
 8001152:	f88d 3005 	strb.w	r3, [sp, #5]
 8001156:	e7dd      	b.n	8001114 <ApplyGainWrite+0x62>
 8001158:	f023 0307 	bic.w	r3, r3, #7
 800115c:	431c      	orrs	r4, r3
 800115e:	ea44 0481 	orr.w	r4, r4, r1, lsl #2
 8001162:	ea44 0445 	orr.w	r4, r4, r5, lsl #1
 8001166:	f88d 4005 	strb.w	r4, [sp, #5]
 800116a:	e7d3      	b.n	8001114 <ApplyGainWrite+0x62>
 800116c:	2000      	movs	r0, #0
 800116e:	b003      	add	sp, #12
 8001170:	bdf0      	pop	{r4, r5, r6, r7, pc}
	...

08001174 <SHT_Read>:
 8001174:	b530      	push	{r4, r5, lr}
 8001176:	23fd      	movs	r3, #253	@ 0xfd
 8001178:	b087      	sub	sp, #28
 800117a:	4605      	mov	r5, r0
 800117c:	460c      	mov	r4, r1
 800117e:	f88d 300f 	strb.w	r3, [sp, #15]
 8001182:	230a      	movs	r3, #10
 8001184:	f10d 020f 	add.w	r2, sp, #15
 8001188:	218a      	movs	r1, #138	@ 0x8a
 800118a:	9300      	str	r3, [sp, #0]
 800118c:	2301      	movs	r3, #1
 800118e:	482f      	ldr	r0, [pc, #188]	@ (800124c <SHT_Read+0xd8>)
 8001190:	f001 ff46 	bl	8003020 <HAL_I2C_Master_Transmit>
 8001194:	b110      	cbz	r0, 800119c <SHT_Read+0x28>
 8001196:	2000      	movs	r0, #0
 8001198:	b007      	add	sp, #28
 800119a:	bd30      	pop	{r4, r5, pc}
 800119c:	2014      	movs	r0, #20
 800119e:	f001 f933 	bl	8002408 <HAL_Delay>
 80011a2:	2314      	movs	r3, #20
 80011a4:	aa04      	add	r2, sp, #16
 80011a6:	218a      	movs	r1, #138	@ 0x8a
 80011a8:	9300      	str	r3, [sp, #0]
 80011aa:	2306      	movs	r3, #6
 80011ac:	4827      	ldr	r0, [pc, #156]	@ (800124c <SHT_Read+0xd8>)
 80011ae:	f001 ffe5 	bl	800317c <HAL_I2C_Master_Receive>
 80011b2:	2800      	cmp	r0, #0
 80011b4:	d1ef      	bne.n	8001196 <SHT_Read+0x22>
 80011b6:	a804      	add	r0, sp, #16
 80011b8:	f7ff feea 	bl	8000f90 <sht_crc8.constprop.0>
 80011bc:	f89d 3012 	ldrb.w	r3, [sp, #18]
 80011c0:	4283      	cmp	r3, r0
 80011c2:	d1e8      	bne.n	8001196 <SHT_Read+0x22>
 80011c4:	f10d 0013 	add.w	r0, sp, #19
 80011c8:	f7ff fee2 	bl	8000f90 <sht_crc8.constprop.0>
 80011cc:	f89d 3015 	ldrb.w	r3, [sp, #21]
 80011d0:	4283      	cmp	r3, r0
 80011d2:	d1e0      	bne.n	8001196 <SHT_Read+0x22>
 80011d4:	f8bd 3013 	ldrh.w	r3, [sp, #19]
 80011d8:	eddf 6a1d 	vldr	s13, [pc, #116]	@ 8001250 <SHT_Read+0xdc>
 80011dc:	ba5b      	rev16	r3, r3
 80011de:	ed9f 7a1d 	vldr	s14, [pc, #116]	@ 8001254 <SHT_Read+0xe0>
 80011e2:	b29b      	uxth	r3, r3
 80011e4:	ee07 3a90 	vmov	s15, r3
 80011e8:	eef8 7a67 	vcvt.f32.u32	s15, s15
 80011ec:	ee87 6aa6 	vdiv.f32	s12, s15, s13
 80011f0:	eef9 7a08 	vmov.f32	s15, #152	@ 0xc0c00000 -6.0
 80011f4:	eee6 7a07 	vfma.f32	s15, s12, s14
 80011f8:	eef5 7ac0 	vcmpe.f32	s15, #0.0
 80011fc:	eef1 fa10 	vmrs	APSR_nzcv, fpscr
 8001200:	d41d      	bmi.n	800123e <SHT_Read+0xca>
 8001202:	ed9f 7a15 	vldr	s14, [pc, #84]	@ 8001258 <SHT_Read+0xe4>
 8001206:	eef4 7a47 	vcmp.f32	s15, s14
 800120a:	eef1 fa10 	vmrs	APSR_nzcv, fpscr
 800120e:	fe77 7a27 	vselgt.f32	s15, s14, s15
 8001212:	b18d      	cbz	r5, 8001238 <SHT_Read+0xc4>
 8001214:	f8bd 3010 	ldrh.w	r3, [sp, #16]
 8001218:	ba5b      	rev16	r3, r3
 800121a:	b29b      	uxth	r3, r3
 800121c:	ee07 3a10 	vmov	s14, r3
 8001220:	eeb8 7a47 	vcvt.f32.u32	s14, s14
 8001224:	ee87 6a26 	vdiv.f32	s12, s14, s13
 8001228:	eddf 6a0c 	vldr	s13, [pc, #48]	@ 800125c <SHT_Read+0xe8>
 800122c:	ed9f 7a0c 	vldr	s14, [pc, #48]	@ 8001260 <SHT_Read+0xec>
 8001230:	eea6 7a26 	vfma.f32	s14, s12, s13
 8001234:	ed85 7a00 	vstr	s14, [r5]
 8001238:	b924      	cbnz	r4, 8001244 <SHT_Read+0xd0>
 800123a:	2001      	movs	r0, #1
 800123c:	e7ac      	b.n	8001198 <SHT_Read+0x24>
 800123e:	eddf 7a09 	vldr	s15, [pc, #36]	@ 8001264 <SHT_Read+0xf0>
 8001242:	e7e6      	b.n	8001212 <SHT_Read+0x9e>
 8001244:	edc4 7a00 	vstr	s15, [r4]
 8001248:	e7f7      	b.n	800123a <SHT_Read+0xc6>
 800124a:	bf00      	nop
 800124c:	20000850 	.word	0x20000850
 8001250:	477fff00 	.word	0x477fff00
 8001254:	42fa0000 	.word	0x42fa0000
 8001258:	42c80000 	.word	0x42c80000
 800125c:	432f0000 	.word	0x432f0000
 8001260:	c2340000 	.word	0xc2340000
 8001264:	00000000 	.word	0x00000000

08001268 <I2C_RequestRefresh>:
 8001268:	4b01      	ldr	r3, [pc, #4]	@ (8001270 <I2C_RequestRefresh+0x8>)
 800126a:	2201      	movs	r2, #1
 800126c:	701a      	strb	r2, [r3, #0]
 800126e:	4770      	bx	lr
 8001270:	200001e4 	.word	0x200001e4

08001274 <I2C_Refresh>:
 8001274:	b530      	push	{r4, r5, lr}
 8001276:	4b25      	ldr	r3, [pc, #148]	@ (800130c <I2C_Refresh+0x98>)
 8001278:	2500      	movs	r5, #0
 800127a:	4c25      	ldr	r4, [pc, #148]	@ (8001310 <I2C_Refresh+0x9c>)
 800127c:	b085      	sub	sp, #20
 800127e:	701d      	strb	r5, [r3, #0]
 8001280:	7923      	ldrb	r3, [r4, #4]
 8001282:	b123      	cbz	r3, 800128e <I2C_Refresh+0x1a>
 8001284:	79a1      	ldrb	r1, [r4, #6]
 8001286:	7960      	ldrb	r0, [r4, #5]
 8001288:	f7ff ff13 	bl	80010b2 <ApplyGainWrite>
 800128c:	7125      	strb	r5, [r4, #4]
 800128e:	2300      	movs	r3, #0
 8001290:	f10d 0207 	add.w	r2, sp, #7
 8001294:	f10d 0106 	add.w	r1, sp, #6
 8001298:	f10d 0005 	add.w	r0, sp, #5
 800129c:	f88d 3005 	strb.w	r3, [sp, #5]
 80012a0:	f88d 3006 	strb.w	r3, [sp, #6]
 80012a4:	f88d 3007 	strb.w	r3, [sp, #7]
 80012a8:	f7ff fed2 	bl	8001050 <TCA_ReadOutputs>
 80012ac:	b310      	cbz	r0, 80012f4 <I2C_Refresh+0x80>
 80012ae:	f89d 3006 	ldrb.w	r3, [sp, #6]
 80012b2:	085a      	lsrs	r2, r3, #1
 80012b4:	0859      	lsrs	r1, r3, #1
 80012b6:	f002 0202 	and.w	r2, r2, #2
 80012ba:	f001 0104 	and.w	r1, r1, #4
 80012be:	430a      	orrs	r2, r1
 80012c0:	f3c3 0140 	ubfx	r1, r3, #1, #1
 80012c4:	009b      	lsls	r3, r3, #2
 80012c6:	430a      	orrs	r2, r1
 80012c8:	f003 0304 	and.w	r3, r3, #4
 80012cc:	7022      	strb	r2, [r4, #0]
 80012ce:	f89d 2005 	ldrb.w	r2, [sp, #5]
 80012d2:	ea43 1392 	orr.w	r3, r3, r2, lsr #6
 80012d6:	08d1      	lsrs	r1, r2, #3
 80012d8:	7063      	strb	r3, [r4, #1]
 80012da:	08d3      	lsrs	r3, r2, #3
 80012dc:	f001 0104 	and.w	r1, r1, #4
 80012e0:	f003 0302 	and.w	r3, r3, #2
 80012e4:	430b      	orrs	r3, r1
 80012e6:	f3c2 01c0 	ubfx	r1, r2, #3, #1
 80012ea:	f002 0207 	and.w	r2, r2, #7
 80012ee:	430b      	orrs	r3, r1
 80012f0:	70e2      	strb	r2, [r4, #3]
 80012f2:	70a3      	strb	r3, [r4, #2]
 80012f4:	a903      	add	r1, sp, #12
 80012f6:	a802      	add	r0, sp, #8
 80012f8:	f7ff ff3c 	bl	8001174 <SHT_Read>
 80012fc:	b120      	cbz	r0, 8001308 <I2C_Refresh+0x94>
 80012fe:	4b05      	ldr	r3, [pc, #20]	@ (8001314 <I2C_Refresh+0xa0>)
 8001300:	9a02      	ldr	r2, [sp, #8]
 8001302:	601a      	str	r2, [r3, #0]
 8001304:	9a03      	ldr	r2, [sp, #12]
 8001306:	605a      	str	r2, [r3, #4]
 8001308:	b005      	add	sp, #20
 800130a:	bd30      	pop	{r4, r5, pc}
 800130c:	200001e4 	.word	0x200001e4
 8001310:	200001e5 	.word	0x200001e5
 8001314:	200001ec 	.word	0x200001ec

08001318 <_setCCR01.constprop.0>:
 8001318:	eeb5 0ac0 	vcmpe.f32	s0, #0.0
 800131c:	eef1 fa10 	vmrs	APSR_nzcv, fpscr
 8001320:	d41b      	bmi.n	800135a <_setCCR01.constprop.0+0x42>
 8001322:	eef7 7a00 	vmov.f32	s15, #112	@ 0x3f800000  1.0
 8001326:	eeb4 0a67 	vcmp.f32	s0, s15
 800132a:	eef1 fa10 	vmrs	APSR_nzcv, fpscr
 800132e:	fe37 0a80 	vselgt.f32	s0, s15, s0
 8001332:	6802      	ldr	r2, [r0, #0]
 8001334:	eef6 7a00 	vmov.f32	s15, #96	@ 0x3f000000  0.5
 8001338:	6ad1      	ldr	r1, [r2, #44]	@ 0x2c
 800133a:	1c4b      	adds	r3, r1, #1
 800133c:	ee07 3a10 	vmov	s14, r3
 8001340:	eeb8 7a47 	vcvt.f32.u32	s14, s14
 8001344:	eee7 7a00 	vfma.f32	s15, s14, s0
 8001348:	eefc 7ae7 	vcvt.u32.f32	s15, s15
 800134c:	ee17 3a90 	vmov	r3, s15
 8001350:	428b      	cmp	r3, r1
 8001352:	bf28      	it	cs
 8001354:	460b      	movcs	r3, r1
 8001356:	6353      	str	r3, [r2, #52]	@ 0x34
 8001358:	4770      	bx	lr
 800135a:	ed9f 0a01 	vldr	s0, [pc, #4]	@ 8001360 <_setCCR01.constprop.0+0x48>
 800135e:	e7e8      	b.n	8001332 <_setCCR01.constprop.0+0x1a>
 8001360:	00000000 	.word	0x00000000

08001364 <LED_Init>:
 8001364:	b538      	push	{r3, r4, r5, lr}
 8001366:	4d0a      	ldr	r5, [pc, #40]	@ (8001390 <LED_Init+0x2c>)
 8001368:	2200      	movs	r2, #0
 800136a:	2120      	movs	r1, #32
 800136c:	4809      	ldr	r0, [pc, #36]	@ (8001394 <LED_Init+0x30>)
 800136e:	4c0a      	ldr	r4, [pc, #40]	@ (8001398 <LED_Init+0x34>)
 8001370:	f001 fc74 	bl	8002c5c <HAL_GPIO_WritePin>
 8001374:	2100      	movs	r1, #0
 8001376:	4628      	mov	r0, r5
 8001378:	f004 fa62 	bl	8005840 <HAL_TIM_PWM_Start>
 800137c:	2100      	movs	r1, #0
 800137e:	4620      	mov	r0, r4
 8001380:	f004 fa5e 	bl	8005840 <HAL_TIM_PWM_Start>
 8001384:	682a      	ldr	r2, [r5, #0]
 8001386:	2300      	movs	r3, #0
 8001388:	6353      	str	r3, [r2, #52]	@ 0x34
 800138a:	6822      	ldr	r2, [r4, #0]
 800138c:	6353      	str	r3, [r2, #52]	@ 0x34
 800138e:	bd38      	pop	{r3, r4, r5, pc}
 8001390:	20000754 	.word	0x20000754
 8001394:	40020000 	.word	0x40020000
 8001398:	20000708 	.word	0x20000708

0800139c <LED2_On>:
 800139c:	4b02      	ldr	r3, [pc, #8]	@ (80013a8 <LED2_On+0xc>)
 800139e:	681b      	ldr	r3, [r3, #0]
 80013a0:	6ada      	ldr	r2, [r3, #44]	@ 0x2c
 80013a2:	635a      	str	r2, [r3, #52]	@ 0x34
 80013a4:	4770      	bx	lr
 80013a6:	bf00      	nop
 80013a8:	20000754 	.word	0x20000754

080013ac <LED2_Off>:
 80013ac:	4b02      	ldr	r3, [pc, #8]	@ (80013b8 <LED2_Off+0xc>)
 80013ae:	2200      	movs	r2, #0
 80013b0:	681b      	ldr	r3, [r3, #0]
 80013b2:	635a      	str	r2, [r3, #52]	@ 0x34
 80013b4:	4770      	bx	lr
 80013b6:	bf00      	nop
 80013b8:	20000754 	.word	0x20000754

080013bc <LED2_SetDuty01>:
 80013bc:	4801      	ldr	r0, [pc, #4]	@ (80013c4 <LED2_SetDuty01+0x8>)
 80013be:	f7ff bfab 	b.w	8001318 <_setCCR01.constprop.0>
 80013c2:	bf00      	nop
 80013c4:	20000754 	.word	0x20000754

080013c8 <LED3_On>:
 80013c8:	4b02      	ldr	r3, [pc, #8]	@ (80013d4 <LED3_On+0xc>)
 80013ca:	681b      	ldr	r3, [r3, #0]
 80013cc:	6ada      	ldr	r2, [r3, #44]	@ 0x2c
 80013ce:	635a      	str	r2, [r3, #52]	@ 0x34
 80013d0:	4770      	bx	lr
 80013d2:	bf00      	nop
 80013d4:	20000708 	.word	0x20000708

080013d8 <LED3_Off>:
 80013d8:	4b02      	ldr	r3, [pc, #8]	@ (80013e4 <LED3_Off+0xc>)
 80013da:	2200      	movs	r2, #0
 80013dc:	681b      	ldr	r3, [r3, #0]
 80013de:	635a      	str	r2, [r3, #52]	@ 0x34
 80013e0:	4770      	bx	lr
 80013e2:	bf00      	nop
 80013e4:	20000708 	.word	0x20000708

080013e8 <LED3_SetDuty01>:
 80013e8:	4801      	ldr	r0, [pc, #4]	@ (80013f0 <LED3_SetDuty01+0x8>)
 80013ea:	f7ff bf95 	b.w	8001318 <_setCCR01.constprop.0>
 80013ee:	bf00      	nop
 80013f0:	20000708 	.word	0x20000708

080013f4 <LED_BreatheBoth>:
 80013f4:	2964      	cmp	r1, #100	@ 0x64
 80013f6:	b5f8      	push	{r3, r4, r5, r6, r7, lr}
 80013f8:	bf38      	it	cc
 80013fa:	2164      	movcc	r1, #100	@ 0x64
 80013fc:	23c8      	movs	r3, #200	@ 0xc8
 80013fe:	4606      	mov	r6, r0
 8001400:	2700      	movs	r7, #0
 8001402:	fbb1 f4f3 	udiv	r4, r1, r3
 8001406:	ed2d 8b02 	vpush	{d8}
 800140a:	ed9f 8a1d 	vldr	s16, [pc, #116]	@ 8001480 <LED_BreatheBoth+0x8c>
 800140e:	42b7      	cmp	r7, r6
 8001410:	d107      	bne.n	8001422 <LED_BreatheBoth+0x2e>
 8001412:	f7ff ffcb 	bl	80013ac <LED2_Off>
 8001416:	ecbd 8b02 	vpop	{d8}
 800141a:	e8bd 40f8 	ldmia.w	sp!, {r3, r4, r5, r6, r7, lr}
 800141e:	f7ff bfdb 	b.w	80013d8 <LED3_Off>
 8001422:	2500      	movs	r5, #0
 8001424:	b2ab      	uxth	r3, r5
 8001426:	3501      	adds	r5, #1
 8001428:	ee07 3a90 	vmov	s15, r3
 800142c:	eef8 7a67 	vcvt.f32.u32	s15, s15
 8001430:	eec7 6a88 	vdiv.f32	s13, s15, s16
 8001434:	eeb0 0a66 	vmov.f32	s0, s13
 8001438:	f7ff ffc0 	bl	80013bc <LED2_SetDuty01>
 800143c:	eeb0 0a66 	vmov.f32	s0, s13
 8001440:	f7ff ffd2 	bl	80013e8 <LED3_SetDuty01>
 8001444:	4620      	mov	r0, r4
 8001446:	f000 ffdf 	bl	8002408 <HAL_Delay>
 800144a:	2d65      	cmp	r5, #101	@ 0x65
 800144c:	d1ea      	bne.n	8001424 <LED_BreatheBoth+0x30>
 800144e:	2564      	movs	r5, #100	@ 0x64
 8001450:	ee07 5a90 	vmov	s15, r5
 8001454:	3d01      	subs	r5, #1
 8001456:	eef8 7a67 	vcvt.f32.u32	s15, s15
 800145a:	b2ad      	uxth	r5, r5
 800145c:	eec7 6a88 	vdiv.f32	s13, s15, s16
 8001460:	eeb0 0a66 	vmov.f32	s0, s13
 8001464:	f7ff ffaa 	bl	80013bc <LED2_SetDuty01>
 8001468:	eeb0 0a66 	vmov.f32	s0, s13
 800146c:	f7ff ffbc 	bl	80013e8 <LED3_SetDuty01>
 8001470:	4620      	mov	r0, r4
 8001472:	f000 ffc9 	bl	8002408 <HAL_Delay>
 8001476:	2d00      	cmp	r5, #0
 8001478:	d1ea      	bne.n	8001450 <LED_BreatheBoth+0x5c>
 800147a:	3701      	adds	r7, #1
 800147c:	e7c7      	b.n	800140e <LED_BreatheBoth+0x1a>
 800147e:	bf00      	nop
 8001480:	42c80000 	.word	0x42c80000

08001484 <LED2_BlinkStop>:
 8001484:	f7ff bf92 	b.w	80013ac <LED2_Off>

08001488 <JumpToBootloader>:
 8001488:	b510      	push	{r4, lr}
 800148a:	4b2e      	ldr	r3, [pc, #184]	@ (8001544 <JumpToBootloader+0xbc>)
 800148c:	b0a2      	sub	sp, #136	@ 0x88
 800148e:	492e      	ldr	r1, [pc, #184]	@ (8001548 <JumpToBootloader+0xc0>)
 8001490:	4a2e      	ldr	r2, [pc, #184]	@ (800154c <JumpToBootloader+0xc4>)
 8001492:	9301      	str	r3, [sp, #4]
 8001494:	9102      	str	r1, [sp, #8]
 8001496:	9203      	str	r2, [sp, #12]
 8001498:	9104      	str	r1, [sp, #16]
 800149a:	9105      	str	r1, [sp, #20]
 800149c:	f5a1 5110 	sub.w	r1, r1, #9216	@ 0x2400
 80014a0:	9106      	str	r1, [sp, #24]
 80014a2:	f501 5120 	add.w	r1, r1, #10240	@ 0x2800
 80014a6:	9207      	str	r2, [sp, #28]
 80014a8:	9108      	str	r1, [sp, #32]
 80014aa:	f5a1 4180 	sub.w	r1, r1, #16384	@ 0x4000
 80014ae:	9109      	str	r1, [sp, #36]	@ 0x24
 80014b0:	910a      	str	r1, [sp, #40]	@ 0x28
 80014b2:	f501 5140 	add.w	r1, r1, #12288	@ 0x3000
 80014b6:	910b      	str	r1, [sp, #44]	@ 0x2c
 80014b8:	930c      	str	r3, [sp, #48]	@ 0x30
 80014ba:	4925      	ldr	r1, [pc, #148]	@ (8001550 <JumpToBootloader+0xc8>)
 80014bc:	920d      	str	r2, [sp, #52]	@ 0x34
 80014be:	4a25      	ldr	r2, [pc, #148]	@ (8001554 <JumpToBootloader+0xcc>)
 80014c0:	930e      	str	r3, [sp, #56]	@ 0x38
 80014c2:	920f      	str	r2, [sp, #60]	@ 0x3c
 80014c4:	9310      	str	r3, [sp, #64]	@ 0x40
 80014c6:	9311      	str	r3, [sp, #68]	@ 0x44
 80014c8:	9112      	str	r1, [sp, #72]	@ 0x48
 80014ca:	f501 3180 	add.w	r1, r1, #65536	@ 0x10000
 80014ce:	9113      	str	r1, [sp, #76]	@ 0x4c
 80014d0:	9114      	str	r1, [sp, #80]	@ 0x50
 80014d2:	4921      	ldr	r1, [pc, #132]	@ (8001558 <JumpToBootloader+0xd0>)
 80014d4:	9115      	str	r1, [sp, #84]	@ 0x54
 80014d6:	f501 5180 	add.w	r1, r1, #4096	@ 0x1000
 80014da:	9116      	str	r1, [sp, #88]	@ 0x58
 80014dc:	f5a1 6100 	sub.w	r1, r1, #2048	@ 0x800
 80014e0:	9117      	str	r1, [sp, #92]	@ 0x5c
 80014e2:	9218      	str	r2, [sp, #96]	@ 0x60
 80014e4:	491d      	ldr	r1, [pc, #116]	@ (800155c <JumpToBootloader+0xd4>)
 80014e6:	9219      	str	r2, [sp, #100]	@ 0x64
 80014e8:	4a1d      	ldr	r2, [pc, #116]	@ (8001560 <JumpToBootloader+0xd8>)
 80014ea:	931a      	str	r3, [sp, #104]	@ 0x68
 80014ec:	921b      	str	r2, [sp, #108]	@ 0x6c
 80014ee:	911c      	str	r1, [sp, #112]	@ 0x70
 80014f0:	931d      	str	r3, [sp, #116]	@ 0x74
 80014f2:	931e      	str	r3, [sp, #120]	@ 0x78
 80014f4:	921f      	str	r2, [sp, #124]	@ 0x7c
 80014f6:	b672      	cpsid	i
 80014f8:	f04f 24e0 	mov.w	r4, #3758153728	@ 0xe000e000
 80014fc:	2300      	movs	r3, #0
 80014fe:	6123      	str	r3, [r4, #16]
 8001500:	f002 fe88 	bl	8004214 <HAL_RCC_DeInit>
 8001504:	f04f 33ff 	mov.w	r3, #4294967295	@ 0xffffffff
 8001508:	4a16      	ldr	r2, [pc, #88]	@ (8001564 <JumpToBootloader+0xdc>)
 800150a:	f8c2 3080 	str.w	r3, [r2, #128]	@ 0x80
 800150e:	f8c2 3180 	str.w	r3, [r2, #384]	@ 0x180
 8001512:	f8c4 3184 	str.w	r3, [r4, #388]	@ 0x184
 8001516:	f8c4 3284 	str.w	r3, [r4, #644]	@ 0x284
 800151a:	f8c4 3188 	str.w	r3, [r4, #392]	@ 0x188
 800151e:	f8c4 3288 	str.w	r3, [r4, #648]	@ 0x288
 8001522:	f8c4 318c 	str.w	r3, [r4, #396]	@ 0x18c
 8001526:	f8c4 328c 	str.w	r3, [r4, #652]	@ 0x28c
 800152a:	f8c4 3190 	str.w	r3, [r4, #400]	@ 0x190
 800152e:	f8c4 3290 	str.w	r3, [r4, #656]	@ 0x290
 8001532:	b662      	cpsie	i
 8001534:	9b0f      	ldr	r3, [sp, #60]	@ 0x3c
 8001536:	9a0f      	ldr	r2, [sp, #60]	@ 0x3c
 8001538:	6812      	ldr	r2, [r2, #0]
 800153a:	f382 8808 	msr	MSP, r2
 800153e:	685b      	ldr	r3, [r3, #4]
 8001540:	4798      	blx	r3
 8001542:	e7fe      	b.n	8001542 <JumpToBootloader+0xba>
 8001544:	1fff0000 	.word	0x1fff0000
 8001548:	1fffec00 	.word	0x1fffec00
 800154c:	1fffd800 	.word	0x1fffd800
 8001550:	0bf87000 	.word	0x0bf87000
 8001554:	1ff00000 	.word	0x1ff00000
 8001558:	1ff09800 	.word	0x1ff09800
 800155c:	0bf88000 	.word	0x0bf88000
 8001560:	0bf90000 	.word	0x0bf90000
 8001564:	e000e100 	.word	0xe000e100

08001568 <SystemClock_Config>:
 8001568:	b510      	push	{r4, lr}
 800156a:	b094      	sub	sp, #80	@ 0x50
 800156c:	2210      	movs	r2, #16
 800156e:	2100      	movs	r1, #0
 8001570:	2402      	movs	r4, #2
 8001572:	a80a      	add	r0, sp, #40	@ 0x28
 8001574:	f007 f850 	bl	8008618 <memset>
 8001578:	2214      	movs	r2, #20
 800157a:	2100      	movs	r1, #0
 800157c:	a803      	add	r0, sp, #12
 800157e:	f007 f84b 	bl	8008618 <memset>
 8001582:	4b21      	ldr	r3, [pc, #132]	@ (8001608 <SystemClock_Config+0xa0>)
 8001584:	2101      	movs	r1, #1
 8001586:	2019      	movs	r0, #25
 8001588:	6c1a      	ldr	r2, [r3, #64]	@ 0x40
 800158a:	f042 5280 	orr.w	r2, r2, #268435456	@ 0x10000000
 800158e:	641a      	str	r2, [r3, #64]	@ 0x40
 8001590:	6c1b      	ldr	r3, [r3, #64]	@ 0x40
 8001592:	f003 5380 	and.w	r3, r3, #268435456	@ 0x10000000
 8001596:	9301      	str	r3, [sp, #4]
 8001598:	9b01      	ldr	r3, [sp, #4]
 800159a:	4b1c      	ldr	r3, [pc, #112]	@ (800160c <SystemClock_Config+0xa4>)
 800159c:	681a      	ldr	r2, [r3, #0]
 800159e:	f442 4240 	orr.w	r2, r2, #49152	@ 0xc000
 80015a2:	601a      	str	r2, [r3, #0]
 80015a4:	681b      	ldr	r3, [r3, #0]
 80015a6:	9412      	str	r4, [sp, #72]	@ 0x48
 80015a8:	f403 4340 	and.w	r3, r3, #49152	@ 0xc000
 80015ac:	9302      	str	r3, [sp, #8]
 80015ae:	9b02      	ldr	r3, [sp, #8]
 80015b0:	f44f 3380 	mov.w	r3, #65536	@ 0x10000
 80015b4:	e9cd 1308 	strd	r1, r3, [sp, #32]
 80015b8:	f44f 0380 	mov.w	r3, #4194304	@ 0x400000
 80015bc:	e9cd 430e 	strd	r4, r3, [sp, #56]	@ 0x38
 80015c0:	f44f 73d8 	mov.w	r3, #432	@ 0x1b0
 80015c4:	e9cd 0310 	strd	r0, r3, [sp, #64]	@ 0x40
 80015c8:	2309      	movs	r3, #9
 80015ca:	a808      	add	r0, sp, #32
 80015cc:	9313      	str	r3, [sp, #76]	@ 0x4c
 80015ce:	f002 febb 	bl	8004348 <HAL_RCC_OscConfig>
 80015d2:	b108      	cbz	r0, 80015d8 <SystemClock_Config+0x70>
 80015d4:	b672      	cpsid	i
 80015d6:	e7fe      	b.n	80015d6 <SystemClock_Config+0x6e>
 80015d8:	f002 fde4 	bl	80041a4 <HAL_PWREx_EnableOverDrive>
 80015dc:	b108      	cbz	r0, 80015e2 <SystemClock_Config+0x7a>
 80015de:	b672      	cpsid	i
 80015e0:	e7fe      	b.n	80015e0 <SystemClock_Config+0x78>
 80015e2:	230f      	movs	r3, #15
 80015e4:	f44f 52a0 	mov.w	r2, #5120	@ 0x1400
 80015e8:	9005      	str	r0, [sp, #20]
 80015ea:	2107      	movs	r1, #7
 80015ec:	a803      	add	r0, sp, #12
 80015ee:	e9cd 3403 	strd	r3, r4, [sp, #12]
 80015f2:	f44f 5380 	mov.w	r3, #4096	@ 0x1000
 80015f6:	e9cd 2306 	strd	r2, r3, [sp, #24]
 80015fa:	f003 f88d 	bl	8004718 <HAL_RCC_ClockConfig>
 80015fe:	b108      	cbz	r0, 8001604 <SystemClock_Config+0x9c>
 8001600:	b672      	cpsid	i
 8001602:	e7fe      	b.n	8001602 <SystemClock_Config+0x9a>
 8001604:	b014      	add	sp, #80	@ 0x50
 8001606:	bd10      	pop	{r4, pc}
 8001608:	40023800 	.word	0x40023800
 800160c:	40007000 	.word	0x40007000

08001610 <Custom_MPU_Config>:
 8001610:	b51f      	push	{r0, r1, r2, r3, r4, lr}
 8001612:	2100      	movs	r1, #0
 8001614:	2210      	movs	r2, #16
 8001616:	4668      	mov	r0, sp
 8001618:	f006 fffe 	bl	8008618 <memset>
 800161c:	f001 f9aa 	bl	8002974 <HAL_MPU_Disable>
 8001620:	2301      	movs	r3, #1
 8001622:	f04f 4240 	mov.w	r2, #3221225472	@ 0xc0000000
 8001626:	4668      	mov	r0, sp
 8001628:	f88d 3000 	strb.w	r3, [sp]
 800162c:	4b06      	ldr	r3, [pc, #24]	@ (8001648 <Custom_MPU_Config+0x38>)
 800162e:	e9cd 2301 	strd	r2, r3, [sp, #4]
 8001632:	4b06      	ldr	r3, [pc, #24]	@ (800164c <Custom_MPU_Config+0x3c>)
 8001634:	9303      	str	r3, [sp, #12]
 8001636:	f001 f9bb 	bl	80029b0 <HAL_MPU_ConfigRegion>
 800163a:	2004      	movs	r0, #4
 800163c:	f001 f9a8 	bl	8002990 <HAL_MPU_Enable>
 8001640:	b005      	add	sp, #20
 8001642:	f85d fb04 	ldr.w	pc, [sp], #4
 8001646:	bf00      	nop
 8001648:	03010018 	.word	0x03010018
 800164c:	01010001 	.word	0x01010001

08001650 <main>:
 8001650:	e92d 47f0 	stmdb	sp!, {r4, r5, r6, r7, r8, r9, sl, lr}
 8001654:	b09a      	sub	sp, #104	@ 0x68
 8001656:	f7ff ffdb 	bl	8001610 <Custom_MPU_Config>
 800165a:	f000 feb7 	bl	80023cc <HAL_Init>
 800165e:	f3bf 8f4f 	dsb	sy
 8001662:	f3bf 8f6f 	isb	sy
 8001666:	4ab0      	ldr	r2, [pc, #704]	@ (8001928 <main+0x2d8>)
 8001668:	2100      	movs	r1, #0
 800166a:	f8c2 1250 	str.w	r1, [r2, #592]	@ 0x250
 800166e:	f3bf 8f4f 	dsb	sy
 8001672:	f3bf 8f6f 	isb	sy
 8001676:	6953      	ldr	r3, [r2, #20]
 8001678:	f443 3300 	orr.w	r3, r3, #131072	@ 0x20000
 800167c:	6153      	str	r3, [r2, #20]
 800167e:	f3bf 8f4f 	dsb	sy
 8001682:	f3bf 8f6f 	isb	sy
 8001686:	f8c2 1084 	str.w	r1, [r2, #132]	@ 0x84
 800168a:	f3bf 8f4f 	dsb	sy
 800168e:	f8d2 3080 	ldr.w	r3, [r2, #128]	@ 0x80
 8001692:	f643 74e0 	movw	r4, #16352	@ 0x3fe0
 8001696:	f3c3 00c9 	ubfx	r0, r3, #3, #10
 800169a:	f3c3 334e 	ubfx	r3, r3, #13, #15
 800169e:	015b      	lsls	r3, r3, #5
 80016a0:	ea03 0604 	and.w	r6, r3, r4
 80016a4:	4601      	mov	r1, r0
 80016a6:	ea46 7581 	orr.w	r5, r6, r1, lsl #30
 80016aa:	3901      	subs	r1, #1
 80016ac:	f8c2 5260 	str.w	r5, [r2, #608]	@ 0x260
 80016b0:	d2f9      	bcs.n	80016a6 <main+0x56>
 80016b2:	3b20      	subs	r3, #32
 80016b4:	f113 0f20 	cmn.w	r3, #32
 80016b8:	d1f2      	bne.n	80016a0 <main+0x50>
 80016ba:	f3bf 8f4f 	dsb	sy
 80016be:	6953      	ldr	r3, [r2, #20]
 80016c0:	f443 3380 	orr.w	r3, r3, #65536	@ 0x10000
 80016c4:	6153      	str	r3, [r2, #20]
 80016c6:	f3bf 8f4f 	dsb	sy
 80016ca:	f3bf 8f6f 	isb	sy
 80016ce:	f7ff ff4b 	bl	8001568 <SystemClock_Config>
 80016d2:	4b96      	ldr	r3, [pc, #600]	@ (800192c <main+0x2dc>)
 80016d4:	4a96      	ldr	r2, [pc, #600]	@ (8001930 <main+0x2e0>)
 80016d6:	6819      	ldr	r1, [r3, #0]
 80016d8:	4291      	cmp	r1, r2
 80016da:	d107      	bne.n	80016ec <main+0x9c>
 80016dc:	2200      	movs	r2, #0
 80016de:	601a      	str	r2, [r3, #0]
 80016e0:	f3bf 8f4f 	dsb	sy
 80016e4:	f3bf 8f6f 	isb	sy
 80016e8:	f7ff fece 	bl	8001488 <JumpToBootloader>
 80016ec:	2214      	movs	r2, #20
 80016ee:	2100      	movs	r1, #0
 80016f0:	a813      	add	r0, sp, #76	@ 0x4c
 80016f2:	2400      	movs	r4, #0
 80016f4:	f006 ff90 	bl	8008618 <memset>
 80016f8:	4b8e      	ldr	r3, [pc, #568]	@ (8001934 <main+0x2e4>)
 80016fa:	2120      	movs	r1, #32
 80016fc:	488e      	ldr	r0, [pc, #568]	@ (8001938 <main+0x2e8>)
 80016fe:	6b1a      	ldr	r2, [r3, #48]	@ 0x30
 8001700:	2501      	movs	r5, #1
 8001702:	4f8e      	ldr	r7, [pc, #568]	@ (800193c <main+0x2ec>)
 8001704:	f042 0220 	orr.w	r2, r2, #32
 8001708:	631a      	str	r2, [r3, #48]	@ 0x30
 800170a:	6b1a      	ldr	r2, [r3, #48]	@ 0x30
 800170c:	f002 0220 	and.w	r2, r2, #32
 8001710:	9200      	str	r2, [sp, #0]
 8001712:	9a00      	ldr	r2, [sp, #0]
 8001714:	6b1a      	ldr	r2, [r3, #48]	@ 0x30
 8001716:	f042 0280 	orr.w	r2, r2, #128	@ 0x80
 800171a:	631a      	str	r2, [r3, #48]	@ 0x30
 800171c:	6b1a      	ldr	r2, [r3, #48]	@ 0x30
 800171e:	f002 0280 	and.w	r2, r2, #128	@ 0x80
 8001722:	9201      	str	r2, [sp, #4]
 8001724:	9a01      	ldr	r2, [sp, #4]
 8001726:	6b1a      	ldr	r2, [r3, #48]	@ 0x30
 8001728:	f042 0204 	orr.w	r2, r2, #4
 800172c:	631a      	str	r2, [r3, #48]	@ 0x30
 800172e:	6b1a      	ldr	r2, [r3, #48]	@ 0x30
 8001730:	f002 0204 	and.w	r2, r2, #4
 8001734:	9202      	str	r2, [sp, #8]
 8001736:	9a02      	ldr	r2, [sp, #8]
 8001738:	6b1a      	ldr	r2, [r3, #48]	@ 0x30
 800173a:	f042 0201 	orr.w	r2, r2, #1
 800173e:	631a      	str	r2, [r3, #48]	@ 0x30
 8001740:	6b1a      	ldr	r2, [r3, #48]	@ 0x30
 8001742:	f002 0201 	and.w	r2, r2, #1
 8001746:	9203      	str	r2, [sp, #12]
 8001748:	9a03      	ldr	r2, [sp, #12]
 800174a:	6b1a      	ldr	r2, [r3, #48]	@ 0x30
 800174c:	f042 0202 	orr.w	r2, r2, #2
 8001750:	631a      	str	r2, [r3, #48]	@ 0x30
 8001752:	6b1a      	ldr	r2, [r3, #48]	@ 0x30
 8001754:	f002 0202 	and.w	r2, r2, #2
 8001758:	9204      	str	r2, [sp, #16]
 800175a:	9a04      	ldr	r2, [sp, #16]
 800175c:	6b1a      	ldr	r2, [r3, #48]	@ 0x30
 800175e:	f042 0240 	orr.w	r2, r2, #64	@ 0x40
 8001762:	631a      	str	r2, [r3, #48]	@ 0x30
 8001764:	6b1a      	ldr	r2, [r3, #48]	@ 0x30
 8001766:	f002 0240 	and.w	r2, r2, #64	@ 0x40
 800176a:	9205      	str	r2, [sp, #20]
 800176c:	9a05      	ldr	r2, [sp, #20]
 800176e:	6b1a      	ldr	r2, [r3, #48]	@ 0x30
 8001770:	f042 0210 	orr.w	r2, r2, #16
 8001774:	631a      	str	r2, [r3, #48]	@ 0x30
 8001776:	6b1a      	ldr	r2, [r3, #48]	@ 0x30
 8001778:	f002 0210 	and.w	r2, r2, #16
 800177c:	9206      	str	r2, [sp, #24]
 800177e:	9a06      	ldr	r2, [sp, #24]
 8001780:	6b1a      	ldr	r2, [r3, #48]	@ 0x30
 8001782:	f042 0208 	orr.w	r2, r2, #8
 8001786:	631a      	str	r2, [r3, #48]	@ 0x30
 8001788:	2200      	movs	r2, #0
 800178a:	6b1b      	ldr	r3, [r3, #48]	@ 0x30
 800178c:	f003 0308 	and.w	r3, r3, #8
 8001790:	9307      	str	r3, [sp, #28]
 8001792:	9b07      	ldr	r3, [sp, #28]
 8001794:	f001 fa62 	bl	8002c5c <HAL_GPIO_WritePin>
 8001798:	2200      	movs	r2, #0
 800179a:	f44f 519c 	mov.w	r1, #4992	@ 0x1380
 800179e:	4868      	ldr	r0, [pc, #416]	@ (8001940 <main+0x2f0>)
 80017a0:	f001 fa5c 	bl	8002c5c <HAL_GPIO_WritePin>
 80017a4:	2201      	movs	r2, #1
 80017a6:	f44f 4100 	mov.w	r1, #32768	@ 0x8000
 80017aa:	4863      	ldr	r0, [pc, #396]	@ (8001938 <main+0x2e8>)
 80017ac:	f001 fa56 	bl	8002c5c <HAL_GPIO_WritePin>
 80017b0:	2201      	movs	r2, #1
 80017b2:	f44f 6100 	mov.w	r1, #2048	@ 0x800
 80017b6:	4863      	ldr	r0, [pc, #396]	@ (8001944 <main+0x2f4>)
 80017b8:	f001 fa50 	bl	8002c5c <HAL_GPIO_WritePin>
 80017bc:	2200      	movs	r2, #0
 80017be:	f44f 41e0 	mov.w	r1, #28672	@ 0x7000
 80017c2:	4860      	ldr	r0, [pc, #384]	@ (8001944 <main+0x2f4>)
 80017c4:	f001 fa4a 	bl	8002c5c <HAL_GPIO_WritePin>
 80017c8:	f248 0320 	movw	r3, #32800	@ 0x8020
 80017cc:	a913      	add	r1, sp, #76	@ 0x4c
 80017ce:	485a      	ldr	r0, [pc, #360]	@ (8001938 <main+0x2e8>)
 80017d0:	e9cd 3513 	strd	r3, r5, [sp, #76]	@ 0x4c
 80017d4:	e9cd 4415 	strd	r4, r4, [sp, #84]	@ 0x54
 80017d8:	f001 f962 	bl	8002aa0 <HAL_GPIO_Init>
 80017dc:	f44f 539c 	mov.w	r3, #4992	@ 0x1380
 80017e0:	a913      	add	r1, sp, #76	@ 0x4c
 80017e2:	4857      	ldr	r0, [pc, #348]	@ (8001940 <main+0x2f0>)
 80017e4:	e9cd 3513 	strd	r3, r5, [sp, #76]	@ 0x4c
 80017e8:	e9cd 4415 	strd	r4, r4, [sp, #84]	@ 0x54
 80017ec:	f001 f958 	bl	8002aa0 <HAL_GPIO_Init>
 80017f0:	f44f 43f0 	mov.w	r3, #30720	@ 0x7800
 80017f4:	a913      	add	r1, sp, #76	@ 0x4c
 80017f6:	4853      	ldr	r0, [pc, #332]	@ (8001944 <main+0x2f4>)
 80017f8:	e9cd 3513 	strd	r3, r5, [sp, #76]	@ 0x4c
 80017fc:	e9cd 4415 	strd	r4, r4, [sp, #84]	@ 0x54
 8001800:	f001 f94e 	bl	8002aa0 <HAL_GPIO_Init>
 8001804:	2340      	movs	r3, #64	@ 0x40
 8001806:	a913      	add	r1, sp, #76	@ 0x4c
 8001808:	484d      	ldr	r0, [pc, #308]	@ (8001940 <main+0x2f0>)
 800180a:	9415      	str	r4, [sp, #84]	@ 0x54
 800180c:	e9cd 3413 	strd	r3, r4, [sp, #76]	@ 0x4c
 8001810:	f001 f946 	bl	8002aa0 <HAL_GPIO_Init>
 8001814:	484c      	ldr	r0, [pc, #304]	@ (8001948 <main+0x2f8>)
 8001816:	f44f 7382 	mov.w	r3, #260	@ 0x104
 800181a:	f44f 6c80 	mov.w	ip, #1024	@ 0x400
 800181e:	f44f 7e00 	mov.w	lr, #512	@ 0x200
 8001822:	6284      	str	r4, [r0, #40]	@ 0x28
 8001824:	6344      	str	r4, [r0, #52]	@ 0x34
 8001826:	e9c0 7300 	strd	r7, r3, [r0]
 800182a:	f44f 6370 	mov.w	r3, #3840	@ 0xf00
 800182e:	e9c0 c302 	strd	ip, r3, [r0, #8]
 8001832:	2308      	movs	r3, #8
 8001834:	e9c0 e306 	strd	lr, r3, [r0, #24]
 8001838:	2307      	movs	r3, #7
 800183a:	e9c0 4504 	strd	r4, r5, [r0, #16]
 800183e:	e9c0 4408 	strd	r4, r4, [r0, #32]
 8001842:	e9c0 340b 	strd	r3, r4, [r0, #44]	@ 0x2c
 8001846:	f003 faa0 	bl	8004d8a <HAL_SPI_Init>
 800184a:	4604      	mov	r4, r0
 800184c:	b108      	cbz	r0, 8001852 <main+0x202>
 800184e:	b672      	cpsid	i
 8001850:	e7fe      	b.n	8001850 <main+0x200>
 8001852:	4601      	mov	r1, r0
 8001854:	2210      	movs	r2, #16
 8001856:	a80b      	add	r0, sp, #44	@ 0x2c
 8001858:	4d3c      	ldr	r5, [pc, #240]	@ (800194c <main+0x2fc>)
 800185a:	f006 fedd 	bl	8008618 <memset>
 800185e:	221c      	movs	r2, #28
 8001860:	4621      	mov	r1, r4
 8001862:	a813      	add	r0, sp, #76	@ 0x4c
 8001864:	940a      	str	r4, [sp, #40]	@ 0x28
 8001866:	e9cd 4408 	strd	r4, r4, [sp, #32]
 800186a:	f006 fed5 	bl	8008618 <memset>
 800186e:	2210      	movs	r2, #16
 8001870:	4621      	mov	r1, r4
 8001872:	a80f      	add	r0, sp, #60	@ 0x3c
 8001874:	f006 fed0 	bl	8008618 <memset>
 8001878:	4b35      	ldr	r3, [pc, #212]	@ (8001950 <main+0x300>)
 800187a:	4628      	mov	r0, r5
 800187c:	60ac      	str	r4, [r5, #8]
 800187e:	61ac      	str	r4, [r5, #24]
 8001880:	e9c5 3400 	strd	r3, r4, [r5]
 8001884:	f640 036f 	movw	r3, #2159	@ 0x86f
 8001888:	e9c5 3403 	strd	r3, r4, [r5, #12]
 800188c:	f003 fca6 	bl	80051dc <HAL_TIM_Base_Init>
 8001890:	b108      	cbz	r0, 8001896 <main+0x246>
 8001892:	b672      	cpsid	i
 8001894:	e7fe      	b.n	8001894 <main+0x244>
 8001896:	f44f 5380 	mov.w	r3, #4096	@ 0x1000
 800189a:	a90b      	add	r1, sp, #44	@ 0x2c
 800189c:	4628      	mov	r0, r5
 800189e:	930b      	str	r3, [sp, #44]	@ 0x2c
 80018a0:	f003 fea8 	bl	80055f4 <HAL_TIM_ConfigClockSource>
 80018a4:	b108      	cbz	r0, 80018aa <main+0x25a>
 80018a6:	b672      	cpsid	i
 80018a8:	e7fe      	b.n	80018a8 <main+0x258>
 80018aa:	4628      	mov	r0, r5
 80018ac:	f003 fcc6 	bl	800523c <HAL_TIM_PWM_Init>
 80018b0:	b108      	cbz	r0, 80018b6 <main+0x266>
 80018b2:	b672      	cpsid	i
 80018b4:	e7fe      	b.n	80018b4 <main+0x264>
 80018b6:	4628      	mov	r0, r5
 80018b8:	f003 fcf0 	bl	800529c <HAL_TIM_IC_Init>
 80018bc:	b108      	cbz	r0, 80018c2 <main+0x272>
 80018be:	b672      	cpsid	i
 80018c0:	e7fe      	b.n	80018c0 <main+0x270>
 80018c2:	9008      	str	r0, [sp, #32]
 80018c4:	a908      	add	r1, sp, #32
 80018c6:	900a      	str	r0, [sp, #40]	@ 0x28
 80018c8:	4628      	mov	r0, r5
 80018ca:	f004 f8f7 	bl	8005abc <HAL_TIMEx_MasterConfigSynchronization>
 80018ce:	4602      	mov	r2, r0
 80018d0:	b108      	cbz	r0, 80018d6 <main+0x286>
 80018d2:	b672      	cpsid	i
 80018d4:	e7fe      	b.n	80018d4 <main+0x284>
 80018d6:	2660      	movs	r6, #96	@ 0x60
 80018d8:	2364      	movs	r3, #100	@ 0x64
 80018da:	9015      	str	r0, [sp, #84]	@ 0x54
 80018dc:	a913      	add	r1, sp, #76	@ 0x4c
 80018de:	9017      	str	r0, [sp, #92]	@ 0x5c
 80018e0:	4628      	mov	r0, r5
 80018e2:	e9cd 6313 	strd	r6, r3, [sp, #76]	@ 0x4c
 80018e6:	f003 fd3b 	bl	8005360 <HAL_TIM_PWM_ConfigChannel>
 80018ea:	b108      	cbz	r0, 80018f0 <main+0x2a0>
 80018ec:	b672      	cpsid	i
 80018ee:	e7fe      	b.n	80018ee <main+0x29e>
 80018f0:	f04f 0804 	mov.w	r8, #4
 80018f4:	2602      	movs	r6, #2
 80018f6:	2701      	movs	r7, #1
 80018f8:	2300      	movs	r3, #0
 80018fa:	4642      	mov	r2, r8
 80018fc:	a90f      	add	r1, sp, #60	@ 0x3c
 80018fe:	4813      	ldr	r0, [pc, #76]	@ (800194c <main+0x2fc>)
 8001900:	e9cd 670f 	strd	r6, r7, [sp, #60]	@ 0x3c
 8001904:	e9cd 3811 	strd	r3, r8, [sp, #68]	@ 0x44
 8001908:	f003 fdde 	bl	80054c8 <HAL_TIM_IC_ConfigChannel>
 800190c:	b108      	cbz	r0, 8001912 <main+0x2c2>
 800190e:	b672      	cpsid	i
 8001910:	e7fe      	b.n	8001910 <main+0x2c0>
 8001912:	900f      	str	r0, [sp, #60]	@ 0x3c
 8001914:	2208      	movs	r2, #8
 8001916:	9012      	str	r0, [sp, #72]	@ 0x48
 8001918:	a90f      	add	r1, sp, #60	@ 0x3c
 800191a:	480c      	ldr	r0, [pc, #48]	@ (800194c <main+0x2fc>)
 800191c:	f003 fdd4 	bl	80054c8 <HAL_TIM_IC_ConfigChannel>
 8001920:	4604      	mov	r4, r0
 8001922:	b1b8      	cbz	r0, 8001954 <main+0x304>
 8001924:	b672      	cpsid	i
 8001926:	e7fe      	b.n	8001926 <main+0x2d6>
 8001928:	e000ed00 	.word	0xe000ed00
 800192c:	200024e4 	.word	0x200024e4
 8001930:	deadbeef 	.word	0xdeadbeef
 8001934:	40023800 	.word	0x40023800
 8001938:	40020000 	.word	0x40020000
 800193c:	40015000 	.word	0x40015000
 8001940:	40020400 	.word	0x40020400
 8001944:	40021800 	.word	0x40021800
 8001948:	200007ec 	.word	0x200007ec
 800194c:	200007a0 	.word	0x200007a0
 8001950:	40000400 	.word	0x40000400
 8001954:	4891      	ldr	r0, [pc, #580]	@ (8001b9c <main+0x54c>)
 8001956:	f000 fb07 	bl	8001f68 <HAL_TIM_MspPostInit>
 800195a:	4b91      	ldr	r3, [pc, #580]	@ (8001ba0 <main+0x550>)
 800195c:	e9cd 4413 	strd	r4, r4, [sp, #76]	@ 0x4c
 8001960:	4c90      	ldr	r4, [pc, #576]	@ (8001ba4 <main+0x554>)
 8001962:	4620      	mov	r0, r4
 8001964:	6023      	str	r3, [r4, #0]
 8001966:	f001 f84f 	bl	8002a08 <HAL_DAC_Init>
 800196a:	4602      	mov	r2, r0
 800196c:	b108      	cbz	r0, 8001972 <main+0x322>
 800196e:	b672      	cpsid	i
 8001970:	e7fe      	b.n	8001970 <main+0x320>
 8001972:	e9cd 0013 	strd	r0, r0, [sp, #76]	@ 0x4c
 8001976:	a913      	add	r1, sp, #76	@ 0x4c
 8001978:	4620      	mov	r0, r4
 800197a:	f001 f858 	bl	8002a2e <HAL_DAC_ConfigChannel>
 800197e:	b108      	cbz	r0, 8001984 <main+0x334>
 8001980:	b672      	cpsid	i
 8001982:	e7fe      	b.n	8001982 <main+0x332>
 8001984:	4c88      	ldr	r4, [pc, #544]	@ (8001ba8 <main+0x558>)
 8001986:	2540      	movs	r5, #64	@ 0x40
 8001988:	4b88      	ldr	r3, [pc, #544]	@ (8001bac <main+0x55c>)
 800198a:	f04f 0908 	mov.w	r9, #8
 800198e:	f04f 0a10 	mov.w	sl, #16
 8001992:	61e0      	str	r0, [r4, #28]
 8001994:	a913      	add	r1, sp, #76	@ 0x4c
 8001996:	60a7      	str	r7, [r4, #8]
 8001998:	9613      	str	r6, [sp, #76]	@ 0x4c
 800199a:	e9c4 3000 	strd	r3, r0, [r4]
 800199e:	f44f 7380 	mov.w	r3, #256	@ 0x100
 80019a2:	e9c4 5305 	strd	r5, r3, [r4, #20]
 80019a6:	f44f 6300 	mov.w	r3, #2048	@ 0x800
 80019aa:	e9c4 3008 	strd	r3, r0, [r4, #32]
 80019ae:	f44f 5300 	mov.w	r3, #8192	@ 0x2000
 80019b2:	4620      	mov	r0, r4
 80019b4:	62a3      	str	r3, [r4, #40]	@ 0x28
 80019b6:	2307      	movs	r3, #7
 80019b8:	e9cd 3814 	strd	r3, r8, [sp, #80]	@ 0x50
 80019bc:	2306      	movs	r3, #6
 80019be:	e9c4 9a03 	strd	r9, sl, [r4, #12]
 80019c2:	e9cd 3316 	strd	r3, r3, [sp, #88]	@ 0x58
 80019c6:	e9cd 6618 	strd	r6, r6, [sp, #96]	@ 0x60
 80019ca:	f003 f987 	bl	8004cdc <HAL_SDRAM_Init>
 80019ce:	4605      	mov	r5, r0
 80019d0:	b108      	cbz	r0, 80019d6 <main+0x386>
 80019d2:	b672      	cpsid	i
 80019d4:	e7fe      	b.n	80019d4 <main+0x384>
 80019d6:	f04f 32ff 	mov.w	r2, #4294967295	@ 0xffffffff
 80019da:	a90f      	add	r1, sp, #60	@ 0x3c
 80019dc:	9012      	str	r0, [sp, #72]	@ 0x48
 80019de:	4620      	mov	r0, r4
 80019e0:	9711      	str	r7, [sp, #68]	@ 0x44
 80019e2:	e9cd 7a0f 	strd	r7, sl, [sp, #60]	@ 0x3c
 80019e6:	f003 f999 	bl	8004d1c <HAL_SDRAM_SendCommand>
 80019ea:	4638      	mov	r0, r7
 80019ec:	f000 fd0c 	bl	8002408 <HAL_Delay>
 80019f0:	f04f 32ff 	mov.w	r2, #4294967295	@ 0xffffffff
 80019f4:	a90f      	add	r1, sp, #60	@ 0x3c
 80019f6:	4620      	mov	r0, r4
 80019f8:	960f      	str	r6, [sp, #60]	@ 0x3c
 80019fa:	f003 f98f 	bl	8004d1c <HAL_SDRAM_SendCommand>
 80019fe:	2303      	movs	r3, #3
 8001a00:	f04f 32ff 	mov.w	r2, #4294967295	@ 0xffffffff
 8001a04:	a90f      	add	r1, sp, #60	@ 0x3c
 8001a06:	4620      	mov	r0, r4
 8001a08:	930f      	str	r3, [sp, #60]	@ 0x3c
 8001a0a:	f64f 76ff 	movw	r6, #65535	@ 0xffff
 8001a0e:	f8cd 9044 	str.w	r9, [sp, #68]	@ 0x44
 8001a12:	f003 f983 	bl	8004d1c <HAL_SDRAM_SendCommand>
 8001a16:	2320      	movs	r3, #32
 8001a18:	f04f 32ff 	mov.w	r2, #4294967295	@ 0xffffffff
 8001a1c:	a90f      	add	r1, sp, #60	@ 0x3c
 8001a1e:	4620      	mov	r0, r4
 8001a20:	9312      	str	r3, [sp, #72]	@ 0x48
 8001a22:	f8cd 803c 	str.w	r8, [sp, #60]	@ 0x3c
 8001a26:	f003 f979 	bl	8004d1c <HAL_SDRAM_SendCommand>
 8001a2a:	f240 21f9 	movw	r1, #761	@ 0x2f9
 8001a2e:	4620      	mov	r0, r4
 8001a30:	f003 f993 	bl	8004d5a <HAL_SDRAM_ProgramRefreshRate>
 8001a34:	4c5e      	ldr	r4, [pc, #376]	@ (8001bb0 <main+0x560>)
 8001a36:	221c      	movs	r2, #28
 8001a38:	4629      	mov	r1, r5
 8001a3a:	a813      	add	r0, sp, #76	@ 0x4c
 8001a3c:	f006 fdec 	bl	8008618 <memset>
 8001a40:	4b5c      	ldr	r3, [pc, #368]	@ (8001bb4 <main+0x564>)
 8001a42:	4620      	mov	r0, r4
 8001a44:	60a5      	str	r5, [r4, #8]
 8001a46:	61a5      	str	r5, [r4, #24]
 8001a48:	e9c4 3500 	strd	r3, r5, [r4]
 8001a4c:	e9c4 6503 	strd	r6, r5, [r4, #12]
 8001a50:	f003 fbc4 	bl	80051dc <HAL_TIM_Base_Init>
 8001a54:	b108      	cbz	r0, 8001a5a <main+0x40a>
 8001a56:	b672      	cpsid	i
 8001a58:	e7fe      	b.n	8001a58 <main+0x408>
 8001a5a:	4620      	mov	r0, r4
 8001a5c:	f003 fbee 	bl	800523c <HAL_TIM_PWM_Init>
 8001a60:	4602      	mov	r2, r0
 8001a62:	b108      	cbz	r0, 8001a68 <main+0x418>
 8001a64:	b672      	cpsid	i
 8001a66:	e7fe      	b.n	8001a66 <main+0x416>
 8001a68:	2360      	movs	r3, #96	@ 0x60
 8001a6a:	9015      	str	r0, [sp, #84]	@ 0x54
 8001a6c:	9017      	str	r0, [sp, #92]	@ 0x5c
 8001a6e:	a913      	add	r1, sp, #76	@ 0x4c
 8001a70:	e9cd 3013 	strd	r3, r0, [sp, #76]	@ 0x4c
 8001a74:	4620      	mov	r0, r4
 8001a76:	f003 fc73 	bl	8005360 <HAL_TIM_PWM_ConfigChannel>
 8001a7a:	4605      	mov	r5, r0
 8001a7c:	b108      	cbz	r0, 8001a82 <main+0x432>
 8001a7e:	b672      	cpsid	i
 8001a80:	e7fe      	b.n	8001a80 <main+0x430>
 8001a82:	4620      	mov	r0, r4
 8001a84:	4c4c      	ldr	r4, [pc, #304]	@ (8001bb8 <main+0x568>)
 8001a86:	f000 fa6f 	bl	8001f68 <HAL_TIM_MspPostInit>
 8001a8a:	221c      	movs	r2, #28
 8001a8c:	4629      	mov	r1, r5
 8001a8e:	a813      	add	r0, sp, #76	@ 0x4c
 8001a90:	f006 fdc2 	bl	8008618 <memset>
 8001a94:	4b49      	ldr	r3, [pc, #292]	@ (8001bbc <main+0x56c>)
 8001a96:	4620      	mov	r0, r4
 8001a98:	6125      	str	r5, [r4, #16]
 8001a9a:	61a5      	str	r5, [r4, #24]
 8001a9c:	e9c4 3500 	strd	r3, r5, [r4]
 8001aa0:	e9c4 5602 	strd	r5, r6, [r4, #8]
 8001aa4:	f003 fb9a 	bl	80051dc <HAL_TIM_Base_Init>
 8001aa8:	b108      	cbz	r0, 8001aae <main+0x45e>
 8001aaa:	b672      	cpsid	i
 8001aac:	e7fe      	b.n	8001aac <main+0x45c>
 8001aae:	4620      	mov	r0, r4
 8001ab0:	f003 fbc4 	bl	800523c <HAL_TIM_PWM_Init>
 8001ab4:	b108      	cbz	r0, 8001aba <main+0x46a>
 8001ab6:	b672      	cpsid	i
 8001ab8:	e7fe      	b.n	8001ab8 <main+0x468>
 8001aba:	2200      	movs	r2, #0
 8001abc:	2360      	movs	r3, #96	@ 0x60
 8001abe:	a913      	add	r1, sp, #76	@ 0x4c
 8001ac0:	483d      	ldr	r0, [pc, #244]	@ (8001bb8 <main+0x568>)
 8001ac2:	9215      	str	r2, [sp, #84]	@ 0x54
 8001ac4:	9217      	str	r2, [sp, #92]	@ 0x5c
 8001ac6:	e9cd 3213 	strd	r3, r2, [sp, #76]	@ 0x4c
 8001aca:	f003 fc49 	bl	8005360 <HAL_TIM_PWM_ConfigChannel>
 8001ace:	4605      	mov	r5, r0
 8001ad0:	b108      	cbz	r0, 8001ad6 <main+0x486>
 8001ad2:	b672      	cpsid	i
 8001ad4:	e7fe      	b.n	8001ad4 <main+0x484>
 8001ad6:	4838      	ldr	r0, [pc, #224]	@ (8001bb8 <main+0x568>)
 8001ad8:	2601      	movs	r6, #1
 8001ada:	f000 fa45 	bl	8001f68 <HAL_TIM_MspPostInit>
 8001ade:	4c38      	ldr	r4, [pc, #224]	@ (8001bc0 <main+0x570>)
 8001ae0:	f005 fca2 	bl	8007428 <MX_USB_DEVICE_Init>
 8001ae4:	4629      	mov	r1, r5
 8001ae6:	2210      	movs	r2, #16
 8001ae8:	a813      	add	r0, sp, #76	@ 0x4c
 8001aea:	f006 fd95 	bl	8008618 <memset>
 8001aee:	f44f 3380 	mov.w	r3, #65536	@ 0x10000
 8001af2:	4934      	ldr	r1, [pc, #208]	@ (8001bc4 <main+0x574>)
 8001af4:	4620      	mov	r0, r4
 8001af6:	60a5      	str	r5, [r4, #8]
 8001af8:	6125      	str	r5, [r4, #16]
 8001afa:	61a5      	str	r5, [r4, #24]
 8001afc:	f884 5020 	strb.w	r5, [r4, #32]
 8001b00:	62e5      	str	r5, [r4, #44]	@ 0x2c
 8001b02:	60e5      	str	r5, [r4, #12]
 8001b04:	61e6      	str	r6, [r4, #28]
 8001b06:	f884 5030 	strb.w	r5, [r4, #48]	@ 0x30
 8001b0a:	6166      	str	r6, [r4, #20]
 8001b0c:	e9c4 1300 	strd	r1, r3, [r4]
 8001b10:	4b2d      	ldr	r3, [pc, #180]	@ (8001bc8 <main+0x578>)
 8001b12:	62a3      	str	r3, [r4, #40]	@ 0x28
 8001b14:	f000 fc8a 	bl	800242c <HAL_ADC_Init>
 8001b18:	b108      	cbz	r0, 8001b1e <main+0x4ce>
 8001b1a:	b672      	cpsid	i
 8001b1c:	e7fe      	b.n	8001b1c <main+0x4cc>
 8001b1e:	4b2b      	ldr	r3, [pc, #172]	@ (8001bcc <main+0x57c>)
 8001b20:	a913      	add	r1, sp, #76	@ 0x4c
 8001b22:	9015      	str	r0, [sp, #84]	@ 0x54
 8001b24:	4620      	mov	r0, r4
 8001b26:	e9cd 3613 	strd	r3, r6, [sp, #76]	@ 0x4c
 8001b2a:	f000 fe0f 	bl	800274c <HAL_ADC_ConfigChannel>
 8001b2e:	4603      	mov	r3, r0
 8001b30:	b108      	cbz	r0, 8001b36 <main+0x4e6>
 8001b32:	b672      	cpsid	i
 8001b34:	e7fe      	b.n	8001b34 <main+0x4e4>
 8001b36:	4826      	ldr	r0, [pc, #152]	@ (8001bd0 <main+0x580>)
 8001b38:	f04f 42a0 	mov.w	r2, #1342177280	@ 0x50000000
 8001b3c:	2502      	movs	r5, #2
 8001b3e:	6002      	str	r2, [r0, #0]
 8001b40:	2206      	movs	r2, #6
 8001b42:	7245      	strb	r5, [r0, #9]
 8001b44:	7102      	strb	r2, [r0, #4]
 8001b46:	f44f 7200 	mov.w	r2, #512	@ 0x200
 8001b4a:	8143      	strh	r3, [r0, #10]
 8001b4c:	80c2      	strh	r2, [r0, #6]
 8001b4e:	60c3      	str	r3, [r0, #12]
 8001b50:	f001 fdb1 	bl	80036b6 <HAL_PCD_Init>
 8001b54:	b108      	cbz	r0, 8001b5a <main+0x50a>
 8001b56:	b672      	cpsid	i
 8001b58:	e7fe      	b.n	8001b58 <main+0x508>
 8001b5a:	4c1e      	ldr	r4, [pc, #120]	@ (8001bd4 <main+0x584>)
 8001b5c:	4a1e      	ldr	r2, [pc, #120]	@ (8001bd8 <main+0x588>)
 8001b5e:	4b1f      	ldr	r3, [pc, #124]	@ (8001bdc <main+0x58c>)
 8001b60:	6220      	str	r0, [r4, #32]
 8001b62:	e9c4 0602 	strd	r0, r6, [r4, #8]
 8001b66:	e9c4 0004 	strd	r0, r0, [r4, #16]
 8001b6a:	e9c4 0006 	strd	r0, r0, [r4, #24]
 8001b6e:	4620      	mov	r0, r4
 8001b70:	e9c4 2300 	strd	r2, r3, [r4]
 8001b74:	f001 f9fe 	bl	8002f74 <HAL_I2C_Init>
 8001b78:	4601      	mov	r1, r0
 8001b7a:	b108      	cbz	r0, 8001b80 <main+0x530>
 8001b7c:	b672      	cpsid	i
 8001b7e:	e7fe      	b.n	8001b7e <main+0x52e>
 8001b80:	4620      	mov	r0, r4
 8001b82:	f001 fd4d 	bl	8003620 <HAL_I2CEx_ConfigAnalogFilter>
 8001b86:	4601      	mov	r1, r0
 8001b88:	b108      	cbz	r0, 8001b8e <main+0x53e>
 8001b8a:	b672      	cpsid	i
 8001b8c:	e7fe      	b.n	8001b8c <main+0x53c>
 8001b8e:	4620      	mov	r0, r4
 8001b90:	f001 fd6c 	bl	800366c <HAL_I2CEx_ConfigDigitalFilter>
 8001b94:	b320      	cbz	r0, 8001be0 <main+0x590>
 8001b96:	b672      	cpsid	i
 8001b98:	e7fe      	b.n	8001b98 <main+0x548>
 8001b9a:	bf00      	nop
 8001b9c:	200007a0 	.word	0x200007a0
 8001ba0:	40007400 	.word	0x40007400
 8001ba4:	200008a4 	.word	0x200008a4
 8001ba8:	200001f4 	.word	0x200001f4
 8001bac:	a0000140 	.word	0xa0000140
 8001bb0:	20000754 	.word	0x20000754
 8001bb4:	40001c00 	.word	0x40001c00
 8001bb8:	20000708 	.word	0x20000708
 8001bbc:	40002000 	.word	0x40002000
 8001bc0:	200008b8 	.word	0x200008b8
 8001bc4:	40012000 	.word	0x40012000
 8001bc8:	0f000001 	.word	0x0f000001
 8001bcc:	10000012 	.word	0x10000012
 8001bd0:	20000228 	.word	0x20000228
 8001bd4:	20000850 	.word	0x20000850
 8001bd8:	40005c00 	.word	0x40005c00
 8001bdc:	20404768 	.word	0x20404768
 8001be0:	f7ff f9f7 	bl	8000fd2 <I2C_Init>
 8001be4:	2405      	movs	r4, #5
 8001be6:	f7fe fd81 	bl	80006ec <ACQ_Init>
 8001bea:	2032      	movs	r0, #50	@ 0x32
 8001bec:	f7fe fef2 	bl	80009d4 <ACQ_Snapshot_Arm>
 8001bf0:	f7ff fbb8 	bl	8001364 <LED_Init>
 8001bf4:	4632      	mov	r2, r6
 8001bf6:	f44f 5180 	mov.w	r1, #4096	@ 0x1000
 8001bfa:	481e      	ldr	r0, [pc, #120]	@ (8001c74 <main+0x624>)
 8001bfc:	f001 f82e 	bl	8002c5c <HAL_GPIO_WritePin>
 8001c00:	f44f 71fa 	mov.w	r1, #500	@ 0x1f4
 8001c04:	4628      	mov	r0, r5
 8001c06:	f7ff fbf5 	bl	80013f4 <LED_BreatheBoth>
 8001c0a:	f7ff fbdd 	bl	80013c8 <LED3_On>
 8001c0e:	3c01      	subs	r4, #1
 8001c10:	2064      	movs	r0, #100	@ 0x64
 8001c12:	f000 fbf9 	bl	8002408 <HAL_Delay>
 8001c16:	f7ff fbdf 	bl	80013d8 <LED3_Off>
 8001c1a:	2064      	movs	r0, #100	@ 0x64
 8001c1c:	f000 fbf4 	bl	8002408 <HAL_Delay>
 8001c20:	f014 04ff 	ands.w	r4, r4, #255	@ 0xff
 8001c24:	d1f1      	bne.n	8001c0a <main+0x5ba>
 8001c26:	2405      	movs	r4, #5
 8001c28:	f7ff fbb8 	bl	800139c <LED2_On>
 8001c2c:	3c01      	subs	r4, #1
 8001c2e:	2064      	movs	r0, #100	@ 0x64
 8001c30:	f000 fbea 	bl	8002408 <HAL_Delay>
 8001c34:	f7ff fbba 	bl	80013ac <LED2_Off>
 8001c38:	2064      	movs	r0, #100	@ 0x64
 8001c3a:	f000 fbe5 	bl	8002408 <HAL_Delay>
 8001c3e:	f014 04ff 	ands.w	r4, r4, #255	@ 0xff
 8001c42:	d1f1      	bne.n	8001c28 <main+0x5d8>
 8001c44:	4c0c      	ldr	r4, [pc, #48]	@ (8001c78 <main+0x628>)
 8001c46:	f000 f821 	bl	8001c8c <SM_GetState>
 8001c4a:	2805      	cmp	r0, #5
 8001c4c:	d101      	bne.n	8001c52 <main+0x602>
 8001c4e:	f000 fb2f 	bl	80022b0 <USB_TransferTask>
 8001c52:	7823      	ldrb	r3, [r4, #0]
 8001c54:	b10b      	cbz	r3, 8001c5a <main+0x60a>
 8001c56:	f7ff fb0d 	bl	8001274 <I2C_Refresh>
 8001c5a:	f000 f817 	bl	8001c8c <SM_GetState>
 8001c5e:	2807      	cmp	r0, #7
 8001c60:	d1f1      	bne.n	8001c46 <main+0x5f6>
 8001c62:	f7ff f921 	bl	8000ea8 <CALDUMP_Task>
 8001c66:	f7ff f919 	bl	8000e9c <CALDUMP_IsActive>
 8001c6a:	2800      	cmp	r0, #0
 8001c6c:	d1eb      	bne.n	8001c46 <main+0x5f6>
 8001c6e:	f000 f807 	bl	8001c80 <SM_SetState>
 8001c72:	e7e8      	b.n	8001c46 <main+0x5f6>
 8001c74:	40020400 	.word	0x40020400
 8001c78:	200001e4 	.word	0x200001e4

08001c7c <Error_Handler>:
 8001c7c:	b672      	cpsid	i
 8001c7e:	e7fe      	b.n	8001c7e <Error_Handler+0x2>

08001c80 <SM_SetState>:
 8001c80:	4b01      	ldr	r3, [pc, #4]	@ (8001c88 <SM_SetState+0x8>)
 8001c82:	7018      	strb	r0, [r3, #0]
 8001c84:	4770      	bx	lr
 8001c86:	bf00      	nop
 8001c88:	20000900 	.word	0x20000900

08001c8c <SM_GetState>:
 8001c8c:	4b01      	ldr	r3, [pc, #4]	@ (8001c94 <SM_GetState+0x8>)
 8001c8e:	7818      	ldrb	r0, [r3, #0]
 8001c90:	4770      	bx	lr
 8001c92:	bf00      	nop
 8001c94:	20000900 	.word	0x20000900

08001c98 <HAL_MspInit>:
 8001c98:	4b0a      	ldr	r3, [pc, #40]	@ (8001cc4 <HAL_MspInit+0x2c>)
 8001c9a:	b082      	sub	sp, #8
 8001c9c:	6c1a      	ldr	r2, [r3, #64]	@ 0x40
 8001c9e:	f042 5280 	orr.w	r2, r2, #268435456	@ 0x10000000
 8001ca2:	641a      	str	r2, [r3, #64]	@ 0x40
 8001ca4:	6c1a      	ldr	r2, [r3, #64]	@ 0x40
 8001ca6:	f002 5280 	and.w	r2, r2, #268435456	@ 0x10000000
 8001caa:	9200      	str	r2, [sp, #0]
 8001cac:	9a00      	ldr	r2, [sp, #0]
 8001cae:	6c5a      	ldr	r2, [r3, #68]	@ 0x44
 8001cb0:	f442 4280 	orr.w	r2, r2, #16384	@ 0x4000
 8001cb4:	645a      	str	r2, [r3, #68]	@ 0x44
 8001cb6:	6c5b      	ldr	r3, [r3, #68]	@ 0x44
 8001cb8:	f403 4380 	and.w	r3, r3, #16384	@ 0x4000
 8001cbc:	9301      	str	r3, [sp, #4]
 8001cbe:	9b01      	ldr	r3, [sp, #4]
 8001cc0:	b002      	add	sp, #8
 8001cc2:	4770      	bx	lr
 8001cc4:	40023800 	.word	0x40023800

08001cc8 <HAL_ADC_MspInit>:
 8001cc8:	b510      	push	{r4, lr}
 8001cca:	b088      	sub	sp, #32
 8001ccc:	4604      	mov	r4, r0
 8001cce:	2214      	movs	r2, #20
 8001cd0:	2100      	movs	r1, #0
 8001cd2:	a803      	add	r0, sp, #12
 8001cd4:	f006 fca0 	bl	8008618 <memset>
 8001cd8:	6822      	ldr	r2, [r4, #0]
 8001cda:	4b10      	ldr	r3, [pc, #64]	@ (8001d1c <HAL_ADC_MspInit+0x54>)
 8001cdc:	429a      	cmp	r2, r3
 8001cde:	d11b      	bne.n	8001d18 <HAL_ADC_MspInit+0x50>
 8001ce0:	f503 338c 	add.w	r3, r3, #71680	@ 0x11800
 8001ce4:	a903      	add	r1, sp, #12
 8001ce6:	480e      	ldr	r0, [pc, #56]	@ (8001d20 <HAL_ADC_MspInit+0x58>)
 8001ce8:	6c5a      	ldr	r2, [r3, #68]	@ 0x44
 8001cea:	f442 7280 	orr.w	r2, r2, #256	@ 0x100
 8001cee:	645a      	str	r2, [r3, #68]	@ 0x44
 8001cf0:	6c5a      	ldr	r2, [r3, #68]	@ 0x44
 8001cf2:	f402 7280 	and.w	r2, r2, #256	@ 0x100
 8001cf6:	9201      	str	r2, [sp, #4]
 8001cf8:	9a01      	ldr	r2, [sp, #4]
 8001cfa:	6b1a      	ldr	r2, [r3, #48]	@ 0x30
 8001cfc:	f042 0201 	orr.w	r2, r2, #1
 8001d00:	631a      	str	r2, [r3, #48]	@ 0x30
 8001d02:	2208      	movs	r2, #8
 8001d04:	6b1b      	ldr	r3, [r3, #48]	@ 0x30
 8001d06:	f003 0301 	and.w	r3, r3, #1
 8001d0a:	9302      	str	r3, [sp, #8]
 8001d0c:	9b02      	ldr	r3, [sp, #8]
 8001d0e:	2303      	movs	r3, #3
 8001d10:	e9cd 2303 	strd	r2, r3, [sp, #12]
 8001d14:	f000 fec4 	bl	8002aa0 <HAL_GPIO_Init>
 8001d18:	b008      	add	sp, #32
 8001d1a:	bd10      	pop	{r4, pc}
 8001d1c:	40012000 	.word	0x40012000
 8001d20:	40020000 	.word	0x40020000

08001d24 <HAL_DAC_MspInit>:
 8001d24:	b510      	push	{r4, lr}
 8001d26:	b088      	sub	sp, #32
 8001d28:	4604      	mov	r4, r0
 8001d2a:	2214      	movs	r2, #20
 8001d2c:	2100      	movs	r1, #0
 8001d2e:	a803      	add	r0, sp, #12
 8001d30:	f006 fc72 	bl	8008618 <memset>
 8001d34:	6822      	ldr	r2, [r4, #0]
 8001d36:	4b10      	ldr	r3, [pc, #64]	@ (8001d78 <HAL_DAC_MspInit+0x54>)
 8001d38:	429a      	cmp	r2, r3
 8001d3a:	d11b      	bne.n	8001d74 <HAL_DAC_MspInit+0x50>
 8001d3c:	f503 33e2 	add.w	r3, r3, #115712	@ 0x1c400
 8001d40:	a903      	add	r1, sp, #12
 8001d42:	480e      	ldr	r0, [pc, #56]	@ (8001d7c <HAL_DAC_MspInit+0x58>)
 8001d44:	6c1a      	ldr	r2, [r3, #64]	@ 0x40
 8001d46:	f042 5200 	orr.w	r2, r2, #536870912	@ 0x20000000
 8001d4a:	641a      	str	r2, [r3, #64]	@ 0x40
 8001d4c:	6c1a      	ldr	r2, [r3, #64]	@ 0x40
 8001d4e:	f002 5200 	and.w	r2, r2, #536870912	@ 0x20000000
 8001d52:	9201      	str	r2, [sp, #4]
 8001d54:	9a01      	ldr	r2, [sp, #4]
 8001d56:	6b1a      	ldr	r2, [r3, #48]	@ 0x30
 8001d58:	f042 0201 	orr.w	r2, r2, #1
 8001d5c:	631a      	str	r2, [r3, #48]	@ 0x30
 8001d5e:	2210      	movs	r2, #16
 8001d60:	6b1b      	ldr	r3, [r3, #48]	@ 0x30
 8001d62:	f003 0301 	and.w	r3, r3, #1
 8001d66:	9302      	str	r3, [sp, #8]
 8001d68:	9b02      	ldr	r3, [sp, #8]
 8001d6a:	2303      	movs	r3, #3
 8001d6c:	e9cd 2303 	strd	r2, r3, [sp, #12]
 8001d70:	f000 fe96 	bl	8002aa0 <HAL_GPIO_Init>
 8001d74:	b008      	add	sp, #32
 8001d76:	bd10      	pop	{r4, pc}
 8001d78:	40007400 	.word	0x40007400
 8001d7c:	40020000 	.word	0x40020000

08001d80 <HAL_I2C_MspInit>:
 8001d80:	e92d 41f0 	stmdb	sp!, {r4, r5, r6, r7, r8, lr}
 8001d84:	b0a8      	sub	sp, #160	@ 0xa0
 8001d86:	4604      	mov	r4, r0
 8001d88:	2214      	movs	r2, #20
 8001d8a:	2100      	movs	r1, #0
 8001d8c:	a803      	add	r0, sp, #12
 8001d8e:	f006 fc43 	bl	8008618 <memset>
 8001d92:	2280      	movs	r2, #128	@ 0x80
 8001d94:	2100      	movs	r1, #0
 8001d96:	a808      	add	r0, sp, #32
 8001d98:	f006 fc3e 	bl	8008618 <memset>
 8001d9c:	6822      	ldr	r2, [r4, #0]
 8001d9e:	4b23      	ldr	r3, [pc, #140]	@ (8001e2c <HAL_I2C_MspInit+0xac>)
 8001da0:	429a      	cmp	r2, r3
 8001da2:	d13f      	bne.n	8001e24 <HAL_I2C_MspInit+0xa4>
 8001da4:	f44f 3380 	mov.w	r3, #65536	@ 0x10000
 8001da8:	a808      	add	r0, sp, #32
 8001daa:	9308      	str	r3, [sp, #32]
 8001dac:	f002 fd68 	bl	8004880 <HAL_RCCEx_PeriphCLKConfig>
 8001db0:	b108      	cbz	r0, 8001db6 <HAL_I2C_MspInit+0x36>
 8001db2:	f7ff ff63 	bl	8001c7c <Error_Handler>
 8001db6:	4c1e      	ldr	r4, [pc, #120]	@ (8001e30 <HAL_I2C_MspInit+0xb0>)
 8001db8:	f04f 0812 	mov.w	r8, #18
 8001dbc:	2700      	movs	r7, #0
 8001dbe:	2603      	movs	r6, #3
 8001dc0:	6b23      	ldr	r3, [r4, #48]	@ 0x30
 8001dc2:	2504      	movs	r5, #4
 8001dc4:	a903      	add	r1, sp, #12
 8001dc6:	481b      	ldr	r0, [pc, #108]	@ (8001e34 <HAL_I2C_MspInit+0xb4>)
 8001dc8:	f043 0304 	orr.w	r3, r3, #4
 8001dcc:	6323      	str	r3, [r4, #48]	@ 0x30
 8001dce:	6b23      	ldr	r3, [r4, #48]	@ 0x30
 8001dd0:	f003 0304 	and.w	r3, r3, #4
 8001dd4:	9300      	str	r3, [sp, #0]
 8001dd6:	9b00      	ldr	r3, [sp, #0]
 8001dd8:	6b23      	ldr	r3, [r4, #48]	@ 0x30
 8001dda:	f043 0301 	orr.w	r3, r3, #1
 8001dde:	6323      	str	r3, [r4, #48]	@ 0x30
 8001de0:	6b23      	ldr	r3, [r4, #48]	@ 0x30
 8001de2:	9507      	str	r5, [sp, #28]
 8001de4:	f003 0301 	and.w	r3, r3, #1
 8001de8:	9301      	str	r3, [sp, #4]
 8001dea:	9b01      	ldr	r3, [sp, #4]
 8001dec:	f44f 7300 	mov.w	r3, #512	@ 0x200
 8001df0:	e9cd 7605 	strd	r7, r6, [sp, #20]
 8001df4:	e9cd 3803 	strd	r3, r8, [sp, #12]
 8001df8:	f000 fe52 	bl	8002aa0 <HAL_GPIO_Init>
 8001dfc:	f44f 7380 	mov.w	r3, #256	@ 0x100
 8001e00:	a903      	add	r1, sp, #12
 8001e02:	480d      	ldr	r0, [pc, #52]	@ (8001e38 <HAL_I2C_MspInit+0xb8>)
 8001e04:	9507      	str	r5, [sp, #28]
 8001e06:	e9cd 3803 	strd	r3, r8, [sp, #12]
 8001e0a:	e9cd 7605 	strd	r7, r6, [sp, #20]
 8001e0e:	f000 fe47 	bl	8002aa0 <HAL_GPIO_Init>
 8001e12:	6c23      	ldr	r3, [r4, #64]	@ 0x40
 8001e14:	f443 0300 	orr.w	r3, r3, #8388608	@ 0x800000
 8001e18:	6423      	str	r3, [r4, #64]	@ 0x40
 8001e1a:	6c23      	ldr	r3, [r4, #64]	@ 0x40
 8001e1c:	f403 0300 	and.w	r3, r3, #8388608	@ 0x800000
 8001e20:	9302      	str	r3, [sp, #8]
 8001e22:	9b02      	ldr	r3, [sp, #8]
 8001e24:	b028      	add	sp, #160	@ 0xa0
 8001e26:	e8bd 81f0 	ldmia.w	sp!, {r4, r5, r6, r7, r8, pc}
 8001e2a:	bf00      	nop
 8001e2c:	40005c00 	.word	0x40005c00
 8001e30:	40023800 	.word	0x40023800
 8001e34:	40020800 	.word	0x40020800
 8001e38:	40020000 	.word	0x40020000

08001e3c <HAL_SPI_MspInit>:
 8001e3c:	b510      	push	{r4, lr}
 8001e3e:	b088      	sub	sp, #32
 8001e40:	4604      	mov	r4, r0
 8001e42:	2214      	movs	r2, #20
 8001e44:	2100      	movs	r1, #0
 8001e46:	a803      	add	r0, sp, #12
 8001e48:	f006 fbe6 	bl	8008618 <memset>
 8001e4c:	6822      	ldr	r2, [r4, #0]
 8001e4e:	4b17      	ldr	r3, [pc, #92]	@ (8001eac <HAL_SPI_MspInit+0x70>)
 8001e50:	429a      	cmp	r2, r3
 8001e52:	d128      	bne.n	8001ea6 <HAL_SPI_MspInit+0x6a>
 8001e54:	f503 4368 	add.w	r3, r3, #59392	@ 0xe800
 8001e58:	2103      	movs	r1, #3
 8001e5a:	4815      	ldr	r0, [pc, #84]	@ (8001eb0 <HAL_SPI_MspInit+0x74>)
 8001e5c:	6c5a      	ldr	r2, [r3, #68]	@ 0x44
 8001e5e:	f442 1280 	orr.w	r2, r2, #1048576	@ 0x100000
 8001e62:	645a      	str	r2, [r3, #68]	@ 0x44
 8001e64:	6c5a      	ldr	r2, [r3, #68]	@ 0x44
 8001e66:	f402 1280 	and.w	r2, r2, #1048576	@ 0x100000
 8001e6a:	9201      	str	r2, [sp, #4]
 8001e6c:	9a01      	ldr	r2, [sp, #4]
 8001e6e:	6b1a      	ldr	r2, [r3, #48]	@ 0x30
 8001e70:	f042 0220 	orr.w	r2, r2, #32
 8001e74:	631a      	str	r2, [r3, #48]	@ 0x30
 8001e76:	f44f 72c0 	mov.w	r2, #384	@ 0x180
 8001e7a:	6b1b      	ldr	r3, [r3, #48]	@ 0x30
 8001e7c:	f003 0320 	and.w	r3, r3, #32
 8001e80:	9302      	str	r3, [sp, #8]
 8001e82:	9b02      	ldr	r3, [sp, #8]
 8001e84:	2302      	movs	r3, #2
 8001e86:	e9cd 2303 	strd	r2, r3, [sp, #12]
 8001e8a:	2305      	movs	r3, #5
 8001e8c:	e9cd 1306 	strd	r1, r3, [sp, #24]
 8001e90:	a903      	add	r1, sp, #12
 8001e92:	f000 fe05 	bl	8002aa0 <HAL_GPIO_Init>
 8001e96:	2200      	movs	r2, #0
 8001e98:	2055      	movs	r0, #85	@ 0x55
 8001e9a:	4611      	mov	r1, r2
 8001e9c:	f000 fd16 	bl	80028cc <HAL_NVIC_SetPriority>
 8001ea0:	2055      	movs	r0, #85	@ 0x55
 8001ea2:	f000 fd45 	bl	8002930 <HAL_NVIC_EnableIRQ>
 8001ea6:	b008      	add	sp, #32
 8001ea8:	bd10      	pop	{r4, pc}
 8001eaa:	bf00      	nop
 8001eac:	40015000 	.word	0x40015000
 8001eb0:	40021400 	.word	0x40021400

08001eb4 <HAL_TIM_Base_MspInit>:
 8001eb4:	2214      	movs	r2, #20
 8001eb6:	2100      	movs	r1, #0
 8001eb8:	b510      	push	{r4, lr}
 8001eba:	b08a      	sub	sp, #40	@ 0x28
 8001ebc:	4604      	mov	r4, r0
 8001ebe:	eb0d 0002 	add.w	r0, sp, r2
 8001ec2:	f006 fba9 	bl	8008618 <memset>
 8001ec6:	6823      	ldr	r3, [r4, #0]
 8001ec8:	4a22      	ldr	r2, [pc, #136]	@ (8001f54 <HAL_TIM_Base_MspInit+0xa0>)
 8001eca:	4293      	cmp	r3, r2
 8001ecc:	d125      	bne.n	8001f1a <HAL_TIM_Base_MspInit+0x66>
 8001ece:	4b22      	ldr	r3, [pc, #136]	@ (8001f58 <HAL_TIM_Base_MspInit+0xa4>)
 8001ed0:	a905      	add	r1, sp, #20
 8001ed2:	4822      	ldr	r0, [pc, #136]	@ (8001f5c <HAL_TIM_Base_MspInit+0xa8>)
 8001ed4:	6c1a      	ldr	r2, [r3, #64]	@ 0x40
 8001ed6:	f042 0202 	orr.w	r2, r2, #2
 8001eda:	641a      	str	r2, [r3, #64]	@ 0x40
 8001edc:	6c1a      	ldr	r2, [r3, #64]	@ 0x40
 8001ede:	f002 0202 	and.w	r2, r2, #2
 8001ee2:	9201      	str	r2, [sp, #4]
 8001ee4:	9a01      	ldr	r2, [sp, #4]
 8001ee6:	6b1a      	ldr	r2, [r3, #48]	@ 0x30
 8001ee8:	f042 0202 	orr.w	r2, r2, #2
 8001eec:	631a      	str	r2, [r3, #48]	@ 0x30
 8001eee:	2221      	movs	r2, #33	@ 0x21
 8001ef0:	6b1b      	ldr	r3, [r3, #48]	@ 0x30
 8001ef2:	f003 0302 	and.w	r3, r3, #2
 8001ef6:	9302      	str	r3, [sp, #8]
 8001ef8:	9b02      	ldr	r3, [sp, #8]
 8001efa:	2302      	movs	r3, #2
 8001efc:	e9cd 2305 	strd	r2, r3, [sp, #20]
 8001f00:	9309      	str	r3, [sp, #36]	@ 0x24
 8001f02:	f000 fdcd 	bl	8002aa0 <HAL_GPIO_Init>
 8001f06:	2200      	movs	r2, #0
 8001f08:	201d      	movs	r0, #29
 8001f0a:	4611      	mov	r1, r2
 8001f0c:	f000 fcde 	bl	80028cc <HAL_NVIC_SetPriority>
 8001f10:	201d      	movs	r0, #29
 8001f12:	f000 fd0d 	bl	8002930 <HAL_NVIC_EnableIRQ>
 8001f16:	b00a      	add	sp, #40	@ 0x28
 8001f18:	bd10      	pop	{r4, pc}
 8001f1a:	4a11      	ldr	r2, [pc, #68]	@ (8001f60 <HAL_TIM_Base_MspInit+0xac>)
 8001f1c:	4293      	cmp	r3, r2
 8001f1e:	d10a      	bne.n	8001f36 <HAL_TIM_Base_MspInit+0x82>
 8001f20:	4b0d      	ldr	r3, [pc, #52]	@ (8001f58 <HAL_TIM_Base_MspInit+0xa4>)
 8001f22:	6c1a      	ldr	r2, [r3, #64]	@ 0x40
 8001f24:	f042 0280 	orr.w	r2, r2, #128	@ 0x80
 8001f28:	641a      	str	r2, [r3, #64]	@ 0x40
 8001f2a:	6c1b      	ldr	r3, [r3, #64]	@ 0x40
 8001f2c:	f003 0380 	and.w	r3, r3, #128	@ 0x80
 8001f30:	9303      	str	r3, [sp, #12]
 8001f32:	9b03      	ldr	r3, [sp, #12]
 8001f34:	e7ef      	b.n	8001f16 <HAL_TIM_Base_MspInit+0x62>
 8001f36:	4a0b      	ldr	r2, [pc, #44]	@ (8001f64 <HAL_TIM_Base_MspInit+0xb0>)
 8001f38:	4293      	cmp	r3, r2
 8001f3a:	d1ec      	bne.n	8001f16 <HAL_TIM_Base_MspInit+0x62>
 8001f3c:	4b06      	ldr	r3, [pc, #24]	@ (8001f58 <HAL_TIM_Base_MspInit+0xa4>)
 8001f3e:	6c1a      	ldr	r2, [r3, #64]	@ 0x40
 8001f40:	f442 7280 	orr.w	r2, r2, #256	@ 0x100
 8001f44:	641a      	str	r2, [r3, #64]	@ 0x40
 8001f46:	6c1b      	ldr	r3, [r3, #64]	@ 0x40
 8001f48:	f403 7380 	and.w	r3, r3, #256	@ 0x100
 8001f4c:	9304      	str	r3, [sp, #16]
 8001f4e:	9b04      	ldr	r3, [sp, #16]
 8001f50:	e7e1      	b.n	8001f16 <HAL_TIM_Base_MspInit+0x62>
 8001f52:	bf00      	nop
 8001f54:	40000400 	.word	0x40000400
 8001f58:	40023800 	.word	0x40023800
 8001f5c:	40020400 	.word	0x40020400
 8001f60:	40001c00 	.word	0x40001c00
 8001f64:	40002000 	.word	0x40002000

08001f68 <HAL_TIM_MspPostInit>:
 8001f68:	b510      	push	{r4, lr}
 8001f6a:	b088      	sub	sp, #32
 8001f6c:	4604      	mov	r4, r0
 8001f6e:	2214      	movs	r2, #20
 8001f70:	2100      	movs	r1, #0
 8001f72:	a803      	add	r0, sp, #12
 8001f74:	f006 fb50 	bl	8008618 <memset>
 8001f78:	6823      	ldr	r3, [r4, #0]
 8001f7a:	4a1e      	ldr	r2, [pc, #120]	@ (8001ff4 <HAL_TIM_MspPostInit+0x8c>)
 8001f7c:	4293      	cmp	r3, r2
 8001f7e:	d114      	bne.n	8001faa <HAL_TIM_MspPostInit+0x42>
 8001f80:	4b1d      	ldr	r3, [pc, #116]	@ (8001ff8 <HAL_TIM_MspPostInit+0x90>)
 8001f82:	2110      	movs	r1, #16
 8001f84:	481d      	ldr	r0, [pc, #116]	@ (8001ffc <HAL_TIM_MspPostInit+0x94>)
 8001f86:	6b1a      	ldr	r2, [r3, #48]	@ 0x30
 8001f88:	f042 0202 	orr.w	r2, r2, #2
 8001f8c:	631a      	str	r2, [r3, #48]	@ 0x30
 8001f8e:	6b1b      	ldr	r3, [r3, #48]	@ 0x30
 8001f90:	f003 0302 	and.w	r3, r3, #2
 8001f94:	9300      	str	r3, [sp, #0]
 8001f96:	9b00      	ldr	r3, [sp, #0]
 8001f98:	2302      	movs	r3, #2
 8001f9a:	e9cd 1303 	strd	r1, r3, [sp, #12]
 8001f9e:	a903      	add	r1, sp, #12
 8001fa0:	9307      	str	r3, [sp, #28]
 8001fa2:	f000 fd7d 	bl	8002aa0 <HAL_GPIO_Init>
 8001fa6:	b008      	add	sp, #32
 8001fa8:	bd10      	pop	{r4, pc}
 8001faa:	4a15      	ldr	r2, [pc, #84]	@ (8002000 <HAL_TIM_MspPostInit+0x98>)
 8001fac:	4293      	cmp	r3, r2
 8001fae:	d112      	bne.n	8001fd6 <HAL_TIM_MspPostInit+0x6e>
 8001fb0:	4b11      	ldr	r3, [pc, #68]	@ (8001ff8 <HAL_TIM_MspPostInit+0x90>)
 8001fb2:	6b1a      	ldr	r2, [r3, #48]	@ 0x30
 8001fb4:	f042 0201 	orr.w	r2, r2, #1
 8001fb8:	631a      	str	r2, [r3, #48]	@ 0x30
 8001fba:	6b1b      	ldr	r3, [r3, #48]	@ 0x30
 8001fbc:	f003 0301 	and.w	r3, r3, #1
 8001fc0:	9301      	str	r3, [sp, #4]
 8001fc2:	9b01      	ldr	r3, [sp, #4]
 8001fc4:	2340      	movs	r3, #64	@ 0x40
 8001fc6:	9303      	str	r3, [sp, #12]
 8001fc8:	2302      	movs	r3, #2
 8001fca:	a903      	add	r1, sp, #12
 8001fcc:	480d      	ldr	r0, [pc, #52]	@ (8002004 <HAL_TIM_MspPostInit+0x9c>)
 8001fce:	9304      	str	r3, [sp, #16]
 8001fd0:	2309      	movs	r3, #9
 8001fd2:	9307      	str	r3, [sp, #28]
 8001fd4:	e7e5      	b.n	8001fa2 <HAL_TIM_MspPostInit+0x3a>
 8001fd6:	4a0c      	ldr	r2, [pc, #48]	@ (8002008 <HAL_TIM_MspPostInit+0xa0>)
 8001fd8:	4293      	cmp	r3, r2
 8001fda:	d1e4      	bne.n	8001fa6 <HAL_TIM_MspPostInit+0x3e>
 8001fdc:	4b06      	ldr	r3, [pc, #24]	@ (8001ff8 <HAL_TIM_MspPostInit+0x90>)
 8001fde:	6b1a      	ldr	r2, [r3, #48]	@ 0x30
 8001fe0:	f042 0201 	orr.w	r2, r2, #1
 8001fe4:	631a      	str	r2, [r3, #48]	@ 0x30
 8001fe6:	6b1b      	ldr	r3, [r3, #48]	@ 0x30
 8001fe8:	f003 0301 	and.w	r3, r3, #1
 8001fec:	9302      	str	r3, [sp, #8]
 8001fee:	9b02      	ldr	r3, [sp, #8]
 8001ff0:	2380      	movs	r3, #128	@ 0x80
 8001ff2:	e7e8      	b.n	8001fc6 <HAL_TIM_MspPostInit+0x5e>
 8001ff4:	40000400 	.word	0x40000400
 8001ff8:	40023800 	.word	0x40023800
 8001ffc:	40020400 	.word	0x40020400
 8002000:	40001c00 	.word	0x40001c00
 8002004:	40020000 	.word	0x40020000
 8002008:	40002000 	.word	0x40002000

0800200c <HAL_SDRAM_MspInit>:
 800200c:	b5f0      	push	{r4, r5, r6, r7, lr}
 800200e:	2300      	movs	r3, #0
 8002010:	b087      	sub	sp, #28
 8002012:	9303      	str	r3, [sp, #12]
 8002014:	4b24      	ldr	r3, [pc, #144]	@ (80020a8 <HAL_SDRAM_MspInit+0x9c>)
 8002016:	681e      	ldr	r6, [r3, #0]
 8002018:	2e00      	cmp	r6, #0
 800201a:	d143      	bne.n	80020a4 <HAL_SDRAM_MspInit+0x98>
 800201c:	2201      	movs	r2, #1
 800201e:	2702      	movs	r7, #2
 8002020:	2503      	movs	r5, #3
 8002022:	240c      	movs	r4, #12
 8002024:	601a      	str	r2, [r3, #0]
 8002026:	a901      	add	r1, sp, #4
 8002028:	4b20      	ldr	r3, [pc, #128]	@ (80020ac <HAL_SDRAM_MspInit+0xa0>)
 800202a:	4821      	ldr	r0, [pc, #132]	@ (80020b0 <HAL_SDRAM_MspInit+0xa4>)
 800202c:	6b9a      	ldr	r2, [r3, #56]	@ 0x38
 800202e:	f042 0201 	orr.w	r2, r2, #1
 8002032:	639a      	str	r2, [r3, #56]	@ 0x38
 8002034:	6b9b      	ldr	r3, [r3, #56]	@ 0x38
 8002036:	f003 0301 	and.w	r3, r3, #1
 800203a:	9300      	str	r3, [sp, #0]
 800203c:	9b00      	ldr	r3, [sp, #0]
 800203e:	f64f 033f 	movw	r3, #63551	@ 0xf83f
 8002042:	e9cd 5404 	strd	r5, r4, [sp, #16]
 8002046:	e9cd 3701 	strd	r3, r7, [sp, #4]
 800204a:	f000 fd29 	bl	8002aa0 <HAL_GPIO_Init>
 800204e:	230d      	movs	r3, #13
 8002050:	a901      	add	r1, sp, #4
 8002052:	4818      	ldr	r0, [pc, #96]	@ (80020b4 <HAL_SDRAM_MspInit+0xa8>)
 8002054:	9405      	str	r4, [sp, #20]
 8002056:	e9cd 3701 	strd	r3, r7, [sp, #4]
 800205a:	e9cd 6503 	strd	r6, r5, [sp, #12]
 800205e:	f000 fd1f 	bl	8002aa0 <HAL_GPIO_Init>
 8002062:	f248 1337 	movw	r3, #33079	@ 0x8137
 8002066:	a901      	add	r1, sp, #4
 8002068:	4813      	ldr	r0, [pc, #76]	@ (80020b8 <HAL_SDRAM_MspInit+0xac>)
 800206a:	9405      	str	r4, [sp, #20]
 800206c:	e9cd 3701 	strd	r3, r7, [sp, #4]
 8002070:	e9cd 6503 	strd	r6, r5, [sp, #12]
 8002074:	f000 fd14 	bl	8002aa0 <HAL_GPIO_Init>
 8002078:	f64f 7383 	movw	r3, #65411	@ 0xff83
 800207c:	a901      	add	r1, sp, #4
 800207e:	480f      	ldr	r0, [pc, #60]	@ (80020bc <HAL_SDRAM_MspInit+0xb0>)
 8002080:	9405      	str	r4, [sp, #20]
 8002082:	e9cd 3701 	strd	r3, r7, [sp, #4]
 8002086:	e9cd 6503 	strd	r6, r5, [sp, #12]
 800208a:	f000 fd09 	bl	8002aa0 <HAL_GPIO_Init>
 800208e:	f24c 7303 	movw	r3, #50947	@ 0xc703
 8002092:	a901      	add	r1, sp, #4
 8002094:	480a      	ldr	r0, [pc, #40]	@ (80020c0 <HAL_SDRAM_MspInit+0xb4>)
 8002096:	9405      	str	r4, [sp, #20]
 8002098:	e9cd 3701 	strd	r3, r7, [sp, #4]
 800209c:	e9cd 6503 	strd	r6, r5, [sp, #12]
 80020a0:	f000 fcfe 	bl	8002aa0 <HAL_GPIO_Init>
 80020a4:	b007      	add	sp, #28
 80020a6:	bdf0      	pop	{r4, r5, r6, r7, pc}
 80020a8:	20000904 	.word	0x20000904
 80020ac:	40023800 	.word	0x40023800
 80020b0:	40021400 	.word	0x40021400
 80020b4:	40020800 	.word	0x40020800
 80020b8:	40021800 	.word	0x40021800
 80020bc:	40021000 	.word	0x40021000
 80020c0:	40020c00 	.word	0x40020c00

080020c4 <NMI_Handler>:
 80020c4:	e7fe      	b.n	80020c4 <NMI_Handler>

080020c6 <HardFault_Handler>:
 80020c6:	e7fe      	b.n	80020c6 <HardFault_Handler>

080020c8 <MemManage_Handler>:
 80020c8:	e7fe      	b.n	80020c8 <MemManage_Handler>

080020ca <BusFault_Handler>:
 80020ca:	e7fe      	b.n	80020ca <BusFault_Handler>

080020cc <UsageFault_Handler>:
 80020cc:	e7fe      	b.n	80020cc <UsageFault_Handler>

080020ce <SVC_Handler>:
 80020ce:	4770      	bx	lr

080020d0 <DebugMon_Handler>:
 80020d0:	4770      	bx	lr

080020d2 <PendSV_Handler>:
 80020d2:	4770      	bx	lr

080020d4 <SysTick_Handler>:
 80020d4:	f000 b986 	b.w	80023e4 <HAL_IncTick>

080020d8 <TIM3_IRQHandler>:
 80020d8:	b510      	push	{r4, lr}
 80020da:	4c10      	ldr	r4, [pc, #64]	@ (800211c <TIM3_IRQHandler+0x44>)
 80020dc:	6823      	ldr	r3, [r4, #0]
 80020de:	691a      	ldr	r2, [r3, #16]
 80020e0:	0751      	lsls	r1, r2, #29
 80020e2:	d507      	bpl.n	80020f4 <TIM3_IRQHandler+0x1c>
 80020e4:	68da      	ldr	r2, [r3, #12]
 80020e6:	0752      	lsls	r2, r2, #29
 80020e8:	d504      	bpl.n	80020f4 <TIM3_IRQHandler+0x1c>
 80020ea:	f06f 0204 	mvn.w	r2, #4
 80020ee:	611a      	str	r2, [r3, #16]
 80020f0:	f7fe fcec 	bl	8000acc <ACQ_OnBusyFallingISR>
 80020f4:	6823      	ldr	r3, [r4, #0]
 80020f6:	691a      	ldr	r2, [r3, #16]
 80020f8:	0710      	lsls	r0, r2, #28
 80020fa:	d507      	bpl.n	800210c <TIM3_IRQHandler+0x34>
 80020fc:	68da      	ldr	r2, [r3, #12]
 80020fe:	0711      	lsls	r1, r2, #28
 8002100:	d504      	bpl.n	800210c <TIM3_IRQHandler+0x34>
 8002102:	f06f 0208 	mvn.w	r2, #8
 8002106:	611a      	str	r2, [r3, #16]
 8002108:	f7fe fbf6 	bl	80008f8 <ACQ_OnTriggerEdge>
 800210c:	6823      	ldr	r3, [r4, #0]
 800210e:	691a      	ldr	r2, [r3, #16]
 8002110:	07d2      	lsls	r2, r2, #31
 8002112:	d502      	bpl.n	800211a <TIM3_IRQHandler+0x42>
 8002114:	f06f 0201 	mvn.w	r2, #1
 8002118:	611a      	str	r2, [r3, #16]
 800211a:	bd10      	pop	{r4, pc}
 800211c:	200007a0 	.word	0x200007a0

08002120 <OTG_HS_IRQHandler>:
 8002120:	4801      	ldr	r0, [pc, #4]	@ (8002128 <OTG_HS_IRQHandler+0x8>)
 8002122:	f001 bc87 	b.w	8003a34 <HAL_PCD_IRQHandler>
 8002126:	bf00      	nop
 8002128:	20001ebc 	.word	0x20001ebc

0800212c <SPI5_IRQHandler>:
 800212c:	4801      	ldr	r0, [pc, #4]	@ (8002134 <SPI5_IRQHandler+0x8>)
 800212e:	f002 be9b 	b.w	8004e68 <HAL_SPI_IRQHandler>
 8002132:	bf00      	nop
 8002134:	200007ec 	.word	0x200007ec

08002138 <_sbrk>:
 8002138:	4a0b      	ldr	r2, [pc, #44]	@ (8002168 <_sbrk+0x30>)
 800213a:	4603      	mov	r3, r0
 800213c:	6811      	ldr	r1, [r2, #0]
 800213e:	b510      	push	{r4, lr}
 8002140:	b909      	cbnz	r1, 8002146 <_sbrk+0xe>
 8002142:	490a      	ldr	r1, [pc, #40]	@ (800216c <_sbrk+0x34>)
 8002144:	6011      	str	r1, [r2, #0]
 8002146:	6810      	ldr	r0, [r2, #0]
 8002148:	4909      	ldr	r1, [pc, #36]	@ (8002170 <_sbrk+0x38>)
 800214a:	4c0a      	ldr	r4, [pc, #40]	@ (8002174 <_sbrk+0x3c>)
 800214c:	4403      	add	r3, r0
 800214e:	1b09      	subs	r1, r1, r4
 8002150:	428b      	cmp	r3, r1
 8002152:	d906      	bls.n	8002162 <_sbrk+0x2a>
 8002154:	f006 fa8a 	bl	800866c <__errno>
 8002158:	230c      	movs	r3, #12
 800215a:	6003      	str	r3, [r0, #0]
 800215c:	f04f 30ff 	mov.w	r0, #4294967295	@ 0xffffffff
 8002160:	bd10      	pop	{r4, pc}
 8002162:	6013      	str	r3, [r2, #0]
 8002164:	e7fc      	b.n	8002160 <_sbrk+0x28>
 8002166:	bf00      	nop
 8002168:	20000908 	.word	0x20000908
 800216c:	200024e8 	.word	0x200024e8
 8002170:	20040000 	.word	0x20040000
 8002174:	00000400 	.word	0x00000400

08002178 <SystemInit>:
 8002178:	4a03      	ldr	r2, [pc, #12]	@ (8002188 <SystemInit+0x10>)
 800217a:	f8d2 3088 	ldr.w	r3, [r2, #136]	@ 0x88
 800217e:	f443 0370 	orr.w	r3, r3, #15728640	@ 0xf00000
 8002182:	f8c2 3088 	str.w	r3, [r2, #136]	@ 0x88
 8002186:	4770      	bx	lr
 8002188:	e000ed00 	.word	0xe000ed00

0800218c <TIM3_GetFreqHz>:
 800218c:	b508      	push	{r3, lr}
 800218e:	f002 fb67 	bl	8004860 <HAL_RCC_GetPCLK1Freq>
 8002192:	4b0b      	ldr	r3, [pc, #44]	@ (80021c0 <TIM3_GetFreqHz+0x34>)
 8002194:	689b      	ldr	r3, [r3, #8]
 8002196:	f413 5fe0 	tst.w	r3, #7168	@ 0x1c00
 800219a:	4b0a      	ldr	r3, [pc, #40]	@ (80021c4 <TIM3_GetFreqHz+0x38>)
 800219c:	681b      	ldr	r3, [r3, #0]
 800219e:	bf18      	it	ne
 80021a0:	0040      	lslne	r0, r0, #1
 80021a2:	6a9a      	ldr	r2, [r3, #40]	@ 0x28
 80021a4:	6adb      	ldr	r3, [r3, #44]	@ 0x2c
 80021a6:	1c51      	adds	r1, r2, #1
 80021a8:	d007      	beq.n	80021ba <TIM3_GetFreqHz+0x2e>
 80021aa:	1c59      	adds	r1, r3, #1
 80021ac:	d005      	beq.n	80021ba <TIM3_GetFreqHz+0x2e>
 80021ae:	3301      	adds	r3, #1
 80021b0:	fb02 3303 	mla	r3, r2, r3, r3
 80021b4:	fbb0 f0f3 	udiv	r0, r0, r3
 80021b8:	bd08      	pop	{r3, pc}
 80021ba:	2000      	movs	r0, #0
 80021bc:	e7fc      	b.n	80021b8 <TIM3_GetFreqHz+0x2c>
 80021be:	bf00      	nop
 80021c0:	40023800 	.word	0x40023800
 80021c4:	200007a0 	.word	0x200007a0

080021c8 <TIM3_SetFreqHz>:
 80021c8:	b570      	push	{r4, r5, r6, lr}
 80021ca:	4604      	mov	r4, r0
 80021cc:	f002 fb48 	bl	8004860 <HAL_RCC_GetPCLK1Freq>
 80021d0:	4b2e      	ldr	r3, [pc, #184]	@ (800228c <TIM3_SetFreqHz+0xc4>)
 80021d2:	689b      	ldr	r3, [r3, #8]
 80021d4:	f413 5fe0 	tst.w	r3, #7168	@ 0x1c00
 80021d8:	bf18      	it	ne
 80021da:	0040      	lslne	r0, r0, #1
 80021dc:	2800      	cmp	r0, #0
 80021de:	d052      	beq.n	8002286 <TIM3_SetFreqHz+0xbe>
 80021e0:	4b2b      	ldr	r3, [pc, #172]	@ (8002290 <TIM3_SetFreqHz+0xc8>)
 80021e2:	f64f 72ff 	movw	r2, #65535	@ 0xffff
 80021e6:	2100      	movs	r1, #0
 80021e8:	42a3      	cmp	r3, r4
 80021ea:	bf28      	it	cs
 80021ec:	4623      	movcs	r3, r4
 80021ee:	2b0a      	cmp	r3, #10
 80021f0:	bf38      	it	cc
 80021f2:	230a      	movcc	r3, #10
 80021f4:	fbb0 f0f3 	udiv	r0, r0, r3
 80021f8:	2802      	cmp	r0, #2
 80021fa:	bf38      	it	cc
 80021fc:	2002      	movcc	r0, #2
 80021fe:	1882      	adds	r2, r0, r2
 8002200:	eb41 0301 	adc.w	r3, r1, r1
 8002204:	0c12      	lsrs	r2, r2, #16
 8002206:	3801      	subs	r0, #1
 8002208:	ea42 4203 	orr.w	r2, r2, r3, lsl #16
 800220c:	f04f 0300 	mov.w	r3, #0
 8002210:	f141 31ff 	adc.w	r1, r1, #4294967295	@ 0xffffffff
 8002214:	1880      	adds	r0, r0, r2
 8002216:	f102 34ff 	add.w	r4, r2, #4294967295	@ 0xffffffff
 800221a:	f141 0100 	adc.w	r1, r1, #0
 800221e:	f7fe f867 	bl	80002f0 <__aeabi_uldivmod>
 8002222:	4b1c      	ldr	r3, [pc, #112]	@ (8002294 <TIM3_SetFreqHz+0xcc>)
 8002224:	f5b0 3f80 	cmp.w	r0, #65536	@ 0x10000
 8002228:	4601      	mov	r1, r0
 800222a:	681b      	ldr	r3, [r3, #0]
 800222c:	bf28      	it	cs
 800222e:	f44f 3180 	movcs.w	r1, #65536	@ 0x10000
 8002232:	6a1a      	ldr	r2, [r3, #32]
 8002234:	2901      	cmp	r1, #1
 8002236:	f002 3211 	and.w	r2, r2, #286331153	@ 0x11111111
 800223a:	bf38      	it	cc
 800223c:	2101      	movcc	r1, #1
 800223e:	f022 5288 	bic.w	r2, r2, #285212672	@ 0x11000000
 8002242:	1e4d      	subs	r5, r1, #1
 8002244:	b942      	cbnz	r2, 8002258 <TIM3_SetFreqHz+0x90>
 8002246:	6a1e      	ldr	r6, [r3, #32]
 8002248:	f240 4244 	movw	r2, #1092	@ 0x444
 800224c:	4216      	tst	r6, r2
 800224e:	d103      	bne.n	8002258 <TIM3_SetFreqHz+0x90>
 8002250:	681a      	ldr	r2, [r3, #0]
 8002252:	f022 0201 	bic.w	r2, r2, #1
 8002256:	601a      	str	r2, [r3, #0]
 8002258:	2200      	movs	r2, #0
 800225a:	629c      	str	r4, [r3, #40]	@ 0x28
 800225c:	2809      	cmp	r0, #9
 800225e:	62dd      	str	r5, [r3, #44]	@ 0x2c
 8002260:	625a      	str	r2, [r3, #36]	@ 0x24
 8002262:	f04f 0201 	mov.w	r2, #1
 8002266:	f04f 0000 	mov.w	r0, #0
 800226a:	615a      	str	r2, [r3, #20]
 800226c:	bf84      	itt	hi
 800226e:	220a      	movhi	r2, #10
 8002270:	fbb1 f2f2 	udivhi	r2, r1, r2
 8002274:	42aa      	cmp	r2, r5
 8002276:	bf28      	it	cs
 8002278:	462a      	movcs	r2, r5
 800227a:	635a      	str	r2, [r3, #52]	@ 0x34
 800227c:	681a      	ldr	r2, [r3, #0]
 800227e:	f042 0201 	orr.w	r2, r2, #1
 8002282:	601a      	str	r2, [r3, #0]
 8002284:	bd70      	pop	{r4, r5, r6, pc}
 8002286:	2001      	movs	r0, #1
 8002288:	e7fc      	b.n	8002284 <TIM3_SetFreqHz+0xbc>
 800228a:	bf00      	nop
 800228c:	40023800 	.word	0x40023800
 8002290:	00030d40 	.word	0x00030d40
 8002294:	200007a0 	.word	0x200007a0

08002298 <TIM3_StartConvstPWM>:
 8002298:	2100      	movs	r1, #0
 800229a:	4801      	ldr	r0, [pc, #4]	@ (80022a0 <TIM3_StartConvstPWM+0x8>)
 800229c:	f003 bad0 	b.w	8005840 <HAL_TIM_PWM_Start>
 80022a0:	200007a0 	.word	0x200007a0

080022a4 <TIM3_StopConvstPWM>:
 80022a4:	2100      	movs	r1, #0
 80022a6:	4801      	ldr	r0, [pc, #4]	@ (80022ac <TIM3_StopConvstPWM+0x8>)
 80022a8:	f003 bb1a 	b.w	80058e0 <HAL_TIM_PWM_Stop>
 80022ac:	200007a0 	.word	0x200007a0

080022b0 <USB_TransferTask>:
 80022b0:	b5f8      	push	{r3, r4, r5, r6, r7, lr}
 80022b2:	f7ff fceb 	bl	8001c8c <SM_GetState>
 80022b6:	2805      	cmp	r0, #5
 80022b8:	d12f      	bne.n	800231a <USB_TransferTask+0x6a>
 80022ba:	4f1a      	ldr	r7, [pc, #104]	@ (8002324 <USB_TransferTask+0x74>)
 80022bc:	683c      	ldr	r4, [r7, #0]
 80022be:	b934      	cbnz	r4, 80022ce <USB_TransferTask+0x1e>
 80022c0:	2004      	movs	r0, #4
 80022c2:	f7ff fcdd 	bl	8001c80 <SM_SetState>
 80022c6:	e8bd 40f8 	ldmia.w	sp!, {r3, r4, r5, r6, r7, lr}
 80022ca:	f7ff b8db 	b.w	8001484 <LED2_BlinkStop>
 80022ce:	f5b4 7f00 	cmp.w	r4, #512	@ 0x200
 80022d2:	4e15      	ldr	r6, [pc, #84]	@ (8002328 <USB_TransferTask+0x78>)
 80022d4:	4625      	mov	r5, r4
 80022d6:	6833      	ldr	r3, [r6, #0]
 80022d8:	bf28      	it	cs
 80022da:	f44f 7500 	movcs.w	r5, #512	@ 0x200
 80022de:	f023 021f 	bic.w	r2, r3, #31
 80022e2:	442b      	add	r3, r5
 80022e4:	b2a9      	uxth	r1, r5
 80022e6:	331f      	adds	r3, #31
 80022e8:	1a9b      	subs	r3, r3, r2
 80022ea:	f023 031f 	bic.w	r3, r3, #31
 80022ee:	f3bf 8f4f 	dsb	sy
 80022f2:	f8df c038 	ldr.w	ip, [pc, #56]	@ 800232c <USB_TransferTask+0x7c>
 80022f6:	441a      	add	r2, r3
 80022f8:	2b00      	cmp	r3, #0
 80022fa:	eba2 0003 	sub.w	r0, r2, r3
 80022fe:	dc0d      	bgt.n	800231c <USB_TransferTask+0x6c>
 8002300:	f3bf 8f4f 	dsb	sy
 8002304:	f3bf 8f6f 	isb	sy
 8002308:	6830      	ldr	r0, [r6, #0]
 800230a:	f005 f947 	bl	800759c <CDC_Transmit_HS>
 800230e:	b920      	cbnz	r0, 800231a <USB_TransferTask+0x6a>
 8002310:	6833      	ldr	r3, [r6, #0]
 8002312:	1b64      	subs	r4, r4, r5
 8002314:	442b      	add	r3, r5
 8002316:	603c      	str	r4, [r7, #0]
 8002318:	6033      	str	r3, [r6, #0]
 800231a:	bdf8      	pop	{r3, r4, r5, r6, r7, pc}
 800231c:	3b20      	subs	r3, #32
 800231e:	f8cc 0268 	str.w	r0, [ip, #616]	@ 0x268
 8002322:	e7e9      	b.n	80022f8 <USB_TransferTask+0x48>
 8002324:	2000090c 	.word	0x2000090c
 8002328:	20000910 	.word	0x20000910
 800232c:	e000ed00 	.word	0xe000ed00

08002330 <Reset_Handler>:
 8002330:	f8df d034 	ldr.w	sp, [pc, #52]	@ 8002368 <LoopFillZerobss+0xe>
 8002334:	f7ff ff20 	bl	8002178 <SystemInit>
 8002338:	480c      	ldr	r0, [pc, #48]	@ (800236c <LoopFillZerobss+0x12>)
 800233a:	490d      	ldr	r1, [pc, #52]	@ (8002370 <LoopFillZerobss+0x16>)
 800233c:	4a0d      	ldr	r2, [pc, #52]	@ (8002374 <LoopFillZerobss+0x1a>)
 800233e:	2300      	movs	r3, #0
 8002340:	e002      	b.n	8002348 <LoopCopyDataInit>

08002342 <CopyDataInit>:
 8002342:	58d4      	ldr	r4, [r2, r3]
 8002344:	50c4      	str	r4, [r0, r3]
 8002346:	3304      	adds	r3, #4

08002348 <LoopCopyDataInit>:
 8002348:	18c4      	adds	r4, r0, r3
 800234a:	428c      	cmp	r4, r1
 800234c:	d3f9      	bcc.n	8002342 <CopyDataInit>
 800234e:	4a0a      	ldr	r2, [pc, #40]	@ (8002378 <LoopFillZerobss+0x1e>)
 8002350:	4c0a      	ldr	r4, [pc, #40]	@ (800237c <LoopFillZerobss+0x22>)
 8002352:	2300      	movs	r3, #0
 8002354:	e001      	b.n	800235a <LoopFillZerobss>

08002356 <FillZerobss>:
 8002356:	6013      	str	r3, [r2, #0]
 8002358:	3204      	adds	r2, #4

0800235a <LoopFillZerobss>:
 800235a:	42a2      	cmp	r2, r4
 800235c:	d3fb      	bcc.n	8002356 <FillZerobss>
 800235e:	f006 f98b 	bl	8008678 <__libc_init_array>
 8002362:	f7ff f975 	bl	8001650 <main>
 8002366:	4770      	bx	lr
 8002368:	20040000 	.word	0x20040000
 800236c:	20000000 	.word	0x20000000
 8002370:	20000178 	.word	0x20000178
 8002374:	08009ccc 	.word	0x08009ccc
 8002378:	20000178 	.word	0x20000178
 800237c:	200024e4 	.word	0x200024e4

08002380 <ADC_IRQHandler>:
 8002380:	e7fe      	b.n	8002380 <ADC_IRQHandler>
	...

08002384 <HAL_InitTick>:
 8002384:	b538      	push	{r3, r4, r5, lr}
 8002386:	4b0e      	ldr	r3, [pc, #56]	@ (80023c0 <HAL_InitTick+0x3c>)
 8002388:	4605      	mov	r5, r0
 800238a:	781a      	ldrb	r2, [r3, #0]
 800238c:	f44f 737a 	mov.w	r3, #1000	@ 0x3e8
 8002390:	fbb3 f3f2 	udiv	r3, r3, r2
 8002394:	4a0b      	ldr	r2, [pc, #44]	@ (80023c4 <HAL_InitTick+0x40>)
 8002396:	6810      	ldr	r0, [r2, #0]
 8002398:	fbb0 f0f3 	udiv	r0, r0, r3
 800239c:	f000 fad6 	bl	800294c <HAL_SYSTICK_Config>
 80023a0:	4604      	mov	r4, r0
 80023a2:	b958      	cbnz	r0, 80023bc <HAL_InitTick+0x38>
 80023a4:	2d0f      	cmp	r5, #15
 80023a6:	d809      	bhi.n	80023bc <HAL_InitTick+0x38>
 80023a8:	4602      	mov	r2, r0
 80023aa:	4629      	mov	r1, r5
 80023ac:	f04f 30ff 	mov.w	r0, #4294967295	@ 0xffffffff
 80023b0:	f000 fa8c 	bl	80028cc <HAL_NVIC_SetPriority>
 80023b4:	4b04      	ldr	r3, [pc, #16]	@ (80023c8 <HAL_InitTick+0x44>)
 80023b6:	4620      	mov	r0, r4
 80023b8:	601d      	str	r5, [r3, #0]
 80023ba:	bd38      	pop	{r3, r4, r5, pc}
 80023bc:	2001      	movs	r0, #1
 80023be:	e7fc      	b.n	80023ba <HAL_InitTick+0x36>
 80023c0:	20000024 	.word	0x20000024
 80023c4:	20000020 	.word	0x20000020
 80023c8:	20000028 	.word	0x20000028

080023cc <HAL_Init>:
 80023cc:	b508      	push	{r3, lr}
 80023ce:	2003      	movs	r0, #3
 80023d0:	f000 fa6a 	bl	80028a8 <HAL_NVIC_SetPriorityGrouping>
 80023d4:	200f      	movs	r0, #15
 80023d6:	f7ff ffd5 	bl	8002384 <HAL_InitTick>
 80023da:	f7ff fc5d 	bl	8001c98 <HAL_MspInit>
 80023de:	2000      	movs	r0, #0
 80023e0:	bd08      	pop	{r3, pc}
	...

080023e4 <HAL_IncTick>:
 80023e4:	4a03      	ldr	r2, [pc, #12]	@ (80023f4 <HAL_IncTick+0x10>)
 80023e6:	4b04      	ldr	r3, [pc, #16]	@ (80023f8 <HAL_IncTick+0x14>)
 80023e8:	6811      	ldr	r1, [r2, #0]
 80023ea:	781b      	ldrb	r3, [r3, #0]
 80023ec:	440b      	add	r3, r1
 80023ee:	6013      	str	r3, [r2, #0]
 80023f0:	4770      	bx	lr
 80023f2:	bf00      	nop
 80023f4:	20000914 	.word	0x20000914
 80023f8:	20000024 	.word	0x20000024

080023fc <HAL_GetTick>:
 80023fc:	4b01      	ldr	r3, [pc, #4]	@ (8002404 <HAL_GetTick+0x8>)
 80023fe:	6818      	ldr	r0, [r3, #0]
 8002400:	4770      	bx	lr
 8002402:	bf00      	nop
 8002404:	20000914 	.word	0x20000914

08002408 <HAL_Delay>:
 8002408:	b538      	push	{r3, r4, r5, lr}
 800240a:	4604      	mov	r4, r0
 800240c:	f7ff fff6 	bl	80023fc <HAL_GetTick>
 8002410:	4605      	mov	r5, r0
 8002412:	1c63      	adds	r3, r4, #1
 8002414:	bf1e      	ittt	ne
 8002416:	4b04      	ldrne	r3, [pc, #16]	@ (8002428 <HAL_Delay+0x20>)
 8002418:	781b      	ldrbne	r3, [r3, #0]
 800241a:	18e4      	addne	r4, r4, r3
 800241c:	f7ff ffee 	bl	80023fc <HAL_GetTick>
 8002420:	1b43      	subs	r3, r0, r5
 8002422:	42a3      	cmp	r3, r4
 8002424:	d3fa      	bcc.n	800241c <HAL_Delay+0x14>
 8002426:	bd38      	pop	{r3, r4, r5, pc}
 8002428:	20000024 	.word	0x20000024

0800242c <HAL_ADC_Init>:
 800242c:	b538      	push	{r3, r4, r5, lr}
 800242e:	4604      	mov	r4, r0
 8002430:	2800      	cmp	r0, #0
 8002432:	f000 809b 	beq.w	800256c <HAL_ADC_Init+0x140>
 8002436:	6c05      	ldr	r5, [r0, #64]	@ 0x40
 8002438:	b925      	cbnz	r5, 8002444 <HAL_ADC_Init+0x18>
 800243a:	f7ff fc45 	bl	8001cc8 <HAL_ADC_MspInit>
 800243e:	6465      	str	r5, [r4, #68]	@ 0x44
 8002440:	f884 503c 	strb.w	r5, [r4, #60]	@ 0x3c
 8002444:	6c23      	ldr	r3, [r4, #64]	@ 0x40
 8002446:	06db      	lsls	r3, r3, #27
 8002448:	f100 808e 	bmi.w	8002568 <HAL_ADC_Init+0x13c>
 800244c:	6c23      	ldr	r3, [r4, #64]	@ 0x40
 800244e:	f423 5388 	bic.w	r3, r3, #4352	@ 0x1100
 8002452:	f023 0302 	bic.w	r3, r3, #2
 8002456:	f043 0302 	orr.w	r3, r3, #2
 800245a:	6423      	str	r3, [r4, #64]	@ 0x40
 800245c:	4b44      	ldr	r3, [pc, #272]	@ (8002570 <HAL_ADC_Init+0x144>)
 800245e:	685a      	ldr	r2, [r3, #4]
 8002460:	f422 3240 	bic.w	r2, r2, #196608	@ 0x30000
 8002464:	605a      	str	r2, [r3, #4]
 8002466:	685a      	ldr	r2, [r3, #4]
 8002468:	6861      	ldr	r1, [r4, #4]
 800246a:	430a      	orrs	r2, r1
 800246c:	605a      	str	r2, [r3, #4]
 800246e:	6823      	ldr	r3, [r4, #0]
 8002470:	6921      	ldr	r1, [r4, #16]
 8002472:	685a      	ldr	r2, [r3, #4]
 8002474:	f422 7280 	bic.w	r2, r2, #256	@ 0x100
 8002478:	605a      	str	r2, [r3, #4]
 800247a:	685a      	ldr	r2, [r3, #4]
 800247c:	ea42 2201 	orr.w	r2, r2, r1, lsl #8
 8002480:	68a1      	ldr	r1, [r4, #8]
 8002482:	605a      	str	r2, [r3, #4]
 8002484:	685a      	ldr	r2, [r3, #4]
 8002486:	f022 7240 	bic.w	r2, r2, #50331648	@ 0x3000000
 800248a:	605a      	str	r2, [r3, #4]
 800248c:	685a      	ldr	r2, [r3, #4]
 800248e:	430a      	orrs	r2, r1
 8002490:	68e1      	ldr	r1, [r4, #12]
 8002492:	605a      	str	r2, [r3, #4]
 8002494:	689a      	ldr	r2, [r3, #8]
 8002496:	f422 6200 	bic.w	r2, r2, #2048	@ 0x800
 800249a:	609a      	str	r2, [r3, #8]
 800249c:	689a      	ldr	r2, [r3, #8]
 800249e:	430a      	orrs	r2, r1
 80024a0:	4934      	ldr	r1, [pc, #208]	@ (8002574 <HAL_ADC_Init+0x148>)
 80024a2:	609a      	str	r2, [r3, #8]
 80024a4:	6aa2      	ldr	r2, [r4, #40]	@ 0x28
 80024a6:	428a      	cmp	r2, r1
 80024a8:	d052      	beq.n	8002550 <HAL_ADC_Init+0x124>
 80024aa:	6899      	ldr	r1, [r3, #8]
 80024ac:	f021 6170 	bic.w	r1, r1, #251658240	@ 0xf000000
 80024b0:	6099      	str	r1, [r3, #8]
 80024b2:	6899      	ldr	r1, [r3, #8]
 80024b4:	430a      	orrs	r2, r1
 80024b6:	6ae1      	ldr	r1, [r4, #44]	@ 0x2c
 80024b8:	609a      	str	r2, [r3, #8]
 80024ba:	689a      	ldr	r2, [r3, #8]
 80024bc:	f022 5240 	bic.w	r2, r2, #805306368	@ 0x30000000
 80024c0:	609a      	str	r2, [r3, #8]
 80024c2:	689a      	ldr	r2, [r3, #8]
 80024c4:	430a      	orrs	r2, r1
 80024c6:	609a      	str	r2, [r3, #8]
 80024c8:	689a      	ldr	r2, [r3, #8]
 80024ca:	69a1      	ldr	r1, [r4, #24]
 80024cc:	f022 0202 	bic.w	r2, r2, #2
 80024d0:	609a      	str	r2, [r3, #8]
 80024d2:	689a      	ldr	r2, [r3, #8]
 80024d4:	ea42 0241 	orr.w	r2, r2, r1, lsl #1
 80024d8:	609a      	str	r2, [r3, #8]
 80024da:	f894 2020 	ldrb.w	r2, [r4, #32]
 80024de:	2a00      	cmp	r2, #0
 80024e0:	d03e      	beq.n	8002560 <HAL_ADC_Init+0x134>
 80024e2:	685a      	ldr	r2, [r3, #4]
 80024e4:	6a61      	ldr	r1, [r4, #36]	@ 0x24
 80024e6:	f442 6200 	orr.w	r2, r2, #2048	@ 0x800
 80024ea:	3901      	subs	r1, #1
 80024ec:	605a      	str	r2, [r3, #4]
 80024ee:	685a      	ldr	r2, [r3, #4]
 80024f0:	f422 4260 	bic.w	r2, r2, #57344	@ 0xe000
 80024f4:	605a      	str	r2, [r3, #4]
 80024f6:	685a      	ldr	r2, [r3, #4]
 80024f8:	ea42 3241 	orr.w	r2, r2, r1, lsl #13
 80024fc:	605a      	str	r2, [r3, #4]
 80024fe:	2000      	movs	r0, #0
 8002500:	6ada      	ldr	r2, [r3, #44]	@ 0x2c
 8002502:	69e1      	ldr	r1, [r4, #28]
 8002504:	f422 0270 	bic.w	r2, r2, #15728640	@ 0xf00000
 8002508:	3901      	subs	r1, #1
 800250a:	62da      	str	r2, [r3, #44]	@ 0x2c
 800250c:	6ada      	ldr	r2, [r3, #44]	@ 0x2c
 800250e:	ea42 5201 	orr.w	r2, r2, r1, lsl #20
 8002512:	62da      	str	r2, [r3, #44]	@ 0x2c
 8002514:	689a      	ldr	r2, [r3, #8]
 8002516:	f422 7200 	bic.w	r2, r2, #512	@ 0x200
 800251a:	609a      	str	r2, [r3, #8]
 800251c:	689a      	ldr	r2, [r3, #8]
 800251e:	f894 1030 	ldrb.w	r1, [r4, #48]	@ 0x30
 8002522:	ea42 2241 	orr.w	r2, r2, r1, lsl #9
 8002526:	6961      	ldr	r1, [r4, #20]
 8002528:	609a      	str	r2, [r3, #8]
 800252a:	689a      	ldr	r2, [r3, #8]
 800252c:	f422 6280 	bic.w	r2, r2, #1024	@ 0x400
 8002530:	609a      	str	r2, [r3, #8]
 8002532:	689a      	ldr	r2, [r3, #8]
 8002534:	ea42 2281 	orr.w	r2, r2, r1, lsl #10
 8002538:	609a      	str	r2, [r3, #8]
 800253a:	6460      	str	r0, [r4, #68]	@ 0x44
 800253c:	6c23      	ldr	r3, [r4, #64]	@ 0x40
 800253e:	f023 0303 	bic.w	r3, r3, #3
 8002542:	f043 0301 	orr.w	r3, r3, #1
 8002546:	6423      	str	r3, [r4, #64]	@ 0x40
 8002548:	2300      	movs	r3, #0
 800254a:	f884 303c 	strb.w	r3, [r4, #60]	@ 0x3c
 800254e:	bd38      	pop	{r3, r4, r5, pc}
 8002550:	689a      	ldr	r2, [r3, #8]
 8002552:	f022 6270 	bic.w	r2, r2, #251658240	@ 0xf000000
 8002556:	609a      	str	r2, [r3, #8]
 8002558:	689a      	ldr	r2, [r3, #8]
 800255a:	f022 5240 	bic.w	r2, r2, #805306368	@ 0x30000000
 800255e:	e7b2      	b.n	80024c6 <HAL_ADC_Init+0x9a>
 8002560:	685a      	ldr	r2, [r3, #4]
 8002562:	f422 6200 	bic.w	r2, r2, #2048	@ 0x800
 8002566:	e7c9      	b.n	80024fc <HAL_ADC_Init+0xd0>
 8002568:	2001      	movs	r0, #1
 800256a:	e7ed      	b.n	8002548 <HAL_ADC_Init+0x11c>
 800256c:	2001      	movs	r0, #1
 800256e:	e7ee      	b.n	800254e <HAL_ADC_Init+0x122>
 8002570:	40012300 	.word	0x40012300
 8002574:	0f000001 	.word	0x0f000001

08002578 <HAL_ADC_Start>:
 8002578:	2300      	movs	r3, #0
 800257a:	b082      	sub	sp, #8
 800257c:	9301      	str	r3, [sp, #4]
 800257e:	f890 303c 	ldrb.w	r3, [r0, #60]	@ 0x3c
 8002582:	2b01      	cmp	r3, #1
 8002584:	d064      	beq.n	8002650 <HAL_ADC_Start+0xd8>
 8002586:	2301      	movs	r3, #1
 8002588:	f880 303c 	strb.w	r3, [r0, #60]	@ 0x3c
 800258c:	6803      	ldr	r3, [r0, #0]
 800258e:	689a      	ldr	r2, [r3, #8]
 8002590:	07d2      	lsls	r2, r2, #31
 8002592:	d50b      	bpl.n	80025ac <HAL_ADC_Start+0x34>
 8002594:	689a      	ldr	r2, [r3, #8]
 8002596:	07d1      	lsls	r1, r2, #31
 8002598:	d41a      	bmi.n	80025d0 <HAL_ADC_Start+0x58>
 800259a:	6c03      	ldr	r3, [r0, #64]	@ 0x40
 800259c:	f043 0310 	orr.w	r3, r3, #16
 80025a0:	6403      	str	r3, [r0, #64]	@ 0x40
 80025a2:	6c43      	ldr	r3, [r0, #68]	@ 0x44
 80025a4:	f043 0301 	orr.w	r3, r3, #1
 80025a8:	6443      	str	r3, [r0, #68]	@ 0x44
 80025aa:	e04e      	b.n	800264a <HAL_ADC_Start+0xd2>
 80025ac:	689a      	ldr	r2, [r3, #8]
 80025ae:	4929      	ldr	r1, [pc, #164]	@ (8002654 <HAL_ADC_Start+0xdc>)
 80025b0:	f042 0201 	orr.w	r2, r2, #1
 80025b4:	609a      	str	r2, [r3, #8]
 80025b6:	4a28      	ldr	r2, [pc, #160]	@ (8002658 <HAL_ADC_Start+0xe0>)
 80025b8:	6812      	ldr	r2, [r2, #0]
 80025ba:	fbb2 f2f1 	udiv	r2, r2, r1
 80025be:	eb02 0242 	add.w	r2, r2, r2, lsl #1
 80025c2:	9201      	str	r2, [sp, #4]
 80025c4:	9a01      	ldr	r2, [sp, #4]
 80025c6:	2a00      	cmp	r2, #0
 80025c8:	d0e4      	beq.n	8002594 <HAL_ADC_Start+0x1c>
 80025ca:	9a01      	ldr	r2, [sp, #4]
 80025cc:	3a01      	subs	r2, #1
 80025ce:	e7f8      	b.n	80025c2 <HAL_ADC_Start+0x4a>
 80025d0:	6c02      	ldr	r2, [r0, #64]	@ 0x40
 80025d2:	f422 62e0 	bic.w	r2, r2, #1792	@ 0x700
 80025d6:	f022 0201 	bic.w	r2, r2, #1
 80025da:	f442 7280 	orr.w	r2, r2, #256	@ 0x100
 80025de:	6402      	str	r2, [r0, #64]	@ 0x40
 80025e0:	685a      	ldr	r2, [r3, #4]
 80025e2:	0552      	lsls	r2, r2, #21
 80025e4:	d505      	bpl.n	80025f2 <HAL_ADC_Start+0x7a>
 80025e6:	6c02      	ldr	r2, [r0, #64]	@ 0x40
 80025e8:	f422 5240 	bic.w	r2, r2, #12288	@ 0x3000
 80025ec:	f442 5280 	orr.w	r2, r2, #4096	@ 0x1000
 80025f0:	6402      	str	r2, [r0, #64]	@ 0x40
 80025f2:	6c02      	ldr	r2, [r0, #64]	@ 0x40
 80025f4:	f412 5280 	ands.w	r2, r2, #4096	@ 0x1000
 80025f8:	d002      	beq.n	8002600 <HAL_ADC_Start+0x88>
 80025fa:	6c42      	ldr	r2, [r0, #68]	@ 0x44
 80025fc:	f022 0206 	bic.w	r2, r2, #6
 8002600:	6442      	str	r2, [r0, #68]	@ 0x44
 8002602:	2200      	movs	r2, #0
 8002604:	4915      	ldr	r1, [pc, #84]	@ (800265c <HAL_ADC_Start+0xe4>)
 8002606:	f880 203c 	strb.w	r2, [r0, #60]	@ 0x3c
 800260a:	f06f 0222 	mvn.w	r2, #34	@ 0x22
 800260e:	601a      	str	r2, [r3, #0]
 8002610:	684a      	ldr	r2, [r1, #4]
 8002612:	06d0      	lsls	r0, r2, #27
 8002614:	d108      	bne.n	8002628 <HAL_ADC_Start+0xb0>
 8002616:	689a      	ldr	r2, [r3, #8]
 8002618:	f012 5f40 	tst.w	r2, #805306368	@ 0x30000000
 800261c:	d115      	bne.n	800264a <HAL_ADC_Start+0xd2>
 800261e:	689a      	ldr	r2, [r3, #8]
 8002620:	f042 4280 	orr.w	r2, r2, #1073741824	@ 0x40000000
 8002624:	609a      	str	r2, [r3, #8]
 8002626:	e010      	b.n	800264a <HAL_ADC_Start+0xd2>
 8002628:	4a0d      	ldr	r2, [pc, #52]	@ (8002660 <HAL_ADC_Start+0xe8>)
 800262a:	4293      	cmp	r3, r2
 800262c:	d107      	bne.n	800263e <HAL_ADC_Start+0xc6>
 800262e:	689a      	ldr	r2, [r3, #8]
 8002630:	f012 5f40 	tst.w	r2, #805306368	@ 0x30000000
 8002634:	d103      	bne.n	800263e <HAL_ADC_Start+0xc6>
 8002636:	689a      	ldr	r2, [r3, #8]
 8002638:	f042 4280 	orr.w	r2, r2, #1073741824	@ 0x40000000
 800263c:	609a      	str	r2, [r3, #8]
 800263e:	684a      	ldr	r2, [r1, #4]
 8002640:	06d2      	lsls	r2, r2, #27
 8002642:	d402      	bmi.n	800264a <HAL_ADC_Start+0xd2>
 8002644:	4a07      	ldr	r2, [pc, #28]	@ (8002664 <HAL_ADC_Start+0xec>)
 8002646:	4293      	cmp	r3, r2
 8002648:	d0e5      	beq.n	8002616 <HAL_ADC_Start+0x9e>
 800264a:	2000      	movs	r0, #0
 800264c:	b002      	add	sp, #8
 800264e:	4770      	bx	lr
 8002650:	2002      	movs	r0, #2
 8002652:	e7fb      	b.n	800264c <HAL_ADC_Start+0xd4>
 8002654:	000f4240 	.word	0x000f4240
 8002658:	20000020 	.word	0x20000020
 800265c:	40012300 	.word	0x40012300
 8002660:	40012000 	.word	0x40012000
 8002664:	40012200 	.word	0x40012200

08002668 <HAL_ADC_Stop>:
 8002668:	f890 303c 	ldrb.w	r3, [r0, #60]	@ 0x3c
 800266c:	2b01      	cmp	r3, #1
 800266e:	d014      	beq.n	800269a <HAL_ADC_Stop+0x32>
 8002670:	6803      	ldr	r3, [r0, #0]
 8002672:	689a      	ldr	r2, [r3, #8]
 8002674:	f022 0201 	bic.w	r2, r2, #1
 8002678:	609a      	str	r2, [r3, #8]
 800267a:	689b      	ldr	r3, [r3, #8]
 800267c:	07db      	lsls	r3, r3, #31
 800267e:	d407      	bmi.n	8002690 <HAL_ADC_Stop+0x28>
 8002680:	6c03      	ldr	r3, [r0, #64]	@ 0x40
 8002682:	f423 5388 	bic.w	r3, r3, #4352	@ 0x1100
 8002686:	f023 0301 	bic.w	r3, r3, #1
 800268a:	f043 0301 	orr.w	r3, r3, #1
 800268e:	6403      	str	r3, [r0, #64]	@ 0x40
 8002690:	2300      	movs	r3, #0
 8002692:	f880 303c 	strb.w	r3, [r0, #60]	@ 0x3c
 8002696:	4618      	mov	r0, r3
 8002698:	4770      	bx	lr
 800269a:	2002      	movs	r0, #2
 800269c:	4770      	bx	lr

0800269e <HAL_ADC_PollForConversion>:
 800269e:	6803      	ldr	r3, [r0, #0]
 80026a0:	689a      	ldr	r2, [r3, #8]
 80026a2:	0552      	lsls	r2, r2, #21
 80026a4:	b570      	push	{r4, r5, r6, lr}
 80026a6:	4604      	mov	r4, r0
 80026a8:	460d      	mov	r5, r1
 80026aa:	d50b      	bpl.n	80026c4 <HAL_ADC_PollForConversion+0x26>
 80026ac:	689b      	ldr	r3, [r3, #8]
 80026ae:	05de      	lsls	r6, r3, #23
 80026b0:	d508      	bpl.n	80026c4 <HAL_ADC_PollForConversion+0x26>
 80026b2:	6c03      	ldr	r3, [r0, #64]	@ 0x40
 80026b4:	f043 0320 	orr.w	r3, r3, #32
 80026b8:	6403      	str	r3, [r0, #64]	@ 0x40
 80026ba:	2300      	movs	r3, #0
 80026bc:	f880 303c 	strb.w	r3, [r0, #60]	@ 0x3c
 80026c0:	2001      	movs	r0, #1
 80026c2:	bd70      	pop	{r4, r5, r6, pc}
 80026c4:	f7ff fe9a 	bl	80023fc <HAL_GetTick>
 80026c8:	4606      	mov	r6, r0
 80026ca:	6823      	ldr	r3, [r4, #0]
 80026cc:	681a      	ldr	r2, [r3, #0]
 80026ce:	0791      	lsls	r1, r2, #30
 80026d0:	d50c      	bpl.n	80026ec <HAL_ADC_PollForConversion+0x4e>
 80026d2:	f06f 0212 	mvn.w	r2, #18
 80026d6:	601a      	str	r2, [r3, #0]
 80026d8:	6c22      	ldr	r2, [r4, #64]	@ 0x40
 80026da:	f442 7200 	orr.w	r2, r2, #512	@ 0x200
 80026de:	6422      	str	r2, [r4, #64]	@ 0x40
 80026e0:	689a      	ldr	r2, [r3, #8]
 80026e2:	f012 5f40 	tst.w	r2, #805306368	@ 0x30000000
 80026e6:	d017      	beq.n	8002718 <HAL_ADC_PollForConversion+0x7a>
 80026e8:	2000      	movs	r0, #0
 80026ea:	e7ea      	b.n	80026c2 <HAL_ADC_PollForConversion+0x24>
 80026ec:	1c68      	adds	r0, r5, #1
 80026ee:	d0ed      	beq.n	80026cc <HAL_ADC_PollForConversion+0x2e>
 80026f0:	b965      	cbnz	r5, 800270c <HAL_ADC_PollForConversion+0x6e>
 80026f2:	6823      	ldr	r3, [r4, #0]
 80026f4:	681b      	ldr	r3, [r3, #0]
 80026f6:	f013 0302 	ands.w	r3, r3, #2
 80026fa:	d1e6      	bne.n	80026ca <HAL_ADC_PollForConversion+0x2c>
 80026fc:	6c22      	ldr	r2, [r4, #64]	@ 0x40
 80026fe:	2003      	movs	r0, #3
 8002700:	f884 303c 	strb.w	r3, [r4, #60]	@ 0x3c
 8002704:	f042 0204 	orr.w	r2, r2, #4
 8002708:	6422      	str	r2, [r4, #64]	@ 0x40
 800270a:	e7da      	b.n	80026c2 <HAL_ADC_PollForConversion+0x24>
 800270c:	f7ff fe76 	bl	80023fc <HAL_GetTick>
 8002710:	1b80      	subs	r0, r0, r6
 8002712:	42a8      	cmp	r0, r5
 8002714:	d8ed      	bhi.n	80026f2 <HAL_ADC_PollForConversion+0x54>
 8002716:	e7d8      	b.n	80026ca <HAL_ADC_PollForConversion+0x2c>
 8002718:	69a2      	ldr	r2, [r4, #24]
 800271a:	2a00      	cmp	r2, #0
 800271c:	d1e4      	bne.n	80026e8 <HAL_ADC_PollForConversion+0x4a>
 800271e:	6ada      	ldr	r2, [r3, #44]	@ 0x2c
 8002720:	f412 0f70 	tst.w	r2, #15728640	@ 0xf00000
 8002724:	d002      	beq.n	800272c <HAL_ADC_PollForConversion+0x8e>
 8002726:	689b      	ldr	r3, [r3, #8]
 8002728:	055a      	lsls	r2, r3, #21
 800272a:	d4dd      	bmi.n	80026e8 <HAL_ADC_PollForConversion+0x4a>
 800272c:	6c23      	ldr	r3, [r4, #64]	@ 0x40
 800272e:	f423 7380 	bic.w	r3, r3, #256	@ 0x100
 8002732:	6423      	str	r3, [r4, #64]	@ 0x40
 8002734:	6c23      	ldr	r3, [r4, #64]	@ 0x40
 8002736:	04db      	lsls	r3, r3, #19
 8002738:	d4d6      	bmi.n	80026e8 <HAL_ADC_PollForConversion+0x4a>
 800273a:	6c23      	ldr	r3, [r4, #64]	@ 0x40
 800273c:	f043 0301 	orr.w	r3, r3, #1
 8002740:	6423      	str	r3, [r4, #64]	@ 0x40
 8002742:	e7d1      	b.n	80026e8 <HAL_ADC_PollForConversion+0x4a>

08002744 <HAL_ADC_GetValue>:
 8002744:	6803      	ldr	r3, [r0, #0]
 8002746:	6cd8      	ldr	r0, [r3, #76]	@ 0x4c
 8002748:	4770      	bx	lr
	...

0800274c <HAL_ADC_ConfigChannel>:
 800274c:	2300      	movs	r3, #0
 800274e:	b5f7      	push	{r0, r1, r2, r4, r5, r6, r7, lr}
 8002750:	9301      	str	r3, [sp, #4]
 8002752:	4604      	mov	r4, r0
 8002754:	f890 303c 	ldrb.w	r3, [r0, #60]	@ 0x3c
 8002758:	2b01      	cmp	r3, #1
 800275a:	f000 8098 	beq.w	800288e <HAL_ADC_ConfigChannel+0x142>
 800275e:	2301      	movs	r3, #1
 8002760:	f880 303c 	strb.w	r3, [r0, #60]	@ 0x3c
 8002764:	6808      	ldr	r0, [r1, #0]
 8002766:	6823      	ldr	r3, [r4, #0]
 8002768:	b285      	uxth	r5, r0
 800276a:	2809      	cmp	r0, #9
 800276c:	688e      	ldr	r6, [r1, #8]
 800276e:	eb05 0245 	add.w	r2, r5, r5, lsl #1
 8002772:	d939      	bls.n	80027e8 <HAL_ADC_ConfigChannel+0x9c>
 8002774:	f1b0 4f00 	cmp.w	r0, #2147483648	@ 0x80000000
 8002778:	d036      	beq.n	80027e8 <HAL_ADC_ConfigChannel+0x9c>
 800277a:	3a1e      	subs	r2, #30
 800277c:	f04f 0c07 	mov.w	ip, #7
 8002780:	68df      	ldr	r7, [r3, #12]
 8002782:	fa0c fc02 	lsl.w	ip, ip, r2
 8002786:	ea27 070c 	bic.w	r7, r7, ip
 800278a:	60df      	str	r7, [r3, #12]
 800278c:	4f41      	ldr	r7, [pc, #260]	@ (8002894 <HAL_ADC_ConfigChannel+0x148>)
 800278e:	42b8      	cmp	r0, r7
 8002790:	d125      	bne.n	80027de <HAL_ADC_ConfigChannel+0x92>
 8002792:	68da      	ldr	r2, [r3, #12]
 8002794:	ea42 6206 	orr.w	r2, r2, r6, lsl #24
 8002798:	60da      	str	r2, [r3, #12]
 800279a:	6849      	ldr	r1, [r1, #4]
 800279c:	2906      	cmp	r1, #6
 800279e:	eb01 0281 	add.w	r2, r1, r1, lsl #2
 80027a2:	d82e      	bhi.n	8002802 <HAL_ADC_ConfigChannel+0xb6>
 80027a4:	3a05      	subs	r2, #5
 80027a6:	261f      	movs	r6, #31
 80027a8:	6b59      	ldr	r1, [r3, #52]	@ 0x34
 80027aa:	4096      	lsls	r6, r2
 80027ac:	fa05 f202 	lsl.w	r2, r5, r2
 80027b0:	ea21 0106 	bic.w	r1, r1, r6
 80027b4:	6359      	str	r1, [r3, #52]	@ 0x34
 80027b6:	6b59      	ldr	r1, [r3, #52]	@ 0x34
 80027b8:	430a      	orrs	r2, r1
 80027ba:	635a      	str	r2, [r3, #52]	@ 0x34
 80027bc:	4a36      	ldr	r2, [pc, #216]	@ (8002898 <HAL_ADC_ConfigChannel+0x14c>)
 80027be:	4293      	cmp	r3, r2
 80027c0:	d108      	bne.n	80027d4 <HAL_ADC_ConfigChannel+0x88>
 80027c2:	f1b0 4f00 	cmp.w	r0, #2147483648	@ 0x80000000
 80027c6:	d137      	bne.n	8002838 <HAL_ADC_ConfigChannel+0xec>
 80027c8:	f8d2 3304 	ldr.w	r3, [r2, #772]	@ 0x304
 80027cc:	f423 0340 	bic.w	r3, r3, #12582912	@ 0xc00000
 80027d0:	f8c2 3304 	str.w	r3, [r2, #772]	@ 0x304
 80027d4:	2000      	movs	r0, #0
 80027d6:	f884 003c 	strb.w	r0, [r4, #60]	@ 0x3c
 80027da:	b003      	add	sp, #12
 80027dc:	bdf0      	pop	{r4, r5, r6, r7, pc}
 80027de:	68df      	ldr	r7, [r3, #12]
 80027e0:	fa06 f202 	lsl.w	r2, r6, r2
 80027e4:	433a      	orrs	r2, r7
 80027e6:	e7d7      	b.n	8002798 <HAL_ADC_ConfigChannel+0x4c>
 80027e8:	f04f 0c07 	mov.w	ip, #7
 80027ec:	691f      	ldr	r7, [r3, #16]
 80027ee:	4096      	lsls	r6, r2
 80027f0:	fa0c fc02 	lsl.w	ip, ip, r2
 80027f4:	ea27 070c 	bic.w	r7, r7, ip
 80027f8:	611f      	str	r7, [r3, #16]
 80027fa:	691f      	ldr	r7, [r3, #16]
 80027fc:	433e      	orrs	r6, r7
 80027fe:	611e      	str	r6, [r3, #16]
 8002800:	e7cb      	b.n	800279a <HAL_ADC_ConfigChannel+0x4e>
 8002802:	290c      	cmp	r1, #12
 8002804:	f04f 011f 	mov.w	r1, #31
 8002808:	d80b      	bhi.n	8002822 <HAL_ADC_ConfigChannel+0xd6>
 800280a:	3a23      	subs	r2, #35	@ 0x23
 800280c:	6b1e      	ldr	r6, [r3, #48]	@ 0x30
 800280e:	4091      	lsls	r1, r2
 8002810:	fa05 f202 	lsl.w	r2, r5, r2
 8002814:	ea26 0101 	bic.w	r1, r6, r1
 8002818:	6319      	str	r1, [r3, #48]	@ 0x30
 800281a:	6b19      	ldr	r1, [r3, #48]	@ 0x30
 800281c:	430a      	orrs	r2, r1
 800281e:	631a      	str	r2, [r3, #48]	@ 0x30
 8002820:	e7cc      	b.n	80027bc <HAL_ADC_ConfigChannel+0x70>
 8002822:	3a41      	subs	r2, #65	@ 0x41
 8002824:	6ade      	ldr	r6, [r3, #44]	@ 0x2c
 8002826:	4091      	lsls	r1, r2
 8002828:	4095      	lsls	r5, r2
 800282a:	ea26 0101 	bic.w	r1, r6, r1
 800282e:	62d9      	str	r1, [r3, #44]	@ 0x2c
 8002830:	6ad9      	ldr	r1, [r3, #44]	@ 0x2c
 8002832:	430d      	orrs	r5, r1
 8002834:	62dd      	str	r5, [r3, #44]	@ 0x2c
 8002836:	e7c1      	b.n	80027bc <HAL_ADC_ConfigChannel+0x70>
 8002838:	2812      	cmp	r0, #18
 800283a:	d109      	bne.n	8002850 <HAL_ADC_ConfigChannel+0x104>
 800283c:	4b17      	ldr	r3, [pc, #92]	@ (800289c <HAL_ADC_ConfigChannel+0x150>)
 800283e:	685a      	ldr	r2, [r3, #4]
 8002840:	f422 0200 	bic.w	r2, r2, #8388608	@ 0x800000
 8002844:	605a      	str	r2, [r3, #4]
 8002846:	685a      	ldr	r2, [r3, #4]
 8002848:	f442 0280 	orr.w	r2, r2, #4194304	@ 0x400000
 800284c:	605a      	str	r2, [r3, #4]
 800284e:	e7c1      	b.n	80027d4 <HAL_ADC_ConfigChannel+0x88>
 8002850:	4b10      	ldr	r3, [pc, #64]	@ (8002894 <HAL_ADC_ConfigChannel+0x148>)
 8002852:	4298      	cmp	r0, r3
 8002854:	d001      	beq.n	800285a <HAL_ADC_ConfigChannel+0x10e>
 8002856:	2811      	cmp	r0, #17
 8002858:	d1bc      	bne.n	80027d4 <HAL_ADC_ConfigChannel+0x88>
 800285a:	4b10      	ldr	r3, [pc, #64]	@ (800289c <HAL_ADC_ConfigChannel+0x150>)
 800285c:	685a      	ldr	r2, [r3, #4]
 800285e:	f422 0280 	bic.w	r2, r2, #4194304	@ 0x400000
 8002862:	605a      	str	r2, [r3, #4]
 8002864:	685a      	ldr	r2, [r3, #4]
 8002866:	f442 0200 	orr.w	r2, r2, #8388608	@ 0x800000
 800286a:	605a      	str	r2, [r3, #4]
 800286c:	4b09      	ldr	r3, [pc, #36]	@ (8002894 <HAL_ADC_ConfigChannel+0x148>)
 800286e:	4298      	cmp	r0, r3
 8002870:	d1b0      	bne.n	80027d4 <HAL_ADC_ConfigChannel+0x88>
 8002872:	4b0b      	ldr	r3, [pc, #44]	@ (80028a0 <HAL_ADC_ConfigChannel+0x154>)
 8002874:	4a0b      	ldr	r2, [pc, #44]	@ (80028a4 <HAL_ADC_ConfigChannel+0x158>)
 8002876:	681b      	ldr	r3, [r3, #0]
 8002878:	fbb3 f3f2 	udiv	r3, r3, r2
 800287c:	220a      	movs	r2, #10
 800287e:	4353      	muls	r3, r2
 8002880:	9301      	str	r3, [sp, #4]
 8002882:	9b01      	ldr	r3, [sp, #4]
 8002884:	2b00      	cmp	r3, #0
 8002886:	d0a5      	beq.n	80027d4 <HAL_ADC_ConfigChannel+0x88>
 8002888:	9b01      	ldr	r3, [sp, #4]
 800288a:	3b01      	subs	r3, #1
 800288c:	e7f8      	b.n	8002880 <HAL_ADC_ConfigChannel+0x134>
 800288e:	2002      	movs	r0, #2
 8002890:	e7a3      	b.n	80027da <HAL_ADC_ConfigChannel+0x8e>
 8002892:	bf00      	nop
 8002894:	10000012 	.word	0x10000012
 8002898:	40012000 	.word	0x40012000
 800289c:	40012300 	.word	0x40012300
 80028a0:	20000020 	.word	0x20000020
 80028a4:	000f4240 	.word	0x000f4240

080028a8 <HAL_NVIC_SetPriorityGrouping>:
 80028a8:	4907      	ldr	r1, [pc, #28]	@ (80028c8 <HAL_NVIC_SetPriorityGrouping+0x20>)
 80028aa:	0203      	lsls	r3, r0, #8
 80028ac:	68ca      	ldr	r2, [r1, #12]
 80028ae:	f403 63e0 	and.w	r3, r3, #1792	@ 0x700
 80028b2:	f422 62e0 	bic.w	r2, r2, #1792	@ 0x700
 80028b6:	0412      	lsls	r2, r2, #16
 80028b8:	0c12      	lsrs	r2, r2, #16
 80028ba:	4313      	orrs	r3, r2
 80028bc:	f043 63bf 	orr.w	r3, r3, #100139008	@ 0x5f80000
 80028c0:	f443 3300 	orr.w	r3, r3, #131072	@ 0x20000
 80028c4:	60cb      	str	r3, [r1, #12]
 80028c6:	4770      	bx	lr
 80028c8:	e000ed00 	.word	0xe000ed00

080028cc <HAL_NVIC_SetPriority>:
 80028cc:	4b16      	ldr	r3, [pc, #88]	@ (8002928 <HAL_NVIC_SetPriority+0x5c>)
 80028ce:	b530      	push	{r4, r5, lr}
 80028d0:	68dc      	ldr	r4, [r3, #12]
 80028d2:	f3c4 2402 	ubfx	r4, r4, #8, #3
 80028d6:	f1c4 0307 	rsb	r3, r4, #7
 80028da:	1d25      	adds	r5, r4, #4
 80028dc:	2b04      	cmp	r3, #4
 80028de:	bf28      	it	cs
 80028e0:	2304      	movcs	r3, #4
 80028e2:	2d06      	cmp	r5, #6
 80028e4:	f04f 35ff 	mov.w	r5, #4294967295	@ 0xffffffff
 80028e8:	bf8c      	ite	hi
 80028ea:	3c03      	subhi	r4, #3
 80028ec:	2400      	movls	r4, #0
 80028ee:	fa05 f303 	lsl.w	r3, r5, r3
 80028f2:	2800      	cmp	r0, #0
 80028f4:	fa05 f504 	lsl.w	r5, r5, r4
 80028f8:	ea21 0303 	bic.w	r3, r1, r3
 80028fc:	ea22 0205 	bic.w	r2, r2, r5
 8002900:	fa03 f304 	lsl.w	r3, r3, r4
 8002904:	ea43 0302 	orr.w	r3, r3, r2
 8002908:	ea4f 1303 	mov.w	r3, r3, lsl #4
 800290c:	b2db      	uxtb	r3, r3
 800290e:	db06      	blt.n	800291e <HAL_NVIC_SetPriority+0x52>
 8002910:	f100 4060 	add.w	r0, r0, #3758096384	@ 0xe0000000
 8002914:	f500 4061 	add.w	r0, r0, #57600	@ 0xe100
 8002918:	f880 3300 	strb.w	r3, [r0, #768]	@ 0x300
 800291c:	bd30      	pop	{r4, r5, pc}
 800291e:	f000 000f 	and.w	r0, r0, #15
 8002922:	4a02      	ldr	r2, [pc, #8]	@ (800292c <HAL_NVIC_SetPriority+0x60>)
 8002924:	5413      	strb	r3, [r2, r0]
 8002926:	e7f9      	b.n	800291c <HAL_NVIC_SetPriority+0x50>
 8002928:	e000ed00 	.word	0xe000ed00
 800292c:	e000ed14 	.word	0xe000ed14

08002930 <HAL_NVIC_EnableIRQ>:
 8002930:	2800      	cmp	r0, #0
 8002932:	db07      	blt.n	8002944 <HAL_NVIC_EnableIRQ+0x14>
 8002934:	0941      	lsrs	r1, r0, #5
 8002936:	2301      	movs	r3, #1
 8002938:	f000 001f 	and.w	r0, r0, #31
 800293c:	4a02      	ldr	r2, [pc, #8]	@ (8002948 <HAL_NVIC_EnableIRQ+0x18>)
 800293e:	4083      	lsls	r3, r0
 8002940:	f842 3021 	str.w	r3, [r2, r1, lsl #2]
 8002944:	4770      	bx	lr
 8002946:	bf00      	nop
 8002948:	e000e100 	.word	0xe000e100

0800294c <HAL_SYSTICK_Config>:
 800294c:	3801      	subs	r0, #1
 800294e:	f1b0 7f80 	cmp.w	r0, #16777216	@ 0x1000000
 8002952:	d20b      	bcs.n	800296c <HAL_SYSTICK_Config+0x20>
 8002954:	f04f 23e0 	mov.w	r3, #3758153728	@ 0xe000e000
 8002958:	4a05      	ldr	r2, [pc, #20]	@ (8002970 <HAL_SYSTICK_Config+0x24>)
 800295a:	21f0      	movs	r1, #240	@ 0xf0
 800295c:	6158      	str	r0, [r3, #20]
 800295e:	2000      	movs	r0, #0
 8002960:	f882 1023 	strb.w	r1, [r2, #35]	@ 0x23
 8002964:	2207      	movs	r2, #7
 8002966:	6198      	str	r0, [r3, #24]
 8002968:	611a      	str	r2, [r3, #16]
 800296a:	4770      	bx	lr
 800296c:	2001      	movs	r0, #1
 800296e:	4770      	bx	lr
 8002970:	e000ed00 	.word	0xe000ed00

08002974 <HAL_MPU_Disable>:
 8002974:	f3bf 8f5f 	dmb	sy
 8002978:	4b04      	ldr	r3, [pc, #16]	@ (800298c <HAL_MPU_Disable+0x18>)
 800297a:	6a5a      	ldr	r2, [r3, #36]	@ 0x24
 800297c:	f422 3280 	bic.w	r2, r2, #65536	@ 0x10000
 8002980:	625a      	str	r2, [r3, #36]	@ 0x24
 8002982:	2200      	movs	r2, #0
 8002984:	f8c3 2094 	str.w	r2, [r3, #148]	@ 0x94
 8002988:	4770      	bx	lr
 800298a:	bf00      	nop
 800298c:	e000ed00 	.word	0xe000ed00

08002990 <HAL_MPU_Enable>:
 8002990:	4b06      	ldr	r3, [pc, #24]	@ (80029ac <HAL_MPU_Enable+0x1c>)
 8002992:	f040 0001 	orr.w	r0, r0, #1
 8002996:	f8c3 0094 	str.w	r0, [r3, #148]	@ 0x94
 800299a:	6a5a      	ldr	r2, [r3, #36]	@ 0x24
 800299c:	f442 3280 	orr.w	r2, r2, #65536	@ 0x10000
 80029a0:	625a      	str	r2, [r3, #36]	@ 0x24
 80029a2:	f3bf 8f4f 	dsb	sy
 80029a6:	f3bf 8f6f 	isb	sy
 80029aa:	4770      	bx	lr
 80029ac:	e000ed00 	.word	0xe000ed00

080029b0 <HAL_MPU_ConfigRegion>:
 80029b0:	7843      	ldrb	r3, [r0, #1]
 80029b2:	4a14      	ldr	r2, [pc, #80]	@ (8002a04 <HAL_MPU_ConfigRegion+0x54>)
 80029b4:	f8c2 3098 	str.w	r3, [r2, #152]	@ 0x98
 80029b8:	f8d2 30a0 	ldr.w	r3, [r2, #160]	@ 0xa0
 80029bc:	f023 0301 	bic.w	r3, r3, #1
 80029c0:	f8c2 30a0 	str.w	r3, [r2, #160]	@ 0xa0
 80029c4:	6843      	ldr	r3, [r0, #4]
 80029c6:	f8c2 309c 	str.w	r3, [r2, #156]	@ 0x9c
 80029ca:	7ac3      	ldrb	r3, [r0, #11]
 80029cc:	7b01      	ldrb	r1, [r0, #12]
 80029ce:	061b      	lsls	r3, r3, #24
 80029d0:	ea43 7301 	orr.w	r3, r3, r1, lsl #28
 80029d4:	7801      	ldrb	r1, [r0, #0]
 80029d6:	430b      	orrs	r3, r1
 80029d8:	7a81      	ldrb	r1, [r0, #10]
 80029da:	ea43 43c1 	orr.w	r3, r3, r1, lsl #19
 80029de:	7b41      	ldrb	r1, [r0, #13]
 80029e0:	ea43 4381 	orr.w	r3, r3, r1, lsl #18
 80029e4:	7b81      	ldrb	r1, [r0, #14]
 80029e6:	ea43 4341 	orr.w	r3, r3, r1, lsl #17
 80029ea:	7bc1      	ldrb	r1, [r0, #15]
 80029ec:	ea43 4301 	orr.w	r3, r3, r1, lsl #16
 80029f0:	7a41      	ldrb	r1, [r0, #9]
 80029f2:	ea43 2301 	orr.w	r3, r3, r1, lsl #8
 80029f6:	7a01      	ldrb	r1, [r0, #8]
 80029f8:	ea43 0341 	orr.w	r3, r3, r1, lsl #1
 80029fc:	f8c2 30a0 	str.w	r3, [r2, #160]	@ 0xa0
 8002a00:	4770      	bx	lr
 8002a02:	bf00      	nop
 8002a04:	e000ed00 	.word	0xe000ed00

08002a08 <HAL_DAC_Init>:
 8002a08:	b510      	push	{r4, lr}
 8002a0a:	4604      	mov	r4, r0
 8002a0c:	b168      	cbz	r0, 8002a2a <HAL_DAC_Init+0x22>
 8002a0e:	7903      	ldrb	r3, [r0, #4]
 8002a10:	f003 02ff 	and.w	r2, r3, #255	@ 0xff
 8002a14:	b913      	cbnz	r3, 8002a1c <HAL_DAC_Init+0x14>
 8002a16:	7142      	strb	r2, [r0, #5]
 8002a18:	f7ff f984 	bl	8001d24 <HAL_DAC_MspInit>
 8002a1c:	2302      	movs	r3, #2
 8002a1e:	2000      	movs	r0, #0
 8002a20:	7123      	strb	r3, [r4, #4]
 8002a22:	2301      	movs	r3, #1
 8002a24:	6120      	str	r0, [r4, #16]
 8002a26:	7123      	strb	r3, [r4, #4]
 8002a28:	bd10      	pop	{r4, pc}
 8002a2a:	2001      	movs	r0, #1
 8002a2c:	e7fc      	b.n	8002a28 <HAL_DAC_Init+0x20>

08002a2e <HAL_DAC_ConfigChannel>:
 8002a2e:	b530      	push	{r4, r5, lr}
 8002a30:	4603      	mov	r3, r0
 8002a32:	460c      	mov	r4, r1
 8002a34:	b300      	cbz	r0, 8002a78 <HAL_DAC_ConfigChannel+0x4a>
 8002a36:	b1f9      	cbz	r1, 8002a78 <HAL_DAC_ConfigChannel+0x4a>
 8002a38:	7941      	ldrb	r1, [r0, #5]
 8002a3a:	2002      	movs	r0, #2
 8002a3c:	2901      	cmp	r1, #1
 8002a3e:	d01a      	beq.n	8002a76 <HAL_DAC_ConfigChannel+0x48>
 8002a40:	7118      	strb	r0, [r3, #4]
 8002a42:	f002 0210 	and.w	r2, r2, #16
 8002a46:	6818      	ldr	r0, [r3, #0]
 8002a48:	f640 71fe 	movw	r1, #4094	@ 0xffe
 8002a4c:	6805      	ldr	r5, [r0, #0]
 8002a4e:	4091      	lsls	r1, r2
 8002a50:	ea25 0501 	bic.w	r5, r5, r1
 8002a54:	e9d4 1400 	ldrd	r1, r4, [r4]
 8002a58:	4321      	orrs	r1, r4
 8002a5a:	24c0      	movs	r4, #192	@ 0xc0
 8002a5c:	4091      	lsls	r1, r2
 8002a5e:	fa04 f202 	lsl.w	r2, r4, r2
 8002a62:	4329      	orrs	r1, r5
 8002a64:	6001      	str	r1, [r0, #0]
 8002a66:	6801      	ldr	r1, [r0, #0]
 8002a68:	ea21 0202 	bic.w	r2, r1, r2
 8002a6c:	6002      	str	r2, [r0, #0]
 8002a6e:	2201      	movs	r2, #1
 8002a70:	2000      	movs	r0, #0
 8002a72:	711a      	strb	r2, [r3, #4]
 8002a74:	7158      	strb	r0, [r3, #5]
 8002a76:	bd30      	pop	{r4, r5, pc}
 8002a78:	2001      	movs	r0, #1
 8002a7a:	e7fc      	b.n	8002a76 <HAL_DAC_ConfigChannel+0x48>

08002a7c <HAL_DMA_Abort_IT>:
 8002a7c:	f890 3035 	ldrb.w	r3, [r0, #53]	@ 0x35
 8002a80:	2b02      	cmp	r3, #2
 8002a82:	d003      	beq.n	8002a8c <HAL_DMA_Abort_IT+0x10>
 8002a84:	2380      	movs	r3, #128	@ 0x80
 8002a86:	6543      	str	r3, [r0, #84]	@ 0x54
 8002a88:	2001      	movs	r0, #1
 8002a8a:	4770      	bx	lr
 8002a8c:	6802      	ldr	r2, [r0, #0]
 8002a8e:	2305      	movs	r3, #5
 8002a90:	f880 3035 	strb.w	r3, [r0, #53]	@ 0x35
 8002a94:	2000      	movs	r0, #0
 8002a96:	6813      	ldr	r3, [r2, #0]
 8002a98:	f023 0301 	bic.w	r3, r3, #1
 8002a9c:	6013      	str	r3, [r2, #0]
 8002a9e:	4770      	bx	lr

08002aa0 <HAL_GPIO_Init>:
 8002aa0:	e92d 4ff7 	stmdb	sp!, {r0, r1, r2, r4, r5, r6, r7, r8, r9, sl, fp, lr}
 8002aa4:	2300      	movs	r3, #0
 8002aa6:	f8df 91a4 	ldr.w	r9, [pc, #420]	@ 8002c4c <HAL_GPIO_Init+0x1ac>
 8002aaa:	4a66      	ldr	r2, [pc, #408]	@ (8002c44 <HAL_GPIO_Init+0x1a4>)
 8002aac:	2401      	movs	r4, #1
 8002aae:	680d      	ldr	r5, [r1, #0]
 8002ab0:	409c      	lsls	r4, r3
 8002ab2:	ea04 0605 	and.w	r6, r4, r5
 8002ab6:	43ac      	bics	r4, r5
 8002ab8:	f040 80af 	bne.w	8002c1a <HAL_GPIO_Init+0x17a>
 8002abc:	684d      	ldr	r5, [r1, #4]
 8002abe:	2703      	movs	r7, #3
 8002ac0:	ea4f 0e43 	mov.w	lr, r3, lsl #1
 8002ac4:	f005 0403 	and.w	r4, r5, #3
 8002ac8:	fa07 fc0e 	lsl.w	ip, r7, lr
 8002acc:	1e67      	subs	r7, r4, #1
 8002ace:	ea6f 0c0c 	mvn.w	ip, ip
 8002ad2:	2f01      	cmp	r7, #1
 8002ad4:	d834      	bhi.n	8002b40 <HAL_GPIO_Init+0xa0>
 8002ad6:	6887      	ldr	r7, [r0, #8]
 8002ad8:	ea07 080c 	and.w	r8, r7, ip
 8002adc:	68cf      	ldr	r7, [r1, #12]
 8002ade:	fa07 f70e 	lsl.w	r7, r7, lr
 8002ae2:	ea47 0708 	orr.w	r7, r7, r8
 8002ae6:	6087      	str	r7, [r0, #8]
 8002ae8:	6847      	ldr	r7, [r0, #4]
 8002aea:	ea27 0806 	bic.w	r8, r7, r6
 8002aee:	f3c5 1700 	ubfx	r7, r5, #4, #1
 8002af2:	409f      	lsls	r7, r3
 8002af4:	ea47 0708 	orr.w	r7, r7, r8
 8002af8:	6047      	str	r7, [r0, #4]
 8002afa:	68c7      	ldr	r7, [r0, #12]
 8002afc:	2c02      	cmp	r4, #2
 8002afe:	ea07 080c 	and.w	r8, r7, ip
 8002b02:	688f      	ldr	r7, [r1, #8]
 8002b04:	fa07 f70e 	lsl.w	r7, r7, lr
 8002b08:	ea47 0708 	orr.w	r7, r7, r8
 8002b0c:	60c7      	str	r7, [r0, #12]
 8002b0e:	d119      	bne.n	8002b44 <HAL_GPIO_Init+0xa4>
 8002b10:	ea4f 08d3 	mov.w	r8, r3, lsr #3
 8002b14:	f003 0a07 	and.w	sl, r3, #7
 8002b18:	f04f 0b0f 	mov.w	fp, #15
 8002b1c:	eb00 0888 	add.w	r8, r0, r8, lsl #2
 8002b20:	ea4f 0a8a 	mov.w	sl, sl, lsl #2
 8002b24:	f8d8 7020 	ldr.w	r7, [r8, #32]
 8002b28:	fa0b fb0a 	lsl.w	fp, fp, sl
 8002b2c:	ea27 0b0b 	bic.w	fp, r7, fp
 8002b30:	690f      	ldr	r7, [r1, #16]
 8002b32:	fa07 f70a 	lsl.w	r7, r7, sl
 8002b36:	ea47 070b 	orr.w	r7, r7, fp
 8002b3a:	f8c8 7020 	str.w	r7, [r8, #32]
 8002b3e:	e001      	b.n	8002b44 <HAL_GPIO_Init+0xa4>
 8002b40:	2c03      	cmp	r4, #3
 8002b42:	d1da      	bne.n	8002afa <HAL_GPIO_Init+0x5a>
 8002b44:	6807      	ldr	r7, [r0, #0]
 8002b46:	fa04 f40e 	lsl.w	r4, r4, lr
 8002b4a:	f415 3f40 	tst.w	r5, #196608	@ 0x30000
 8002b4e:	ea07 070c 	and.w	r7, r7, ip
 8002b52:	ea44 0407 	orr.w	r4, r4, r7
 8002b56:	6004      	str	r4, [r0, #0]
 8002b58:	d05f      	beq.n	8002c1a <HAL_GPIO_Init+0x17a>
 8002b5a:	f8d9 4044 	ldr.w	r4, [r9, #68]	@ 0x44
 8002b5e:	f023 0703 	bic.w	r7, r3, #3
 8002b62:	f003 0c03 	and.w	ip, r3, #3
 8002b66:	f04f 0e0f 	mov.w	lr, #15
 8002b6a:	f444 4480 	orr.w	r4, r4, #16384	@ 0x4000
 8002b6e:	f107 4780 	add.w	r7, r7, #1073741824	@ 0x40000000
 8002b72:	ea4f 0c8c 	mov.w	ip, ip, lsl #2
 8002b76:	f8c9 4044 	str.w	r4, [r9, #68]	@ 0x44
 8002b7a:	f507 379c 	add.w	r7, r7, #79872	@ 0x13800
 8002b7e:	f8d9 4044 	ldr.w	r4, [r9, #68]	@ 0x44
 8002b82:	fa0e fe0c 	lsl.w	lr, lr, ip
 8002b86:	f404 4480 	and.w	r4, r4, #16384	@ 0x4000
 8002b8a:	9401      	str	r4, [sp, #4]
 8002b8c:	9c01      	ldr	r4, [sp, #4]
 8002b8e:	68bc      	ldr	r4, [r7, #8]
 8002b90:	ea24 0e0e 	bic.w	lr, r4, lr
 8002b94:	4c2c      	ldr	r4, [pc, #176]	@ (8002c48 <HAL_GPIO_Init+0x1a8>)
 8002b96:	42a0      	cmp	r0, r4
 8002b98:	d046      	beq.n	8002c28 <HAL_GPIO_Init+0x188>
 8002b9a:	f504 6480 	add.w	r4, r4, #1024	@ 0x400
 8002b9e:	42a0      	cmp	r0, r4
 8002ba0:	d044      	beq.n	8002c2c <HAL_GPIO_Init+0x18c>
 8002ba2:	f504 6480 	add.w	r4, r4, #1024	@ 0x400
 8002ba6:	42a0      	cmp	r0, r4
 8002ba8:	d042      	beq.n	8002c30 <HAL_GPIO_Init+0x190>
 8002baa:	f504 6480 	add.w	r4, r4, #1024	@ 0x400
 8002bae:	42a0      	cmp	r0, r4
 8002bb0:	d040      	beq.n	8002c34 <HAL_GPIO_Init+0x194>
 8002bb2:	f504 6480 	add.w	r4, r4, #1024	@ 0x400
 8002bb6:	42a0      	cmp	r0, r4
 8002bb8:	d03e      	beq.n	8002c38 <HAL_GPIO_Init+0x198>
 8002bba:	f504 6480 	add.w	r4, r4, #1024	@ 0x400
 8002bbe:	42a0      	cmp	r0, r4
 8002bc0:	d03c      	beq.n	8002c3c <HAL_GPIO_Init+0x19c>
 8002bc2:	f504 6480 	add.w	r4, r4, #1024	@ 0x400
 8002bc6:	42a0      	cmp	r0, r4
 8002bc8:	d03a      	beq.n	8002c40 <HAL_GPIO_Init+0x1a0>
 8002bca:	f504 6480 	add.w	r4, r4, #1024	@ 0x400
 8002bce:	42a0      	cmp	r0, r4
 8002bd0:	bf14      	ite	ne
 8002bd2:	2408      	movne	r4, #8
 8002bd4:	2407      	moveq	r4, #7
 8002bd6:	fa04 f40c 	lsl.w	r4, r4, ip
 8002bda:	f415 1f80 	tst.w	r5, #1048576	@ 0x100000
 8002bde:	ea44 040e 	orr.w	r4, r4, lr
 8002be2:	60bc      	str	r4, [r7, #8]
 8002be4:	ea6f 0706 	mvn.w	r7, r6
 8002be8:	6894      	ldr	r4, [r2, #8]
 8002bea:	bf0c      	ite	eq
 8002bec:	403c      	andeq	r4, r7
 8002bee:	4334      	orrne	r4, r6
 8002bf0:	f415 1f00 	tst.w	r5, #2097152	@ 0x200000
 8002bf4:	6094      	str	r4, [r2, #8]
 8002bf6:	68d4      	ldr	r4, [r2, #12]
 8002bf8:	bf0c      	ite	eq
 8002bfa:	403c      	andeq	r4, r7
 8002bfc:	4334      	orrne	r4, r6
 8002bfe:	f415 3f00 	tst.w	r5, #131072	@ 0x20000
 8002c02:	60d4      	str	r4, [r2, #12]
 8002c04:	6854      	ldr	r4, [r2, #4]
 8002c06:	bf0c      	ite	eq
 8002c08:	403c      	andeq	r4, r7
 8002c0a:	4334      	orrne	r4, r6
 8002c0c:	03ed      	lsls	r5, r5, #15
 8002c0e:	6054      	str	r4, [r2, #4]
 8002c10:	6814      	ldr	r4, [r2, #0]
 8002c12:	bf54      	ite	pl
 8002c14:	403c      	andpl	r4, r7
 8002c16:	4334      	orrmi	r4, r6
 8002c18:	6014      	str	r4, [r2, #0]
 8002c1a:	3301      	adds	r3, #1
 8002c1c:	2b10      	cmp	r3, #16
 8002c1e:	f47f af45 	bne.w	8002aac <HAL_GPIO_Init+0xc>
 8002c22:	b003      	add	sp, #12
 8002c24:	e8bd 8ff0 	ldmia.w	sp!, {r4, r5, r6, r7, r8, r9, sl, fp, pc}
 8002c28:	2400      	movs	r4, #0
 8002c2a:	e7d4      	b.n	8002bd6 <HAL_GPIO_Init+0x136>
 8002c2c:	2401      	movs	r4, #1
 8002c2e:	e7d2      	b.n	8002bd6 <HAL_GPIO_Init+0x136>
 8002c30:	2402      	movs	r4, #2
 8002c32:	e7d0      	b.n	8002bd6 <HAL_GPIO_Init+0x136>
 8002c34:	2403      	movs	r4, #3
 8002c36:	e7ce      	b.n	8002bd6 <HAL_GPIO_Init+0x136>
 8002c38:	2404      	movs	r4, #4
 8002c3a:	e7cc      	b.n	8002bd6 <HAL_GPIO_Init+0x136>
 8002c3c:	2405      	movs	r4, #5
 8002c3e:	e7ca      	b.n	8002bd6 <HAL_GPIO_Init+0x136>
 8002c40:	2406      	movs	r4, #6
 8002c42:	e7c8      	b.n	8002bd6 <HAL_GPIO_Init+0x136>
 8002c44:	40013c00 	.word	0x40013c00
 8002c48:	40020000 	.word	0x40020000
 8002c4c:	40023800 	.word	0x40023800

08002c50 <HAL_GPIO_ReadPin>:
 8002c50:	6903      	ldr	r3, [r0, #16]
 8002c52:	4219      	tst	r1, r3
 8002c54:	bf14      	ite	ne
 8002c56:	2001      	movne	r0, #1
 8002c58:	2000      	moveq	r0, #0
 8002c5a:	4770      	bx	lr

08002c5c <HAL_GPIO_WritePin>:
 8002c5c:	b10a      	cbz	r2, 8002c62 <HAL_GPIO_WritePin+0x6>
 8002c5e:	6181      	str	r1, [r0, #24]
 8002c60:	4770      	bx	lr
 8002c62:	0409      	lsls	r1, r1, #16
 8002c64:	e7fb      	b.n	8002c5e <HAL_GPIO_WritePin+0x2>

08002c66 <I2C_Flush_TXDR>:
 8002c66:	6803      	ldr	r3, [r0, #0]
 8002c68:	699a      	ldr	r2, [r3, #24]
 8002c6a:	0791      	lsls	r1, r2, #30
 8002c6c:	d501      	bpl.n	8002c72 <I2C_Flush_TXDR+0xc>
 8002c6e:	2200      	movs	r2, #0
 8002c70:	629a      	str	r2, [r3, #40]	@ 0x28
 8002c72:	699a      	ldr	r2, [r3, #24]
 8002c74:	07d2      	lsls	r2, r2, #31
 8002c76:	d403      	bmi.n	8002c80 <I2C_Flush_TXDR+0x1a>
 8002c78:	699a      	ldr	r2, [r3, #24]
 8002c7a:	f042 0201 	orr.w	r2, r2, #1
 8002c7e:	619a      	str	r2, [r3, #24]
 8002c80:	4770      	bx	lr
	...

08002c84 <I2C_TransferConfig>:
 8002c84:	b530      	push	{r4, r5, lr}
 8002c86:	9d03      	ldr	r5, [sp, #12]
 8002c88:	f3c1 0109 	ubfx	r1, r1, #0, #10
 8002c8c:	6804      	ldr	r4, [r0, #0]
 8002c8e:	432b      	orrs	r3, r5
 8002c90:	6860      	ldr	r0, [r4, #4]
 8002c92:	ea43 4302 	orr.w	r3, r3, r2, lsl #16
 8002c96:	4a05      	ldr	r2, [pc, #20]	@ (8002cac <I2C_TransferConfig+0x28>)
 8002c98:	430b      	orrs	r3, r1
 8002c9a:	ea42 5255 	orr.w	r2, r2, r5, lsr #21
 8002c9e:	f023 4300 	bic.w	r3, r3, #2147483648	@ 0x80000000
 8002ca2:	ea20 0002 	bic.w	r0, r0, r2
 8002ca6:	4303      	orrs	r3, r0
 8002ca8:	6063      	str	r3, [r4, #4]
 8002caa:	bd30      	pop	{r4, r5, pc}
 8002cac:	03ff63ff 	.word	0x03ff63ff

08002cb0 <I2C_IsErrorOccurred>:
 8002cb0:	6803      	ldr	r3, [r0, #0]
 8002cb2:	e92d 41f0 	stmdb	sp!, {r4, r5, r6, r7, r8, lr}
 8002cb6:	699c      	ldr	r4, [r3, #24]
 8002cb8:	4605      	mov	r5, r0
 8002cba:	460f      	mov	r7, r1
 8002cbc:	4616      	mov	r6, r2
 8002cbe:	f014 0410 	ands.w	r4, r4, #16
 8002cc2:	d06f      	beq.n	8002da4 <I2C_IsErrorOccurred+0xf4>
 8002cc4:	2400      	movs	r4, #0
 8002cc6:	2210      	movs	r2, #16
 8002cc8:	46a0      	mov	r8, r4
 8002cca:	61da      	str	r2, [r3, #28]
 8002ccc:	682b      	ldr	r3, [r5, #0]
 8002cce:	699a      	ldr	r2, [r3, #24]
 8002cd0:	0690      	lsls	r0, r2, #26
 8002cd2:	d461      	bmi.n	8002d98 <I2C_IsErrorOccurred+0xe8>
 8002cd4:	f1b8 0f00 	cmp.w	r8, #0
 8002cd8:	d035      	beq.n	8002d46 <I2C_IsErrorOccurred+0x96>
 8002cda:	f044 0404 	orr.w	r4, r4, #4
 8002cde:	2001      	movs	r0, #1
 8002ce0:	682e      	ldr	r6, [r5, #0]
 8002ce2:	69b3      	ldr	r3, [r6, #24]
 8002ce4:	05d9      	lsls	r1, r3, #23
 8002ce6:	d505      	bpl.n	8002cf4 <I2C_IsErrorOccurred+0x44>
 8002ce8:	f44f 7280 	mov.w	r2, #256	@ 0x100
 8002cec:	f044 0401 	orr.w	r4, r4, #1
 8002cf0:	2001      	movs	r0, #1
 8002cf2:	61f2      	str	r2, [r6, #28]
 8002cf4:	055a      	lsls	r2, r3, #21
 8002cf6:	d505      	bpl.n	8002d04 <I2C_IsErrorOccurred+0x54>
 8002cf8:	f44f 6280 	mov.w	r2, #1024	@ 0x400
 8002cfc:	f044 0408 	orr.w	r4, r4, #8
 8002d00:	2001      	movs	r0, #1
 8002d02:	61f2      	str	r2, [r6, #28]
 8002d04:	059b      	lsls	r3, r3, #22
 8002d06:	d54f      	bpl.n	8002da8 <I2C_IsErrorOccurred+0xf8>
 8002d08:	f44f 7300 	mov.w	r3, #512	@ 0x200
 8002d0c:	f044 0402 	orr.w	r4, r4, #2
 8002d10:	61f3      	str	r3, [r6, #28]
 8002d12:	4628      	mov	r0, r5
 8002d14:	f7ff ffa7 	bl	8002c66 <I2C_Flush_TXDR>
 8002d18:	6873      	ldr	r3, [r6, #4]
 8002d1a:	2001      	movs	r0, #1
 8002d1c:	f023 73ff 	bic.w	r3, r3, #33423360	@ 0x1fe0000
 8002d20:	f423 338b 	bic.w	r3, r3, #71168	@ 0x11600
 8002d24:	f423 73ff 	bic.w	r3, r3, #510	@ 0x1fe
 8002d28:	f023 0301 	bic.w	r3, r3, #1
 8002d2c:	6073      	str	r3, [r6, #4]
 8002d2e:	6c6b      	ldr	r3, [r5, #68]	@ 0x44
 8002d30:	4323      	orrs	r3, r4
 8002d32:	646b      	str	r3, [r5, #68]	@ 0x44
 8002d34:	2320      	movs	r3, #32
 8002d36:	f885 3041 	strb.w	r3, [r5, #65]	@ 0x41
 8002d3a:	2300      	movs	r3, #0
 8002d3c:	f885 3042 	strb.w	r3, [r5, #66]	@ 0x42
 8002d40:	f885 3040 	strb.w	r3, [r5, #64]	@ 0x40
 8002d44:	e032      	b.n	8002dac <I2C_IsErrorOccurred+0xfc>
 8002d46:	1c7a      	adds	r2, r7, #1
 8002d48:	d0c1      	beq.n	8002cce <I2C_IsErrorOccurred+0x1e>
 8002d4a:	f7ff fb57 	bl	80023fc <HAL_GetTick>
 8002d4e:	1b80      	subs	r0, r0, r6
 8002d50:	42b8      	cmp	r0, r7
 8002d52:	d801      	bhi.n	8002d58 <I2C_IsErrorOccurred+0xa8>
 8002d54:	2f00      	cmp	r7, #0
 8002d56:	d1b9      	bne.n	8002ccc <I2C_IsErrorOccurred+0x1c>
 8002d58:	682b      	ldr	r3, [r5, #0]
 8002d5a:	6859      	ldr	r1, [r3, #4]
 8002d5c:	f895 2042 	ldrb.w	r2, [r5, #66]	@ 0x42
 8002d60:	6998      	ldr	r0, [r3, #24]
 8002d62:	b2d2      	uxtb	r2, r2
 8002d64:	0400      	lsls	r0, r0, #16
 8002d66:	d50a      	bpl.n	8002d7e <I2C_IsErrorOccurred+0xce>
 8002d68:	0449      	lsls	r1, r1, #17
 8002d6a:	d408      	bmi.n	8002d7e <I2C_IsErrorOccurred+0xce>
 8002d6c:	2a20      	cmp	r2, #32
 8002d6e:	d006      	beq.n	8002d7e <I2C_IsErrorOccurred+0xce>
 8002d70:	685a      	ldr	r2, [r3, #4]
 8002d72:	f442 4280 	orr.w	r2, r2, #16384	@ 0x4000
 8002d76:	605a      	str	r2, [r3, #4]
 8002d78:	f7ff fb40 	bl	80023fc <HAL_GetTick>
 8002d7c:	4606      	mov	r6, r0
 8002d7e:	682b      	ldr	r3, [r5, #0]
 8002d80:	699b      	ldr	r3, [r3, #24]
 8002d82:	069b      	lsls	r3, r3, #26
 8002d84:	d4a2      	bmi.n	8002ccc <I2C_IsErrorOccurred+0x1c>
 8002d86:	f7ff fb39 	bl	80023fc <HAL_GetTick>
 8002d8a:	1b80      	subs	r0, r0, r6
 8002d8c:	2819      	cmp	r0, #25
 8002d8e:	d9f6      	bls.n	8002d7e <I2C_IsErrorOccurred+0xce>
 8002d90:	2420      	movs	r4, #32
 8002d92:	f04f 0801 	mov.w	r8, #1
 8002d96:	e799      	b.n	8002ccc <I2C_IsErrorOccurred+0x1c>
 8002d98:	f1b8 0f00 	cmp.w	r8, #0
 8002d9c:	d19d      	bne.n	8002cda <I2C_IsErrorOccurred+0x2a>
 8002d9e:	2220      	movs	r2, #32
 8002da0:	61da      	str	r2, [r3, #28]
 8002da2:	e79a      	b.n	8002cda <I2C_IsErrorOccurred+0x2a>
 8002da4:	4620      	mov	r0, r4
 8002da6:	e79b      	b.n	8002ce0 <I2C_IsErrorOccurred+0x30>
 8002da8:	2800      	cmp	r0, #0
 8002daa:	d1b2      	bne.n	8002d12 <I2C_IsErrorOccurred+0x62>
 8002dac:	e8bd 81f0 	ldmia.w	sp!, {r4, r5, r6, r7, r8, pc}

08002db0 <I2C_WaitOnTXISFlagUntilTimeout>:
 8002db0:	b570      	push	{r4, r5, r6, lr}
 8002db2:	4604      	mov	r4, r0
 8002db4:	460d      	mov	r5, r1
 8002db6:	4616      	mov	r6, r2
 8002db8:	6823      	ldr	r3, [r4, #0]
 8002dba:	699b      	ldr	r3, [r3, #24]
 8002dbc:	079b      	lsls	r3, r3, #30
 8002dbe:	d501      	bpl.n	8002dc4 <I2C_WaitOnTXISFlagUntilTimeout+0x14>
 8002dc0:	2000      	movs	r0, #0
 8002dc2:	e01f      	b.n	8002e04 <I2C_WaitOnTXISFlagUntilTimeout+0x54>
 8002dc4:	4632      	mov	r2, r6
 8002dc6:	4629      	mov	r1, r5
 8002dc8:	4620      	mov	r0, r4
 8002dca:	f7ff ff71 	bl	8002cb0 <I2C_IsErrorOccurred>
 8002dce:	b9c0      	cbnz	r0, 8002e02 <I2C_WaitOnTXISFlagUntilTimeout+0x52>
 8002dd0:	1c6a      	adds	r2, r5, #1
 8002dd2:	d0f1      	beq.n	8002db8 <I2C_WaitOnTXISFlagUntilTimeout+0x8>
 8002dd4:	f7ff fb12 	bl	80023fc <HAL_GetTick>
 8002dd8:	1b80      	subs	r0, r0, r6
 8002dda:	42a8      	cmp	r0, r5
 8002ddc:	d801      	bhi.n	8002de2 <I2C_WaitOnTXISFlagUntilTimeout+0x32>
 8002dde:	2d00      	cmp	r5, #0
 8002de0:	d1ea      	bne.n	8002db8 <I2C_WaitOnTXISFlagUntilTimeout+0x8>
 8002de2:	6823      	ldr	r3, [r4, #0]
 8002de4:	699b      	ldr	r3, [r3, #24]
 8002de6:	f013 0302 	ands.w	r3, r3, #2
 8002dea:	d1e5      	bne.n	8002db8 <I2C_WaitOnTXISFlagUntilTimeout+0x8>
 8002dec:	6c62      	ldr	r2, [r4, #68]	@ 0x44
 8002dee:	f884 3040 	strb.w	r3, [r4, #64]	@ 0x40
 8002df2:	f042 0220 	orr.w	r2, r2, #32
 8002df6:	6462      	str	r2, [r4, #68]	@ 0x44
 8002df8:	2220      	movs	r2, #32
 8002dfa:	f884 2041 	strb.w	r2, [r4, #65]	@ 0x41
 8002dfe:	f884 3042 	strb.w	r3, [r4, #66]	@ 0x42
 8002e02:	2001      	movs	r0, #1
 8002e04:	bd70      	pop	{r4, r5, r6, pc}

08002e06 <I2C_WaitOnFlagUntilTimeout>:
 8002e06:	e92d 41f0 	stmdb	sp!, {r4, r5, r6, r7, r8, lr}
 8002e0a:	f8dd 8018 	ldr.w	r8, [sp, #24]
 8002e0e:	4604      	mov	r4, r0
 8002e10:	460f      	mov	r7, r1
 8002e12:	4616      	mov	r6, r2
 8002e14:	461d      	mov	r5, r3
 8002e16:	6823      	ldr	r3, [r4, #0]
 8002e18:	699b      	ldr	r3, [r3, #24]
 8002e1a:	ea37 0303 	bics.w	r3, r7, r3
 8002e1e:	bf0c      	ite	eq
 8002e20:	2301      	moveq	r3, #1
 8002e22:	2300      	movne	r3, #0
 8002e24:	42b3      	cmp	r3, r6
 8002e26:	d001      	beq.n	8002e2c <I2C_WaitOnFlagUntilTimeout+0x26>
 8002e28:	2000      	movs	r0, #0
 8002e2a:	e025      	b.n	8002e78 <I2C_WaitOnFlagUntilTimeout+0x72>
 8002e2c:	4642      	mov	r2, r8
 8002e2e:	4629      	mov	r1, r5
 8002e30:	4620      	mov	r0, r4
 8002e32:	f7ff ff3d 	bl	8002cb0 <I2C_IsErrorOccurred>
 8002e36:	b9f0      	cbnz	r0, 8002e76 <I2C_WaitOnFlagUntilTimeout+0x70>
 8002e38:	1c6b      	adds	r3, r5, #1
 8002e3a:	d0ec      	beq.n	8002e16 <I2C_WaitOnFlagUntilTimeout+0x10>
 8002e3c:	f7ff fade 	bl	80023fc <HAL_GetTick>
 8002e40:	eba0 0008 	sub.w	r0, r0, r8
 8002e44:	42a8      	cmp	r0, r5
 8002e46:	d801      	bhi.n	8002e4c <I2C_WaitOnFlagUntilTimeout+0x46>
 8002e48:	2d00      	cmp	r5, #0
 8002e4a:	d1e4      	bne.n	8002e16 <I2C_WaitOnFlagUntilTimeout+0x10>
 8002e4c:	6823      	ldr	r3, [r4, #0]
 8002e4e:	699b      	ldr	r3, [r3, #24]
 8002e50:	ea37 0303 	bics.w	r3, r7, r3
 8002e54:	bf0c      	ite	eq
 8002e56:	2301      	moveq	r3, #1
 8002e58:	2300      	movne	r3, #0
 8002e5a:	42b3      	cmp	r3, r6
 8002e5c:	d1db      	bne.n	8002e16 <I2C_WaitOnFlagUntilTimeout+0x10>
 8002e5e:	6c63      	ldr	r3, [r4, #68]	@ 0x44
 8002e60:	f043 0320 	orr.w	r3, r3, #32
 8002e64:	6463      	str	r3, [r4, #68]	@ 0x44
 8002e66:	2320      	movs	r3, #32
 8002e68:	f884 3041 	strb.w	r3, [r4, #65]	@ 0x41
 8002e6c:	2300      	movs	r3, #0
 8002e6e:	f884 3042 	strb.w	r3, [r4, #66]	@ 0x42
 8002e72:	f884 3040 	strb.w	r3, [r4, #64]	@ 0x40
 8002e76:	2001      	movs	r0, #1
 8002e78:	e8bd 81f0 	ldmia.w	sp!, {r4, r5, r6, r7, r8, pc}

08002e7c <I2C_WaitOnSTOPFlagUntilTimeout>:
 8002e7c:	b570      	push	{r4, r5, r6, lr}
 8002e7e:	4604      	mov	r4, r0
 8002e80:	460d      	mov	r5, r1
 8002e82:	4616      	mov	r6, r2
 8002e84:	6823      	ldr	r3, [r4, #0]
 8002e86:	699b      	ldr	r3, [r3, #24]
 8002e88:	069b      	lsls	r3, r3, #26
 8002e8a:	d501      	bpl.n	8002e90 <I2C_WaitOnSTOPFlagUntilTimeout+0x14>
 8002e8c:	2000      	movs	r0, #0
 8002e8e:	e01d      	b.n	8002ecc <I2C_WaitOnSTOPFlagUntilTimeout+0x50>
 8002e90:	4632      	mov	r2, r6
 8002e92:	4629      	mov	r1, r5
 8002e94:	4620      	mov	r0, r4
 8002e96:	f7ff ff0b 	bl	8002cb0 <I2C_IsErrorOccurred>
 8002e9a:	b9b0      	cbnz	r0, 8002eca <I2C_WaitOnSTOPFlagUntilTimeout+0x4e>
 8002e9c:	f7ff faae 	bl	80023fc <HAL_GetTick>
 8002ea0:	1b80      	subs	r0, r0, r6
 8002ea2:	42a8      	cmp	r0, r5
 8002ea4:	d801      	bhi.n	8002eaa <I2C_WaitOnSTOPFlagUntilTimeout+0x2e>
 8002ea6:	2d00      	cmp	r5, #0
 8002ea8:	d1ec      	bne.n	8002e84 <I2C_WaitOnSTOPFlagUntilTimeout+0x8>
 8002eaa:	6823      	ldr	r3, [r4, #0]
 8002eac:	699b      	ldr	r3, [r3, #24]
 8002eae:	f013 0320 	ands.w	r3, r3, #32
 8002eb2:	d1e7      	bne.n	8002e84 <I2C_WaitOnSTOPFlagUntilTimeout+0x8>
 8002eb4:	6c62      	ldr	r2, [r4, #68]	@ 0x44
 8002eb6:	f884 3040 	strb.w	r3, [r4, #64]	@ 0x40
 8002eba:	f042 0220 	orr.w	r2, r2, #32
 8002ebe:	6462      	str	r2, [r4, #68]	@ 0x44
 8002ec0:	2220      	movs	r2, #32
 8002ec2:	f884 2041 	strb.w	r2, [r4, #65]	@ 0x41
 8002ec6:	f884 3042 	strb.w	r3, [r4, #66]	@ 0x42
 8002eca:	2001      	movs	r0, #1
 8002ecc:	bd70      	pop	{r4, r5, r6, pc}
	...

08002ed0 <I2C_WaitOnRXNEFlagUntilTimeout>:
 8002ed0:	e92d 43f8 	stmdb	sp!, {r3, r4, r5, r6, r7, r8, r9, lr}
 8002ed4:	4605      	mov	r5, r0
 8002ed6:	460e      	mov	r6, r1
 8002ed8:	4617      	mov	r7, r2
 8002eda:	2400      	movs	r4, #0
 8002edc:	f04f 0810 	mov.w	r8, #16
 8002ee0:	f8df 908c 	ldr.w	r9, [pc, #140]	@ 8002f70 <I2C_WaitOnRXNEFlagUntilTimeout+0xa0>
 8002ee4:	682b      	ldr	r3, [r5, #0]
 8002ee6:	699b      	ldr	r3, [r3, #24]
 8002ee8:	075b      	lsls	r3, r3, #29
 8002eea:	d400      	bmi.n	8002eee <I2C_WaitOnRXNEFlagUntilTimeout+0x1e>
 8002eec:	b114      	cbz	r4, 8002ef4 <I2C_WaitOnRXNEFlagUntilTimeout+0x24>
 8002eee:	4620      	mov	r0, r4
 8002ef0:	e8bd 83f8 	ldmia.w	sp!, {r3, r4, r5, r6, r7, r8, r9, pc}
 8002ef4:	463a      	mov	r2, r7
 8002ef6:	4631      	mov	r1, r6
 8002ef8:	4628      	mov	r0, r5
 8002efa:	f7ff fed9 	bl	8002cb0 <I2C_IsErrorOccurred>
 8002efe:	682b      	ldr	r3, [r5, #0]
 8002f00:	4604      	mov	r4, r0
 8002f02:	699a      	ldr	r2, [r3, #24]
 8002f04:	0690      	lsls	r0, r2, #26
 8002f06:	d40c      	bmi.n	8002f22 <I2C_WaitOnRXNEFlagUntilTimeout+0x52>
 8002f08:	3c00      	subs	r4, #0
 8002f0a:	bf18      	it	ne
 8002f0c:	2401      	movne	r4, #1
 8002f0e:	f7ff fa75 	bl	80023fc <HAL_GetTick>
 8002f12:	1bc0      	subs	r0, r0, r7
 8002f14:	42b0      	cmp	r0, r6
 8002f16:	d801      	bhi.n	8002f1c <I2C_WaitOnRXNEFlagUntilTimeout+0x4c>
 8002f18:	2e00      	cmp	r6, #0
 8002f1a:	d1e3      	bne.n	8002ee4 <I2C_WaitOnRXNEFlagUntilTimeout+0x14>
 8002f1c:	b1d4      	cbz	r4, 8002f54 <I2C_WaitOnRXNEFlagUntilTimeout+0x84>
 8002f1e:	2401      	movs	r4, #1
 8002f20:	e7e0      	b.n	8002ee4 <I2C_WaitOnRXNEFlagUntilTimeout+0x14>
 8002f22:	b99c      	cbnz	r4, 8002f4c <I2C_WaitOnRXNEFlagUntilTimeout+0x7c>
 8002f24:	699a      	ldr	r2, [r3, #24]
 8002f26:	699a      	ldr	r2, [r3, #24]
 8002f28:	06d1      	lsls	r1, r2, #27
 8002f2a:	d511      	bpl.n	8002f50 <I2C_WaitOnRXNEFlagUntilTimeout+0x80>
 8002f2c:	2204      	movs	r2, #4
 8002f2e:	2120      	movs	r1, #32
 8002f30:	f8c3 801c 	str.w	r8, [r3, #28]
 8002f34:	646a      	str	r2, [r5, #68]	@ 0x44
 8002f36:	61d9      	str	r1, [r3, #28]
 8002f38:	685a      	ldr	r2, [r3, #4]
 8002f3a:	ea02 0209 	and.w	r2, r2, r9
 8002f3e:	605a      	str	r2, [r3, #4]
 8002f40:	f885 1041 	strb.w	r1, [r5, #65]	@ 0x41
 8002f44:	f885 4040 	strb.w	r4, [r5, #64]	@ 0x40
 8002f48:	f885 4042 	strb.w	r4, [r5, #66]	@ 0x42
 8002f4c:	2401      	movs	r4, #1
 8002f4e:	e7de      	b.n	8002f0e <I2C_WaitOnRXNEFlagUntilTimeout+0x3e>
 8002f50:	646c      	str	r4, [r5, #68]	@ 0x44
 8002f52:	e7dc      	b.n	8002f0e <I2C_WaitOnRXNEFlagUntilTimeout+0x3e>
 8002f54:	682b      	ldr	r3, [r5, #0]
 8002f56:	699b      	ldr	r3, [r3, #24]
 8002f58:	075a      	lsls	r2, r3, #29
 8002f5a:	d4c3      	bmi.n	8002ee4 <I2C_WaitOnRXNEFlagUntilTimeout+0x14>
 8002f5c:	6c6b      	ldr	r3, [r5, #68]	@ 0x44
 8002f5e:	f885 4040 	strb.w	r4, [r5, #64]	@ 0x40
 8002f62:	f043 0320 	orr.w	r3, r3, #32
 8002f66:	646b      	str	r3, [r5, #68]	@ 0x44
 8002f68:	2320      	movs	r3, #32
 8002f6a:	f885 3041 	strb.w	r3, [r5, #65]	@ 0x41
 8002f6e:	e7d6      	b.n	8002f1e <I2C_WaitOnRXNEFlagUntilTimeout+0x4e>
 8002f70:	fe00e800 	.word	0xfe00e800

08002f74 <HAL_I2C_Init>:
 8002f74:	b510      	push	{r4, lr}
 8002f76:	4604      	mov	r4, r0
 8002f78:	2800      	cmp	r0, #0
 8002f7a:	d04e      	beq.n	800301a <HAL_I2C_Init+0xa6>
 8002f7c:	f890 3041 	ldrb.w	r3, [r0, #65]	@ 0x41
 8002f80:	f003 02ff 	and.w	r2, r3, #255	@ 0xff
 8002f84:	b91b      	cbnz	r3, 8002f8e <HAL_I2C_Init+0x1a>
 8002f86:	f880 2040 	strb.w	r2, [r0, #64]	@ 0x40
 8002f8a:	f7fe fef9 	bl	8001d80 <HAL_I2C_MspInit>
 8002f8e:	2324      	movs	r3, #36	@ 0x24
 8002f90:	f884 3041 	strb.w	r3, [r4, #65]	@ 0x41
 8002f94:	6823      	ldr	r3, [r4, #0]
 8002f96:	681a      	ldr	r2, [r3, #0]
 8002f98:	f022 0201 	bic.w	r2, r2, #1
 8002f9c:	601a      	str	r2, [r3, #0]
 8002f9e:	6862      	ldr	r2, [r4, #4]
 8002fa0:	f022 6270 	bic.w	r2, r2, #251658240	@ 0xf000000
 8002fa4:	611a      	str	r2, [r3, #16]
 8002fa6:	689a      	ldr	r2, [r3, #8]
 8002fa8:	f422 4200 	bic.w	r2, r2, #32768	@ 0x8000
 8002fac:	609a      	str	r2, [r3, #8]
 8002fae:	e9d4 2102 	ldrd	r2, r1, [r4, #8]
 8002fb2:	2901      	cmp	r1, #1
 8002fb4:	d106      	bne.n	8002fc4 <HAL_I2C_Init+0x50>
 8002fb6:	f442 4200 	orr.w	r2, r2, #32768	@ 0x8000
 8002fba:	609a      	str	r2, [r3, #8]
 8002fbc:	685a      	ldr	r2, [r3, #4]
 8002fbe:	f422 6200 	bic.w	r2, r2, #2048	@ 0x800
 8002fc2:	e007      	b.n	8002fd4 <HAL_I2C_Init+0x60>
 8002fc4:	f442 4204 	orr.w	r2, r2, #33792	@ 0x8400
 8002fc8:	2902      	cmp	r1, #2
 8002fca:	609a      	str	r2, [r3, #8]
 8002fcc:	d1f6      	bne.n	8002fbc <HAL_I2C_Init+0x48>
 8002fce:	685a      	ldr	r2, [r3, #4]
 8002fd0:	f442 6200 	orr.w	r2, r2, #2048	@ 0x800
 8002fd4:	605a      	str	r2, [r3, #4]
 8002fd6:	2000      	movs	r0, #0
 8002fd8:	685a      	ldr	r2, [r3, #4]
 8002fda:	f042 7200 	orr.w	r2, r2, #33554432	@ 0x2000000
 8002fde:	f442 4200 	orr.w	r2, r2, #32768	@ 0x8000
 8002fe2:	605a      	str	r2, [r3, #4]
 8002fe4:	68da      	ldr	r2, [r3, #12]
 8002fe6:	f422 4200 	bic.w	r2, r2, #32768	@ 0x8000
 8002fea:	60da      	str	r2, [r3, #12]
 8002fec:	e9d4 2104 	ldrd	r2, r1, [r4, #16]
 8002ff0:	430a      	orrs	r2, r1
 8002ff2:	69a1      	ldr	r1, [r4, #24]
 8002ff4:	ea42 2201 	orr.w	r2, r2, r1, lsl #8
 8002ff8:	60da      	str	r2, [r3, #12]
 8002ffa:	e9d4 2107 	ldrd	r2, r1, [r4, #28]
 8002ffe:	430a      	orrs	r2, r1
 8003000:	601a      	str	r2, [r3, #0]
 8003002:	681a      	ldr	r2, [r3, #0]
 8003004:	f042 0201 	orr.w	r2, r2, #1
 8003008:	601a      	str	r2, [r3, #0]
 800300a:	2320      	movs	r3, #32
 800300c:	6460      	str	r0, [r4, #68]	@ 0x44
 800300e:	f884 3041 	strb.w	r3, [r4, #65]	@ 0x41
 8003012:	6320      	str	r0, [r4, #48]	@ 0x30
 8003014:	f884 0042 	strb.w	r0, [r4, #66]	@ 0x42
 8003018:	bd10      	pop	{r4, pc}
 800301a:	2001      	movs	r0, #1
 800301c:	e7fc      	b.n	8003018 <HAL_I2C_Init+0xa4>
	...

08003020 <HAL_I2C_Master_Transmit>:
 8003020:	e92d 47f3 	stmdb	sp!, {r0, r1, r4, r5, r6, r7, r8, r9, sl, lr}
 8003024:	4699      	mov	r9, r3
 8003026:	f890 3041 	ldrb.w	r3, [r0, #65]	@ 0x41
 800302a:	4604      	mov	r4, r0
 800302c:	460e      	mov	r6, r1
 800302e:	2b20      	cmp	r3, #32
 8003030:	4690      	mov	r8, r2
 8003032:	9f0a      	ldr	r7, [sp, #40]	@ 0x28
 8003034:	f040 809e 	bne.w	8003174 <HAL_I2C_Master_Transmit+0x154>
 8003038:	f890 3040 	ldrb.w	r3, [r0, #64]	@ 0x40
 800303c:	2b01      	cmp	r3, #1
 800303e:	f000 8099 	beq.w	8003174 <HAL_I2C_Master_Transmit+0x154>
 8003042:	f04f 0a01 	mov.w	sl, #1
 8003046:	f880 a040 	strb.w	sl, [r0, #64]	@ 0x40
 800304a:	f7ff f9d7 	bl	80023fc <HAL_GetTick>
 800304e:	2319      	movs	r3, #25
 8003050:	4605      	mov	r5, r0
 8003052:	9000      	str	r0, [sp, #0]
 8003054:	4652      	mov	r2, sl
 8003056:	f44f 4100 	mov.w	r1, #32768	@ 0x8000
 800305a:	4620      	mov	r0, r4
 800305c:	f7ff fed3 	bl	8002e06 <I2C_WaitOnFlagUntilTimeout>
 8003060:	b118      	cbz	r0, 800306a <HAL_I2C_Master_Transmit+0x4a>
 8003062:	2001      	movs	r0, #1
 8003064:	b002      	add	sp, #8
 8003066:	e8bd 87f0 	ldmia.w	sp!, {r4, r5, r6, r7, r8, r9, sl, pc}
 800306a:	2321      	movs	r3, #33	@ 0x21
 800306c:	f8c4 8024 	str.w	r8, [r4, #36]	@ 0x24
 8003070:	6360      	str	r0, [r4, #52]	@ 0x34
 8003072:	f884 3041 	strb.w	r3, [r4, #65]	@ 0x41
 8003076:	2310      	movs	r3, #16
 8003078:	f884 3042 	strb.w	r3, [r4, #66]	@ 0x42
 800307c:	6460      	str	r0, [r4, #68]	@ 0x44
 800307e:	f8a4 902a 	strh.w	r9, [r4, #42]	@ 0x2a
 8003082:	8d63      	ldrh	r3, [r4, #42]	@ 0x2a
 8003084:	b29b      	uxth	r3, r3
 8003086:	2bff      	cmp	r3, #255	@ 0xff
 8003088:	d916      	bls.n	80030b8 <HAL_I2C_Master_Transmit+0x98>
 800308a:	22ff      	movs	r2, #255	@ 0xff
 800308c:	f04f 7c80 	mov.w	ip, #16777216	@ 0x1000000
 8003090:	8522      	strh	r2, [r4, #40]	@ 0x28
 8003092:	4641      	mov	r1, r8
 8003094:	6823      	ldr	r3, [r4, #0]
 8003096:	3a01      	subs	r2, #1
 8003098:	f811 0b01 	ldrb.w	r0, [r1], #1
 800309c:	b292      	uxth	r2, r2
 800309e:	6298      	str	r0, [r3, #40]	@ 0x28
 80030a0:	4663      	mov	r3, ip
 80030a2:	6261      	str	r1, [r4, #36]	@ 0x24
 80030a4:	8d61      	ldrh	r1, [r4, #42]	@ 0x2a
 80030a6:	8522      	strh	r2, [r4, #40]	@ 0x28
 80030a8:	3201      	adds	r2, #1
 80030aa:	3901      	subs	r1, #1
 80030ac:	b289      	uxth	r1, r1
 80030ae:	8561      	strh	r1, [r4, #42]	@ 0x2a
 80030b0:	4931      	ldr	r1, [pc, #196]	@ (8003178 <HAL_I2C_Master_Transmit+0x158>)
 80030b2:	9100      	str	r1, [sp, #0]
 80030b4:	b2d2      	uxtb	r2, r2
 80030b6:	e00a      	b.n	80030ce <HAL_I2C_Master_Transmit+0xae>
 80030b8:	8d62      	ldrh	r2, [r4, #42]	@ 0x2a
 80030ba:	b292      	uxth	r2, r2
 80030bc:	8522      	strh	r2, [r4, #40]	@ 0x28
 80030be:	b112      	cbz	r2, 80030c6 <HAL_I2C_Master_Transmit+0xa6>
 80030c0:	f04f 7c00 	mov.w	ip, #33554432	@ 0x2000000
 80030c4:	e7e5      	b.n	8003092 <HAL_I2C_Master_Transmit+0x72>
 80030c6:	4b2c      	ldr	r3, [pc, #176]	@ (8003178 <HAL_I2C_Master_Transmit+0x158>)
 80030c8:	9300      	str	r3, [sp, #0]
 80030ca:	f04f 7300 	mov.w	r3, #33554432	@ 0x2000000
 80030ce:	4631      	mov	r1, r6
 80030d0:	4620      	mov	r0, r4
 80030d2:	f7ff fdd7 	bl	8002c84 <I2C_TransferConfig>
 80030d6:	8d63      	ldrh	r3, [r4, #42]	@ 0x2a
 80030d8:	462a      	mov	r2, r5
 80030da:	4639      	mov	r1, r7
 80030dc:	4620      	mov	r0, r4
 80030de:	b29b      	uxth	r3, r3
 80030e0:	b9bb      	cbnz	r3, 8003112 <HAL_I2C_Master_Transmit+0xf2>
 80030e2:	f7ff fecb 	bl	8002e7c <I2C_WaitOnSTOPFlagUntilTimeout>
 80030e6:	2800      	cmp	r0, #0
 80030e8:	d1bb      	bne.n	8003062 <HAL_I2C_Master_Transmit+0x42>
 80030ea:	6823      	ldr	r3, [r4, #0]
 80030ec:	2120      	movs	r1, #32
 80030ee:	61d9      	str	r1, [r3, #28]
 80030f0:	685a      	ldr	r2, [r3, #4]
 80030f2:	f022 72ff 	bic.w	r2, r2, #33423360	@ 0x1fe0000
 80030f6:	f422 328b 	bic.w	r2, r2, #71168	@ 0x11600
 80030fa:	f422 72ff 	bic.w	r2, r2, #510	@ 0x1fe
 80030fe:	f022 0201 	bic.w	r2, r2, #1
 8003102:	605a      	str	r2, [r3, #4]
 8003104:	f884 1041 	strb.w	r1, [r4, #65]	@ 0x41
 8003108:	f884 0040 	strb.w	r0, [r4, #64]	@ 0x40
 800310c:	f884 0042 	strb.w	r0, [r4, #66]	@ 0x42
 8003110:	e7a8      	b.n	8003064 <HAL_I2C_Master_Transmit+0x44>
 8003112:	f7ff fe4d 	bl	8002db0 <I2C_WaitOnTXISFlagUntilTimeout>
 8003116:	2800      	cmp	r0, #0
 8003118:	d1a3      	bne.n	8003062 <HAL_I2C_Master_Transmit+0x42>
 800311a:	6a63      	ldr	r3, [r4, #36]	@ 0x24
 800311c:	6822      	ldr	r2, [r4, #0]
 800311e:	f813 1b01 	ldrb.w	r1, [r3], #1
 8003122:	6291      	str	r1, [r2, #40]	@ 0x28
 8003124:	6263      	str	r3, [r4, #36]	@ 0x24
 8003126:	8d63      	ldrh	r3, [r4, #42]	@ 0x2a
 8003128:	8d22      	ldrh	r2, [r4, #40]	@ 0x28
 800312a:	3b01      	subs	r3, #1
 800312c:	3a01      	subs	r2, #1
 800312e:	b29b      	uxth	r3, r3
 8003130:	b292      	uxth	r2, r2
 8003132:	8563      	strh	r3, [r4, #42]	@ 0x2a
 8003134:	8d63      	ldrh	r3, [r4, #42]	@ 0x2a
 8003136:	8522      	strh	r2, [r4, #40]	@ 0x28
 8003138:	b29b      	uxth	r3, r3
 800313a:	2b00      	cmp	r3, #0
 800313c:	d0cb      	beq.n	80030d6 <HAL_I2C_Master_Transmit+0xb6>
 800313e:	2a00      	cmp	r2, #0
 8003140:	d1c9      	bne.n	80030d6 <HAL_I2C_Master_Transmit+0xb6>
 8003142:	463b      	mov	r3, r7
 8003144:	2180      	movs	r1, #128	@ 0x80
 8003146:	4620      	mov	r0, r4
 8003148:	9500      	str	r5, [sp, #0]
 800314a:	f7ff fe5c 	bl	8002e06 <I2C_WaitOnFlagUntilTimeout>
 800314e:	2800      	cmp	r0, #0
 8003150:	d187      	bne.n	8003062 <HAL_I2C_Master_Transmit+0x42>
 8003152:	8d63      	ldrh	r3, [r4, #42]	@ 0x2a
 8003154:	b29b      	uxth	r3, r3
 8003156:	2bff      	cmp	r3, #255	@ 0xff
 8003158:	d905      	bls.n	8003166 <HAL_I2C_Master_Transmit+0x146>
 800315a:	22ff      	movs	r2, #255	@ 0xff
 800315c:	f04f 7380 	mov.w	r3, #16777216	@ 0x1000000
 8003160:	8522      	strh	r2, [r4, #40]	@ 0x28
 8003162:	9000      	str	r0, [sp, #0]
 8003164:	e7b3      	b.n	80030ce <HAL_I2C_Master_Transmit+0xae>
 8003166:	8d62      	ldrh	r2, [r4, #42]	@ 0x2a
 8003168:	f04f 7300 	mov.w	r3, #33554432	@ 0x2000000
 800316c:	b292      	uxth	r2, r2
 800316e:	8522      	strh	r2, [r4, #40]	@ 0x28
 8003170:	9000      	str	r0, [sp, #0]
 8003172:	e79f      	b.n	80030b4 <HAL_I2C_Master_Transmit+0x94>
 8003174:	2002      	movs	r0, #2
 8003176:	e775      	b.n	8003064 <HAL_I2C_Master_Transmit+0x44>
 8003178:	80002000 	.word	0x80002000

0800317c <HAL_I2C_Master_Receive>:
 800317c:	e92d 47f3 	stmdb	sp!, {r0, r1, r4, r5, r6, r7, r8, r9, sl, lr}
 8003180:	4698      	mov	r8, r3
 8003182:	f890 3041 	ldrb.w	r3, [r0, #65]	@ 0x41
 8003186:	4604      	mov	r4, r0
 8003188:	460e      	mov	r6, r1
 800318a:	2b20      	cmp	r3, #32
 800318c:	4691      	mov	r9, r2
 800318e:	9f0a      	ldr	r7, [sp, #40]	@ 0x28
 8003190:	f040 808a 	bne.w	80032a8 <HAL_I2C_Master_Receive+0x12c>
 8003194:	f890 3040 	ldrb.w	r3, [r0, #64]	@ 0x40
 8003198:	2b01      	cmp	r3, #1
 800319a:	f000 8085 	beq.w	80032a8 <HAL_I2C_Master_Receive+0x12c>
 800319e:	f04f 0a01 	mov.w	sl, #1
 80031a2:	f880 a040 	strb.w	sl, [r0, #64]	@ 0x40
 80031a6:	f7ff f929 	bl	80023fc <HAL_GetTick>
 80031aa:	2319      	movs	r3, #25
 80031ac:	4605      	mov	r5, r0
 80031ae:	9000      	str	r0, [sp, #0]
 80031b0:	4652      	mov	r2, sl
 80031b2:	f44f 4100 	mov.w	r1, #32768	@ 0x8000
 80031b6:	4620      	mov	r0, r4
 80031b8:	f7ff fe25 	bl	8002e06 <I2C_WaitOnFlagUntilTimeout>
 80031bc:	b118      	cbz	r0, 80031c6 <HAL_I2C_Master_Receive+0x4a>
 80031be:	2001      	movs	r0, #1
 80031c0:	b002      	add	sp, #8
 80031c2:	e8bd 87f0 	ldmia.w	sp!, {r4, r5, r6, r7, r8, r9, sl, pc}
 80031c6:	2322      	movs	r3, #34	@ 0x22
 80031c8:	f8c4 9024 	str.w	r9, [r4, #36]	@ 0x24
 80031cc:	6360      	str	r0, [r4, #52]	@ 0x34
 80031ce:	f884 3041 	strb.w	r3, [r4, #65]	@ 0x41
 80031d2:	2310      	movs	r3, #16
 80031d4:	f884 3042 	strb.w	r3, [r4, #66]	@ 0x42
 80031d8:	6460      	str	r0, [r4, #68]	@ 0x44
 80031da:	f8a4 802a 	strh.w	r8, [r4, #42]	@ 0x2a
 80031de:	8d63      	ldrh	r3, [r4, #42]	@ 0x2a
 80031e0:	b29b      	uxth	r3, r3
 80031e2:	2bff      	cmp	r3, #255	@ 0xff
 80031e4:	4b31      	ldr	r3, [pc, #196]	@ (80032ac <HAL_I2C_Master_Receive+0x130>)
 80031e6:	d927      	bls.n	8003238 <HAL_I2C_Master_Receive+0xbc>
 80031e8:	f8a4 a028 	strh.w	sl, [r4, #40]	@ 0x28
 80031ec:	4652      	mov	r2, sl
 80031ee:	9300      	str	r3, [sp, #0]
 80031f0:	f04f 7380 	mov.w	r3, #16777216	@ 0x1000000
 80031f4:	4631      	mov	r1, r6
 80031f6:	4620      	mov	r0, r4
 80031f8:	f7ff fd44 	bl	8002c84 <I2C_TransferConfig>
 80031fc:	8d63      	ldrh	r3, [r4, #42]	@ 0x2a
 80031fe:	462a      	mov	r2, r5
 8003200:	4639      	mov	r1, r7
 8003202:	4620      	mov	r0, r4
 8003204:	b29b      	uxth	r3, r3
 8003206:	b9fb      	cbnz	r3, 8003248 <HAL_I2C_Master_Receive+0xcc>
 8003208:	f7ff fe38 	bl	8002e7c <I2C_WaitOnSTOPFlagUntilTimeout>
 800320c:	2800      	cmp	r0, #0
 800320e:	d1d6      	bne.n	80031be <HAL_I2C_Master_Receive+0x42>
 8003210:	6823      	ldr	r3, [r4, #0]
 8003212:	2120      	movs	r1, #32
 8003214:	61d9      	str	r1, [r3, #28]
 8003216:	685a      	ldr	r2, [r3, #4]
 8003218:	f022 72ff 	bic.w	r2, r2, #33423360	@ 0x1fe0000
 800321c:	f422 328b 	bic.w	r2, r2, #71168	@ 0x11600
 8003220:	f422 72ff 	bic.w	r2, r2, #510	@ 0x1fe
 8003224:	f022 0201 	bic.w	r2, r2, #1
 8003228:	605a      	str	r2, [r3, #4]
 800322a:	f884 1041 	strb.w	r1, [r4, #65]	@ 0x41
 800322e:	f884 0040 	strb.w	r0, [r4, #64]	@ 0x40
 8003232:	f884 0042 	strb.w	r0, [r4, #66]	@ 0x42
 8003236:	e7c3      	b.n	80031c0 <HAL_I2C_Master_Receive+0x44>
 8003238:	8d62      	ldrh	r2, [r4, #42]	@ 0x2a
 800323a:	b292      	uxth	r2, r2
 800323c:	8522      	strh	r2, [r4, #40]	@ 0x28
 800323e:	9300      	str	r3, [sp, #0]
 8003240:	f04f 7300 	mov.w	r3, #33554432	@ 0x2000000
 8003244:	b2d2      	uxtb	r2, r2
 8003246:	e7d5      	b.n	80031f4 <HAL_I2C_Master_Receive+0x78>
 8003248:	f7ff fe42 	bl	8002ed0 <I2C_WaitOnRXNEFlagUntilTimeout>
 800324c:	2800      	cmp	r0, #0
 800324e:	d1b6      	bne.n	80031be <HAL_I2C_Master_Receive+0x42>
 8003250:	6823      	ldr	r3, [r4, #0]
 8003252:	6a5a      	ldr	r2, [r3, #36]	@ 0x24
 8003254:	6a63      	ldr	r3, [r4, #36]	@ 0x24
 8003256:	701a      	strb	r2, [r3, #0]
 8003258:	6a63      	ldr	r3, [r4, #36]	@ 0x24
 800325a:	8d22      	ldrh	r2, [r4, #40]	@ 0x28
 800325c:	3301      	adds	r3, #1
 800325e:	3a01      	subs	r2, #1
 8003260:	6263      	str	r3, [r4, #36]	@ 0x24
 8003262:	8d63      	ldrh	r3, [r4, #42]	@ 0x2a
 8003264:	b292      	uxth	r2, r2
 8003266:	3b01      	subs	r3, #1
 8003268:	8522      	strh	r2, [r4, #40]	@ 0x28
 800326a:	b29b      	uxth	r3, r3
 800326c:	8563      	strh	r3, [r4, #42]	@ 0x2a
 800326e:	8d63      	ldrh	r3, [r4, #42]	@ 0x2a
 8003270:	b29b      	uxth	r3, r3
 8003272:	2b00      	cmp	r3, #0
 8003274:	d0c2      	beq.n	80031fc <HAL_I2C_Master_Receive+0x80>
 8003276:	2a00      	cmp	r2, #0
 8003278:	d1c0      	bne.n	80031fc <HAL_I2C_Master_Receive+0x80>
 800327a:	463b      	mov	r3, r7
 800327c:	2180      	movs	r1, #128	@ 0x80
 800327e:	4620      	mov	r0, r4
 8003280:	9500      	str	r5, [sp, #0]
 8003282:	f7ff fdc0 	bl	8002e06 <I2C_WaitOnFlagUntilTimeout>
 8003286:	2800      	cmp	r0, #0
 8003288:	d199      	bne.n	80031be <HAL_I2C_Master_Receive+0x42>
 800328a:	8d63      	ldrh	r3, [r4, #42]	@ 0x2a
 800328c:	b29b      	uxth	r3, r3
 800328e:	2bff      	cmp	r3, #255	@ 0xff
 8003290:	d905      	bls.n	800329e <HAL_I2C_Master_Receive+0x122>
 8003292:	22ff      	movs	r2, #255	@ 0xff
 8003294:	f04f 7380 	mov.w	r3, #16777216	@ 0x1000000
 8003298:	8522      	strh	r2, [r4, #40]	@ 0x28
 800329a:	9000      	str	r0, [sp, #0]
 800329c:	e7aa      	b.n	80031f4 <HAL_I2C_Master_Receive+0x78>
 800329e:	8d62      	ldrh	r2, [r4, #42]	@ 0x2a
 80032a0:	b292      	uxth	r2, r2
 80032a2:	8522      	strh	r2, [r4, #40]	@ 0x28
 80032a4:	9000      	str	r0, [sp, #0]
 80032a6:	e7cb      	b.n	8003240 <HAL_I2C_Master_Receive+0xc4>
 80032a8:	2002      	movs	r0, #2
 80032aa:	e789      	b.n	80031c0 <HAL_I2C_Master_Receive+0x44>
 80032ac:	80002400 	.word	0x80002400

080032b0 <HAL_I2C_Mem_Write>:
 80032b0:	e92d 4ff7 	stmdb	sp!, {r0, r1, r2, r4, r5, r6, r7, r8, r9, sl, fp, lr}
 80032b4:	4699      	mov	r9, r3
 80032b6:	f890 3041 	ldrb.w	r3, [r0, #65]	@ 0x41
 80032ba:	4604      	mov	r4, r0
 80032bc:	460f      	mov	r7, r1
 80032be:	2b20      	cmp	r3, #32
 80032c0:	4616      	mov	r6, r2
 80032c2:	f8bd a034 	ldrh.w	sl, [sp, #52]	@ 0x34
 80032c6:	f8dd 8038 	ldr.w	r8, [sp, #56]	@ 0x38
 80032ca:	f040 80c6 	bne.w	800345a <HAL_I2C_Mem_Write+0x1aa>
 80032ce:	9b0c      	ldr	r3, [sp, #48]	@ 0x30
 80032d0:	b113      	cbz	r3, 80032d8 <HAL_I2C_Mem_Write+0x28>
 80032d2:	f1ba 0f00 	cmp.w	sl, #0
 80032d6:	d106      	bne.n	80032e6 <HAL_I2C_Mem_Write+0x36>
 80032d8:	f44f 7300 	mov.w	r3, #512	@ 0x200
 80032dc:	6463      	str	r3, [r4, #68]	@ 0x44
 80032de:	2001      	movs	r0, #1
 80032e0:	b003      	add	sp, #12
 80032e2:	e8bd 8ff0 	ldmia.w	sp!, {r4, r5, r6, r7, r8, r9, sl, fp, pc}
 80032e6:	f890 3040 	ldrb.w	r3, [r0, #64]	@ 0x40
 80032ea:	2b01      	cmp	r3, #1
 80032ec:	f000 80b5 	beq.w	800345a <HAL_I2C_Mem_Write+0x1aa>
 80032f0:	f04f 0b01 	mov.w	fp, #1
 80032f4:	f880 b040 	strb.w	fp, [r0, #64]	@ 0x40
 80032f8:	f7ff f880 	bl	80023fc <HAL_GetTick>
 80032fc:	2319      	movs	r3, #25
 80032fe:	4605      	mov	r5, r0
 8003300:	9000      	str	r0, [sp, #0]
 8003302:	465a      	mov	r2, fp
 8003304:	f44f 4100 	mov.w	r1, #32768	@ 0x8000
 8003308:	4620      	mov	r0, r4
 800330a:	f7ff fd7c 	bl	8002e06 <I2C_WaitOnFlagUntilTimeout>
 800330e:	2800      	cmp	r0, #0
 8003310:	d1e5      	bne.n	80032de <HAL_I2C_Mem_Write+0x2e>
 8003312:	2321      	movs	r3, #33	@ 0x21
 8003314:	6360      	str	r0, [r4, #52]	@ 0x34
 8003316:	fa5f f289 	uxtb.w	r2, r9
 800331a:	4639      	mov	r1, r7
 800331c:	f884 3041 	strb.w	r3, [r4, #65]	@ 0x41
 8003320:	2340      	movs	r3, #64	@ 0x40
 8003322:	f884 3042 	strb.w	r3, [r4, #66]	@ 0x42
 8003326:	9b0c      	ldr	r3, [sp, #48]	@ 0x30
 8003328:	6460      	str	r0, [r4, #68]	@ 0x44
 800332a:	4620      	mov	r0, r4
 800332c:	6263      	str	r3, [r4, #36]	@ 0x24
 800332e:	4b4c      	ldr	r3, [pc, #304]	@ (8003460 <HAL_I2C_Mem_Write+0x1b0>)
 8003330:	f8a4 a02a 	strh.w	sl, [r4, #42]	@ 0x2a
 8003334:	9300      	str	r3, [sp, #0]
 8003336:	f04f 7380 	mov.w	r3, #16777216	@ 0x1000000
 800333a:	f7ff fca3 	bl	8002c84 <I2C_TransferConfig>
 800333e:	462a      	mov	r2, r5
 8003340:	4641      	mov	r1, r8
 8003342:	4620      	mov	r0, r4
 8003344:	f7ff fd34 	bl	8002db0 <I2C_WaitOnTXISFlagUntilTimeout>
 8003348:	bb18      	cbnz	r0, 8003392 <HAL_I2C_Mem_Write+0xe2>
 800334a:	f1b9 0f01 	cmp.w	r9, #1
 800334e:	6823      	ldr	r3, [r4, #0]
 8003350:	d115      	bne.n	800337e <HAL_I2C_Mem_Write+0xce>
 8003352:	b2f6      	uxtb	r6, r6
 8003354:	2200      	movs	r2, #0
 8003356:	2180      	movs	r1, #128	@ 0x80
 8003358:	4620      	mov	r0, r4
 800335a:	629e      	str	r6, [r3, #40]	@ 0x28
 800335c:	4643      	mov	r3, r8
 800335e:	9500      	str	r5, [sp, #0]
 8003360:	f7ff fd51 	bl	8002e06 <I2C_WaitOnFlagUntilTimeout>
 8003364:	b9a8      	cbnz	r0, 8003392 <HAL_I2C_Mem_Write+0xe2>
 8003366:	8d63      	ldrh	r3, [r4, #42]	@ 0x2a
 8003368:	b29b      	uxth	r3, r3
 800336a:	2bff      	cmp	r3, #255	@ 0xff
 800336c:	d815      	bhi.n	800339a <HAL_I2C_Mem_Write+0xea>
 800336e:	8d62      	ldrh	r2, [r4, #42]	@ 0x2a
 8003370:	f04f 7300 	mov.w	r3, #33554432	@ 0x2000000
 8003374:	b292      	uxth	r2, r2
 8003376:	8522      	strh	r2, [r4, #40]	@ 0x28
 8003378:	b2d2      	uxtb	r2, r2
 800337a:	9000      	str	r0, [sp, #0]
 800337c:	e012      	b.n	80033a4 <HAL_I2C_Mem_Write+0xf4>
 800337e:	0a32      	lsrs	r2, r6, #8
 8003380:	4641      	mov	r1, r8
 8003382:	4620      	mov	r0, r4
 8003384:	629a      	str	r2, [r3, #40]	@ 0x28
 8003386:	462a      	mov	r2, r5
 8003388:	f7ff fd12 	bl	8002db0 <I2C_WaitOnTXISFlagUntilTimeout>
 800338c:	b908      	cbnz	r0, 8003392 <HAL_I2C_Mem_Write+0xe2>
 800338e:	6823      	ldr	r3, [r4, #0]
 8003390:	e7df      	b.n	8003352 <HAL_I2C_Mem_Write+0xa2>
 8003392:	2300      	movs	r3, #0
 8003394:	f884 3040 	strb.w	r3, [r4, #64]	@ 0x40
 8003398:	e7a1      	b.n	80032de <HAL_I2C_Mem_Write+0x2e>
 800339a:	22ff      	movs	r2, #255	@ 0xff
 800339c:	f04f 7380 	mov.w	r3, #16777216	@ 0x1000000
 80033a0:	8522      	strh	r2, [r4, #40]	@ 0x28
 80033a2:	9000      	str	r0, [sp, #0]
 80033a4:	4639      	mov	r1, r7
 80033a6:	4620      	mov	r0, r4
 80033a8:	f7ff fc6c 	bl	8002c84 <I2C_TransferConfig>
 80033ac:	462a      	mov	r2, r5
 80033ae:	4641      	mov	r1, r8
 80033b0:	4620      	mov	r0, r4
 80033b2:	f7ff fcfd 	bl	8002db0 <I2C_WaitOnTXISFlagUntilTimeout>
 80033b6:	2800      	cmp	r0, #0
 80033b8:	d191      	bne.n	80032de <HAL_I2C_Mem_Write+0x2e>
 80033ba:	6a63      	ldr	r3, [r4, #36]	@ 0x24
 80033bc:	6822      	ldr	r2, [r4, #0]
 80033be:	f813 1b01 	ldrb.w	r1, [r3], #1
 80033c2:	6291      	str	r1, [r2, #40]	@ 0x28
 80033c4:	6263      	str	r3, [r4, #36]	@ 0x24
 80033c6:	8d63      	ldrh	r3, [r4, #42]	@ 0x2a
 80033c8:	8d22      	ldrh	r2, [r4, #40]	@ 0x28
 80033ca:	3b01      	subs	r3, #1
 80033cc:	3a01      	subs	r2, #1
 80033ce:	b29b      	uxth	r3, r3
 80033d0:	b292      	uxth	r2, r2
 80033d2:	8563      	strh	r3, [r4, #42]	@ 0x2a
 80033d4:	8d63      	ldrh	r3, [r4, #42]	@ 0x2a
 80033d6:	8522      	strh	r2, [r4, #40]	@ 0x28
 80033d8:	b29b      	uxth	r3, r3
 80033da:	b1b3      	cbz	r3, 800340a <HAL_I2C_Mem_Write+0x15a>
 80033dc:	b9aa      	cbnz	r2, 800340a <HAL_I2C_Mem_Write+0x15a>
 80033de:	4643      	mov	r3, r8
 80033e0:	2180      	movs	r1, #128	@ 0x80
 80033e2:	4620      	mov	r0, r4
 80033e4:	9500      	str	r5, [sp, #0]
 80033e6:	f7ff fd0e 	bl	8002e06 <I2C_WaitOnFlagUntilTimeout>
 80033ea:	2800      	cmp	r0, #0
 80033ec:	f47f af77 	bne.w	80032de <HAL_I2C_Mem_Write+0x2e>
 80033f0:	8d63      	ldrh	r3, [r4, #42]	@ 0x2a
 80033f2:	b29b      	uxth	r3, r3
 80033f4:	2bff      	cmp	r3, #255	@ 0xff
 80033f6:	d928      	bls.n	800344a <HAL_I2C_Mem_Write+0x19a>
 80033f8:	22ff      	movs	r2, #255	@ 0xff
 80033fa:	f04f 7380 	mov.w	r3, #16777216	@ 0x1000000
 80033fe:	8522      	strh	r2, [r4, #40]	@ 0x28
 8003400:	9000      	str	r0, [sp, #0]
 8003402:	4639      	mov	r1, r7
 8003404:	4620      	mov	r0, r4
 8003406:	f7ff fc3d 	bl	8002c84 <I2C_TransferConfig>
 800340a:	8d63      	ldrh	r3, [r4, #42]	@ 0x2a
 800340c:	b29b      	uxth	r3, r3
 800340e:	2b00      	cmp	r3, #0
 8003410:	d1cc      	bne.n	80033ac <HAL_I2C_Mem_Write+0xfc>
 8003412:	462a      	mov	r2, r5
 8003414:	4641      	mov	r1, r8
 8003416:	4620      	mov	r0, r4
 8003418:	f7ff fd30 	bl	8002e7c <I2C_WaitOnSTOPFlagUntilTimeout>
 800341c:	2800      	cmp	r0, #0
 800341e:	f47f af5e 	bne.w	80032de <HAL_I2C_Mem_Write+0x2e>
 8003422:	6823      	ldr	r3, [r4, #0]
 8003424:	2120      	movs	r1, #32
 8003426:	61d9      	str	r1, [r3, #28]
 8003428:	685a      	ldr	r2, [r3, #4]
 800342a:	f022 72ff 	bic.w	r2, r2, #33423360	@ 0x1fe0000
 800342e:	f422 328b 	bic.w	r2, r2, #71168	@ 0x11600
 8003432:	f422 72ff 	bic.w	r2, r2, #510	@ 0x1fe
 8003436:	f022 0201 	bic.w	r2, r2, #1
 800343a:	605a      	str	r2, [r3, #4]
 800343c:	f884 1041 	strb.w	r1, [r4, #65]	@ 0x41
 8003440:	f884 0040 	strb.w	r0, [r4, #64]	@ 0x40
 8003444:	f884 0042 	strb.w	r0, [r4, #66]	@ 0x42
 8003448:	e74a      	b.n	80032e0 <HAL_I2C_Mem_Write+0x30>
 800344a:	8d62      	ldrh	r2, [r4, #42]	@ 0x2a
 800344c:	f04f 7300 	mov.w	r3, #33554432	@ 0x2000000
 8003450:	b292      	uxth	r2, r2
 8003452:	8522      	strh	r2, [r4, #40]	@ 0x28
 8003454:	b2d2      	uxtb	r2, r2
 8003456:	9000      	str	r0, [sp, #0]
 8003458:	e7d3      	b.n	8003402 <HAL_I2C_Mem_Write+0x152>
 800345a:	2002      	movs	r0, #2
 800345c:	e740      	b.n	80032e0 <HAL_I2C_Mem_Write+0x30>
 800345e:	bf00      	nop
 8003460:	80002000 	.word	0x80002000

08003464 <HAL_I2C_Mem_Read>:
 8003464:	e92d 4ff7 	stmdb	sp!, {r0, r1, r2, r4, r5, r6, r7, r8, r9, sl, fp, lr}
 8003468:	4699      	mov	r9, r3
 800346a:	f890 3041 	ldrb.w	r3, [r0, #65]	@ 0x41
 800346e:	4604      	mov	r4, r0
 8003470:	460f      	mov	r7, r1
 8003472:	2b20      	cmp	r3, #32
 8003474:	4616      	mov	r6, r2
 8003476:	f8bd a034 	ldrh.w	sl, [sp, #52]	@ 0x34
 800347a:	f8dd 8038 	ldr.w	r8, [sp, #56]	@ 0x38
 800347e:	f040 80c9 	bne.w	8003614 <HAL_I2C_Mem_Read+0x1b0>
 8003482:	9b0c      	ldr	r3, [sp, #48]	@ 0x30
 8003484:	b113      	cbz	r3, 800348c <HAL_I2C_Mem_Read+0x28>
 8003486:	f1ba 0f00 	cmp.w	sl, #0
 800348a:	d106      	bne.n	800349a <HAL_I2C_Mem_Read+0x36>
 800348c:	f44f 7300 	mov.w	r3, #512	@ 0x200
 8003490:	6463      	str	r3, [r4, #68]	@ 0x44
 8003492:	2001      	movs	r0, #1
 8003494:	b003      	add	sp, #12
 8003496:	e8bd 8ff0 	ldmia.w	sp!, {r4, r5, r6, r7, r8, r9, sl, fp, pc}
 800349a:	f890 3040 	ldrb.w	r3, [r0, #64]	@ 0x40
 800349e:	2b01      	cmp	r3, #1
 80034a0:	f000 80b8 	beq.w	8003614 <HAL_I2C_Mem_Read+0x1b0>
 80034a4:	f04f 0b01 	mov.w	fp, #1
 80034a8:	f880 b040 	strb.w	fp, [r0, #64]	@ 0x40
 80034ac:	f7fe ffa6 	bl	80023fc <HAL_GetTick>
 80034b0:	2319      	movs	r3, #25
 80034b2:	9000      	str	r0, [sp, #0]
 80034b4:	4605      	mov	r5, r0
 80034b6:	465a      	mov	r2, fp
 80034b8:	f44f 4100 	mov.w	r1, #32768	@ 0x8000
 80034bc:	4620      	mov	r0, r4
 80034be:	f7ff fca2 	bl	8002e06 <I2C_WaitOnFlagUntilTimeout>
 80034c2:	4603      	mov	r3, r0
 80034c4:	2800      	cmp	r0, #0
 80034c6:	d1e4      	bne.n	8003492 <HAL_I2C_Mem_Read+0x2e>
 80034c8:	2222      	movs	r2, #34	@ 0x22
 80034ca:	6360      	str	r0, [r4, #52]	@ 0x34
 80034cc:	4639      	mov	r1, r7
 80034ce:	f884 2041 	strb.w	r2, [r4, #65]	@ 0x41
 80034d2:	2240      	movs	r2, #64	@ 0x40
 80034d4:	f884 2042 	strb.w	r2, [r4, #66]	@ 0x42
 80034d8:	9a0c      	ldr	r2, [sp, #48]	@ 0x30
 80034da:	6460      	str	r0, [r4, #68]	@ 0x44
 80034dc:	4620      	mov	r0, r4
 80034de:	6262      	str	r2, [r4, #36]	@ 0x24
 80034e0:	4a4d      	ldr	r2, [pc, #308]	@ (8003618 <HAL_I2C_Mem_Read+0x1b4>)
 80034e2:	f8a4 a02a 	strh.w	sl, [r4, #42]	@ 0x2a
 80034e6:	9200      	str	r2, [sp, #0]
 80034e8:	fa5f f289 	uxtb.w	r2, r9
 80034ec:	f7ff fbca 	bl	8002c84 <I2C_TransferConfig>
 80034f0:	462a      	mov	r2, r5
 80034f2:	4641      	mov	r1, r8
 80034f4:	4620      	mov	r0, r4
 80034f6:	f7ff fc5b 	bl	8002db0 <I2C_WaitOnTXISFlagUntilTimeout>
 80034fa:	bb20      	cbnz	r0, 8003546 <HAL_I2C_Mem_Read+0xe2>
 80034fc:	f1b9 0f01 	cmp.w	r9, #1
 8003500:	6823      	ldr	r3, [r4, #0]
 8003502:	d116      	bne.n	8003532 <HAL_I2C_Mem_Read+0xce>
 8003504:	b2f6      	uxtb	r6, r6
 8003506:	2200      	movs	r2, #0
 8003508:	2140      	movs	r1, #64	@ 0x40
 800350a:	4620      	mov	r0, r4
 800350c:	629e      	str	r6, [r3, #40]	@ 0x28
 800350e:	4643      	mov	r3, r8
 8003510:	9500      	str	r5, [sp, #0]
 8003512:	f7ff fc78 	bl	8002e06 <I2C_WaitOnFlagUntilTimeout>
 8003516:	b9b0      	cbnz	r0, 8003546 <HAL_I2C_Mem_Read+0xe2>
 8003518:	8d63      	ldrh	r3, [r4, #42]	@ 0x2a
 800351a:	b29b      	uxth	r3, r3
 800351c:	2bff      	cmp	r3, #255	@ 0xff
 800351e:	4b3f      	ldr	r3, [pc, #252]	@ (800361c <HAL_I2C_Mem_Read+0x1b8>)
 8003520:	d815      	bhi.n	800354e <HAL_I2C_Mem_Read+0xea>
 8003522:	8d62      	ldrh	r2, [r4, #42]	@ 0x2a
 8003524:	b292      	uxth	r2, r2
 8003526:	8522      	strh	r2, [r4, #40]	@ 0x28
 8003528:	b2d2      	uxtb	r2, r2
 800352a:	9300      	str	r3, [sp, #0]
 800352c:	f04f 7300 	mov.w	r3, #33554432	@ 0x2000000
 8003530:	e012      	b.n	8003558 <HAL_I2C_Mem_Read+0xf4>
 8003532:	0a32      	lsrs	r2, r6, #8
 8003534:	4641      	mov	r1, r8
 8003536:	4620      	mov	r0, r4
 8003538:	629a      	str	r2, [r3, #40]	@ 0x28
 800353a:	462a      	mov	r2, r5
 800353c:	f7ff fc38 	bl	8002db0 <I2C_WaitOnTXISFlagUntilTimeout>
 8003540:	b908      	cbnz	r0, 8003546 <HAL_I2C_Mem_Read+0xe2>
 8003542:	6823      	ldr	r3, [r4, #0]
 8003544:	e7de      	b.n	8003504 <HAL_I2C_Mem_Read+0xa0>
 8003546:	2300      	movs	r3, #0
 8003548:	f884 3040 	strb.w	r3, [r4, #64]	@ 0x40
 800354c:	e7a1      	b.n	8003492 <HAL_I2C_Mem_Read+0x2e>
 800354e:	2201      	movs	r2, #1
 8003550:	8522      	strh	r2, [r4, #40]	@ 0x28
 8003552:	9300      	str	r3, [sp, #0]
 8003554:	f04f 7380 	mov.w	r3, #16777216	@ 0x1000000
 8003558:	4639      	mov	r1, r7
 800355a:	4620      	mov	r0, r4
 800355c:	f7ff fb92 	bl	8002c84 <I2C_TransferConfig>
 8003560:	4643      	mov	r3, r8
 8003562:	2200      	movs	r2, #0
 8003564:	2104      	movs	r1, #4
 8003566:	4620      	mov	r0, r4
 8003568:	9500      	str	r5, [sp, #0]
 800356a:	f7ff fc4c 	bl	8002e06 <I2C_WaitOnFlagUntilTimeout>
 800356e:	2800      	cmp	r0, #0
 8003570:	d18f      	bne.n	8003492 <HAL_I2C_Mem_Read+0x2e>
 8003572:	6823      	ldr	r3, [r4, #0]
 8003574:	6a5a      	ldr	r2, [r3, #36]	@ 0x24
 8003576:	6a63      	ldr	r3, [r4, #36]	@ 0x24
 8003578:	701a      	strb	r2, [r3, #0]
 800357a:	6a63      	ldr	r3, [r4, #36]	@ 0x24
 800357c:	8d22      	ldrh	r2, [r4, #40]	@ 0x28
 800357e:	3301      	adds	r3, #1
 8003580:	3a01      	subs	r2, #1
 8003582:	6263      	str	r3, [r4, #36]	@ 0x24
 8003584:	8d63      	ldrh	r3, [r4, #42]	@ 0x2a
 8003586:	b292      	uxth	r2, r2
 8003588:	3b01      	subs	r3, #1
 800358a:	8522      	strh	r2, [r4, #40]	@ 0x28
 800358c:	b29b      	uxth	r3, r3
 800358e:	8563      	strh	r3, [r4, #42]	@ 0x2a
 8003590:	8d63      	ldrh	r3, [r4, #42]	@ 0x2a
 8003592:	b29b      	uxth	r3, r3
 8003594:	b1b3      	cbz	r3, 80035c4 <HAL_I2C_Mem_Read+0x160>
 8003596:	b9aa      	cbnz	r2, 80035c4 <HAL_I2C_Mem_Read+0x160>
 8003598:	4643      	mov	r3, r8
 800359a:	2180      	movs	r1, #128	@ 0x80
 800359c:	4620      	mov	r0, r4
 800359e:	9500      	str	r5, [sp, #0]
 80035a0:	f7ff fc31 	bl	8002e06 <I2C_WaitOnFlagUntilTimeout>
 80035a4:	2800      	cmp	r0, #0
 80035a6:	f47f af74 	bne.w	8003492 <HAL_I2C_Mem_Read+0x2e>
 80035aa:	8d63      	ldrh	r3, [r4, #42]	@ 0x2a
 80035ac:	b29b      	uxth	r3, r3
 80035ae:	2bff      	cmp	r3, #255	@ 0xff
 80035b0:	d928      	bls.n	8003604 <HAL_I2C_Mem_Read+0x1a0>
 80035b2:	2201      	movs	r2, #1
 80035b4:	f04f 7380 	mov.w	r3, #16777216	@ 0x1000000
 80035b8:	8522      	strh	r2, [r4, #40]	@ 0x28
 80035ba:	9000      	str	r0, [sp, #0]
 80035bc:	4639      	mov	r1, r7
 80035be:	4620      	mov	r0, r4
 80035c0:	f7ff fb60 	bl	8002c84 <I2C_TransferConfig>
 80035c4:	8d63      	ldrh	r3, [r4, #42]	@ 0x2a
 80035c6:	b29b      	uxth	r3, r3
 80035c8:	2b00      	cmp	r3, #0
 80035ca:	d1c9      	bne.n	8003560 <HAL_I2C_Mem_Read+0xfc>
 80035cc:	462a      	mov	r2, r5
 80035ce:	4641      	mov	r1, r8
 80035d0:	4620      	mov	r0, r4
 80035d2:	f7ff fc53 	bl	8002e7c <I2C_WaitOnSTOPFlagUntilTimeout>
 80035d6:	2800      	cmp	r0, #0
 80035d8:	f47f af5b 	bne.w	8003492 <HAL_I2C_Mem_Read+0x2e>
 80035dc:	6823      	ldr	r3, [r4, #0]
 80035de:	2120      	movs	r1, #32
 80035e0:	61d9      	str	r1, [r3, #28]
 80035e2:	685a      	ldr	r2, [r3, #4]
 80035e4:	f022 72ff 	bic.w	r2, r2, #33423360	@ 0x1fe0000
 80035e8:	f422 328b 	bic.w	r2, r2, #71168	@ 0x11600
 80035ec:	f422 72ff 	bic.w	r2, r2, #510	@ 0x1fe
 80035f0:	f022 0201 	bic.w	r2, r2, #1
 80035f4:	605a      	str	r2, [r3, #4]
 80035f6:	f884 1041 	strb.w	r1, [r4, #65]	@ 0x41
 80035fa:	f884 0040 	strb.w	r0, [r4, #64]	@ 0x40
 80035fe:	f884 0042 	strb.w	r0, [r4, #66]	@ 0x42
 8003602:	e747      	b.n	8003494 <HAL_I2C_Mem_Read+0x30>
 8003604:	8d62      	ldrh	r2, [r4, #42]	@ 0x2a
 8003606:	f04f 7300 	mov.w	r3, #33554432	@ 0x2000000
 800360a:	b292      	uxth	r2, r2
 800360c:	8522      	strh	r2, [r4, #40]	@ 0x28
 800360e:	b2d2      	uxtb	r2, r2
 8003610:	9000      	str	r0, [sp, #0]
 8003612:	e7d3      	b.n	80035bc <HAL_I2C_Mem_Read+0x158>
 8003614:	2002      	movs	r0, #2
 8003616:	e73d      	b.n	8003494 <HAL_I2C_Mem_Read+0x30>
 8003618:	80002000 	.word	0x80002000
 800361c:	80002400 	.word	0x80002400

08003620 <HAL_I2CEx_ConfigAnalogFilter>:
 8003620:	b510      	push	{r4, lr}
 8003622:	f890 2041 	ldrb.w	r2, [r0, #65]	@ 0x41
 8003626:	4603      	mov	r3, r0
 8003628:	2a20      	cmp	r2, #32
 800362a:	b2d4      	uxtb	r4, r2
 800362c:	d11c      	bne.n	8003668 <HAL_I2CEx_ConfigAnalogFilter+0x48>
 800362e:	f890 2040 	ldrb.w	r2, [r0, #64]	@ 0x40
 8003632:	2a01      	cmp	r2, #1
 8003634:	d018      	beq.n	8003668 <HAL_I2CEx_ConfigAnalogFilter+0x48>
 8003636:	2224      	movs	r2, #36	@ 0x24
 8003638:	f880 2041 	strb.w	r2, [r0, #65]	@ 0x41
 800363c:	6802      	ldr	r2, [r0, #0]
 800363e:	6810      	ldr	r0, [r2, #0]
 8003640:	f020 0001 	bic.w	r0, r0, #1
 8003644:	6010      	str	r0, [r2, #0]
 8003646:	6810      	ldr	r0, [r2, #0]
 8003648:	f420 5080 	bic.w	r0, r0, #4096	@ 0x1000
 800364c:	6010      	str	r0, [r2, #0]
 800364e:	6810      	ldr	r0, [r2, #0]
 8003650:	4301      	orrs	r1, r0
 8003652:	2000      	movs	r0, #0
 8003654:	6011      	str	r1, [r2, #0]
 8003656:	6811      	ldr	r1, [r2, #0]
 8003658:	f041 0101 	orr.w	r1, r1, #1
 800365c:	6011      	str	r1, [r2, #0]
 800365e:	f883 4041 	strb.w	r4, [r3, #65]	@ 0x41
 8003662:	f883 0040 	strb.w	r0, [r3, #64]	@ 0x40
 8003666:	bd10      	pop	{r4, pc}
 8003668:	2002      	movs	r0, #2
 800366a:	e7fc      	b.n	8003666 <HAL_I2CEx_ConfigAnalogFilter+0x46>

0800366c <HAL_I2CEx_ConfigDigitalFilter>:
 800366c:	b510      	push	{r4, lr}
 800366e:	f890 2041 	ldrb.w	r2, [r0, #65]	@ 0x41
 8003672:	4603      	mov	r3, r0
 8003674:	2a20      	cmp	r2, #32
 8003676:	b2d4      	uxtb	r4, r2
 8003678:	d11b      	bne.n	80036b2 <HAL_I2CEx_ConfigDigitalFilter+0x46>
 800367a:	f890 2040 	ldrb.w	r2, [r0, #64]	@ 0x40
 800367e:	2a01      	cmp	r2, #1
 8003680:	d017      	beq.n	80036b2 <HAL_I2CEx_ConfigDigitalFilter+0x46>
 8003682:	2224      	movs	r2, #36	@ 0x24
 8003684:	f880 2041 	strb.w	r2, [r0, #65]	@ 0x41
 8003688:	6802      	ldr	r2, [r0, #0]
 800368a:	6810      	ldr	r0, [r2, #0]
 800368c:	f020 0001 	bic.w	r0, r0, #1
 8003690:	6010      	str	r0, [r2, #0]
 8003692:	6810      	ldr	r0, [r2, #0]
 8003694:	f420 6070 	bic.w	r0, r0, #3840	@ 0xf00
 8003698:	ea40 2101 	orr.w	r1, r0, r1, lsl #8
 800369c:	2000      	movs	r0, #0
 800369e:	6011      	str	r1, [r2, #0]
 80036a0:	6811      	ldr	r1, [r2, #0]
 80036a2:	f041 0101 	orr.w	r1, r1, #1
 80036a6:	6011      	str	r1, [r2, #0]
 80036a8:	f883 4041 	strb.w	r4, [r3, #65]	@ 0x41
 80036ac:	f883 0040 	strb.w	r0, [r3, #64]	@ 0x40
 80036b0:	bd10      	pop	{r4, pc}
 80036b2:	2002      	movs	r0, #2
 80036b4:	e7fc      	b.n	80036b0 <HAL_I2CEx_ConfigDigitalFilter+0x44>

080036b6 <HAL_PCD_Init>:
 80036b6:	b5f7      	push	{r0, r1, r2, r4, r5, r6, r7, lr}
 80036b8:	4604      	mov	r4, r0
 80036ba:	b318      	cbz	r0, 8003704 <HAL_PCD_Init+0x4e>
 80036bc:	f890 3495 	ldrb.w	r3, [r0, #1173]	@ 0x495
 80036c0:	6805      	ldr	r5, [r0, #0]
 80036c2:	f003 02ff 	and.w	r2, r3, #255	@ 0xff
 80036c6:	b91b      	cbnz	r3, 80036d0 <HAL_PCD_Init+0x1a>
 80036c8:	f880 2494 	strb.w	r2, [r0, #1172]	@ 0x494
 80036cc:	f004 fcea 	bl	80080a4 <HAL_PCD_MspInit>
 80036d0:	2303      	movs	r3, #3
 80036d2:	f1b5 4fa0 	cmp.w	r5, #1342177280	@ 0x50000000
 80036d6:	6820      	ldr	r0, [r4, #0]
 80036d8:	f104 0504 	add.w	r5, r4, #4
 80036dc:	f884 3495 	strb.w	r3, [r4, #1173]	@ 0x495
 80036e0:	bf04      	itt	eq
 80036e2:	2300      	moveq	r3, #0
 80036e4:	71a3      	strbeq	r3, [r4, #6]
 80036e6:	f002 fbd7 	bl	8005e98 <USB_DisableGlobalInt>
 80036ea:	7c23      	ldrb	r3, [r4, #16]
 80036ec:	f88d 3000 	strb.w	r3, [sp]
 80036f0:	6820      	ldr	r0, [r4, #0]
 80036f2:	e895 000e 	ldmia.w	r5, {r1, r2, r3}
 80036f6:	f002 fad9 	bl	8005cac <USB_CoreInit>
 80036fa:	4601      	mov	r1, r0
 80036fc:	b130      	cbz	r0, 800370c <HAL_PCD_Init+0x56>
 80036fe:	2302      	movs	r3, #2
 8003700:	f884 3495 	strb.w	r3, [r4, #1173]	@ 0x495
 8003704:	2501      	movs	r5, #1
 8003706:	4628      	mov	r0, r5
 8003708:	b003      	add	sp, #12
 800370a:	bdf0      	pop	{r4, r5, r6, r7, pc}
 800370c:	6820      	ldr	r0, [r4, #0]
 800370e:	f002 fbc9 	bl	8005ea4 <USB_SetCurrentMode>
 8003712:	2800      	cmp	r0, #0
 8003714:	d1f3      	bne.n	80036fe <HAL_PCD_Init+0x48>
 8003716:	7926      	ldrb	r6, [r4, #4]
 8003718:	f104 0314 	add.w	r3, r4, #20
 800371c:	2701      	movs	r7, #1
 800371e:	4602      	mov	r2, r0
 8003720:	b2c1      	uxtb	r1, r0
 8003722:	3324      	adds	r3, #36	@ 0x24
 8003724:	428e      	cmp	r6, r1
 8003726:	d820      	bhi.n	800376a <HAL_PCD_Init+0xb4>
 8003728:	2100      	movs	r1, #0
 800372a:	f504 7315 	add.w	r3, r4, #596	@ 0x254
 800372e:	460a      	mov	r2, r1
 8003730:	b2c8      	uxtb	r0, r1
 8003732:	3324      	adds	r3, #36	@ 0x24
 8003734:	4286      	cmp	r6, r0
 8003736:	d826      	bhi.n	8003786 <HAL_PCD_Init+0xd0>
 8003738:	7c23      	ldrb	r3, [r4, #16]
 800373a:	f88d 3000 	strb.w	r3, [sp]
 800373e:	6820      	ldr	r0, [r4, #0]
 8003740:	e895 000e 	ldmia.w	r5, {r1, r2, r3}
 8003744:	f002 fc28 	bl	8005f98 <USB_DevInit>
 8003748:	4605      	mov	r5, r0
 800374a:	2800      	cmp	r0, #0
 800374c:	d1d7      	bne.n	80036fe <HAL_PCD_Init+0x48>
 800374e:	2301      	movs	r3, #1
 8003750:	7460      	strb	r0, [r4, #17]
 8003752:	f884 3495 	strb.w	r3, [r4, #1173]	@ 0x495
 8003756:	7b23      	ldrb	r3, [r4, #12]
 8003758:	2b01      	cmp	r3, #1
 800375a:	d102      	bne.n	8003762 <HAL_PCD_Init+0xac>
 800375c:	4620      	mov	r0, r4
 800375e:	f000 fd0d 	bl	800417c <HAL_PCDEx_ActivateLPM>
 8003762:	6820      	ldr	r0, [r4, #0]
 8003764:	f002 ff5c 	bl	8006620 <USB_DevDisconnect>
 8003768:	e7cd      	b.n	8003706 <HAL_PCD_Init+0x50>
 800376a:	f823 0c0a 	strh.w	r0, [r3, #-10]
 800376e:	3001      	adds	r0, #1
 8003770:	f803 7c23 	strb.w	r7, [r3, #-35]
 8003774:	f803 1c24 	strb.w	r1, [r3, #-36]
 8003778:	f803 2c20 	strb.w	r2, [r3, #-32]
 800377c:	f843 2c14 	str.w	r2, [r3, #-20]
 8003780:	e943 2207 	strd	r2, r2, [r3, #-28]
 8003784:	e7cc      	b.n	8003720 <HAL_PCD_Init+0x6a>
 8003786:	3101      	adds	r1, #1
 8003788:	f803 2c23 	strb.w	r2, [r3, #-35]
 800378c:	f803 0c24 	strb.w	r0, [r3, #-36]
 8003790:	f803 2c20 	strb.w	r2, [r3, #-32]
 8003794:	f843 2c14 	str.w	r2, [r3, #-20]
 8003798:	e943 2207 	strd	r2, r2, [r3, #-28]
 800379c:	e7c8      	b.n	8003730 <HAL_PCD_Init+0x7a>

0800379e <HAL_PCD_Start>:
 800379e:	b510      	push	{r4, lr}
 80037a0:	f890 3494 	ldrb.w	r3, [r0, #1172]	@ 0x494
 80037a4:	4604      	mov	r4, r0
 80037a6:	2b01      	cmp	r3, #1
 80037a8:	d00c      	beq.n	80037c4 <HAL_PCD_Start+0x26>
 80037aa:	2301      	movs	r3, #1
 80037ac:	f880 3494 	strb.w	r3, [r0, #1172]	@ 0x494
 80037b0:	6800      	ldr	r0, [r0, #0]
 80037b2:	f002 fb6b 	bl	8005e8c <USB_EnableGlobalInt>
 80037b6:	6820      	ldr	r0, [r4, #0]
 80037b8:	f002 ff24 	bl	8006604 <USB_DevConnect>
 80037bc:	2000      	movs	r0, #0
 80037be:	f884 0494 	strb.w	r0, [r4, #1172]	@ 0x494
 80037c2:	bd10      	pop	{r4, pc}
 80037c4:	2002      	movs	r0, #2
 80037c6:	e7fc      	b.n	80037c2 <HAL_PCD_Start+0x24>

080037c8 <HAL_PCD_SetAddress>:
 80037c8:	b510      	push	{r4, lr}
 80037ca:	f890 2494 	ldrb.w	r2, [r0, #1172]	@ 0x494
 80037ce:	4604      	mov	r4, r0
 80037d0:	2a01      	cmp	r2, #1
 80037d2:	d00a      	beq.n	80037ea <HAL_PCD_SetAddress+0x22>
 80037d4:	2201      	movs	r2, #1
 80037d6:	7441      	strb	r1, [r0, #17]
 80037d8:	f880 2494 	strb.w	r2, [r0, #1172]	@ 0x494
 80037dc:	6800      	ldr	r0, [r0, #0]
 80037de:	f002 ff01 	bl	80065e4 <USB_SetDevAddress>
 80037e2:	2000      	movs	r0, #0
 80037e4:	f884 0494 	strb.w	r0, [r4, #1172]	@ 0x494
 80037e8:	bd10      	pop	{r4, pc}
 80037ea:	2002      	movs	r0, #2
 80037ec:	e7fc      	b.n	80037e8 <HAL_PCD_SetAddress+0x20>

080037ee <HAL_PCD_EP_Open>:
 80037ee:	b570      	push	{r4, r5, r6, lr}
 80037f0:	f001 060f 	and.w	r6, r1, #15
 80037f4:	f011 0f80 	tst.w	r1, #128	@ 0x80
 80037f8:	4605      	mov	r5, r0
 80037fa:	f04f 0024 	mov.w	r0, #36	@ 0x24
 80037fe:	eb06 04c6 	add.w	r4, r6, r6, lsl #3
 8003802:	ea4f 0484 	mov.w	r4, r4, lsl #2
 8003806:	d020      	beq.n	800384a <HAL_PCD_EP_Open+0x5c>
 8003808:	f104 0114 	add.w	r1, r4, #20
 800380c:	fb00 5006 	mla	r0, r0, r6, r5
 8003810:	2401      	movs	r4, #1
 8003812:	4429      	add	r1, r5
 8003814:	7544      	strb	r4, [r0, #21]
 8003816:	f3c2 020a 	ubfx	r2, r2, #0, #11
 800381a:	700e      	strb	r6, [r1, #0]
 800381c:	710b      	strb	r3, [r1, #4]
 800381e:	608a      	str	r2, [r1, #8]
 8003820:	784a      	ldrb	r2, [r1, #1]
 8003822:	b102      	cbz	r2, 8003826 <HAL_PCD_EP_Open+0x38>
 8003824:	834e      	strh	r6, [r1, #26]
 8003826:	2b02      	cmp	r3, #2
 8003828:	bf04      	itt	eq
 800382a:	2300      	moveq	r3, #0
 800382c:	714b      	strbeq	r3, [r1, #5]
 800382e:	f895 3494 	ldrb.w	r3, [r5, #1172]	@ 0x494
 8003832:	2b01      	cmp	r3, #1
 8003834:	d012      	beq.n	800385c <HAL_PCD_EP_Open+0x6e>
 8003836:	2301      	movs	r3, #1
 8003838:	6828      	ldr	r0, [r5, #0]
 800383a:	f885 3494 	strb.w	r3, [r5, #1172]	@ 0x494
 800383e:	f002 fc70 	bl	8006122 <USB_ActivateEndpoint>
 8003842:	2000      	movs	r0, #0
 8003844:	f885 0494 	strb.w	r0, [r5, #1172]	@ 0x494
 8003848:	bd70      	pop	{r4, r5, r6, pc}
 800384a:	f504 7115 	add.w	r1, r4, #596	@ 0x254
 800384e:	fb00 5006 	mla	r0, r0, r6, r5
 8003852:	2400      	movs	r4, #0
 8003854:	4429      	add	r1, r5
 8003856:	f880 4255 	strb.w	r4, [r0, #597]	@ 0x255
 800385a:	e7dc      	b.n	8003816 <HAL_PCD_EP_Open+0x28>
 800385c:	2002      	movs	r0, #2
 800385e:	e7f3      	b.n	8003848 <HAL_PCD_EP_Open+0x5a>

08003860 <HAL_PCD_EP_Close>:
 8003860:	b510      	push	{r4, lr}
 8003862:	4604      	mov	r4, r0
 8003864:	f001 000f 	and.w	r0, r1, #15
 8003868:	f011 0f80 	tst.w	r1, #128	@ 0x80
 800386c:	f04f 0224 	mov.w	r2, #36	@ 0x24
 8003870:	eb00 03c0 	add.w	r3, r0, r0, lsl #3
 8003874:	ea4f 0383 	mov.w	r3, r3, lsl #2
 8003878:	d015      	beq.n	80038a6 <HAL_PCD_EP_Close+0x46>
 800387a:	f103 0114 	add.w	r1, r3, #20
 800387e:	fb02 4200 	mla	r2, r2, r0, r4
 8003882:	2301      	movs	r3, #1
 8003884:	4421      	add	r1, r4
 8003886:	7553      	strb	r3, [r2, #21]
 8003888:	7008      	strb	r0, [r1, #0]
 800388a:	f894 3494 	ldrb.w	r3, [r4, #1172]	@ 0x494
 800388e:	2b01      	cmp	r3, #1
 8003890:	d012      	beq.n	80038b8 <HAL_PCD_EP_Close+0x58>
 8003892:	2301      	movs	r3, #1
 8003894:	6820      	ldr	r0, [r4, #0]
 8003896:	f884 3494 	strb.w	r3, [r4, #1172]	@ 0x494
 800389a:	f002 fc81 	bl	80061a0 <USB_DeactivateEndpoint>
 800389e:	2000      	movs	r0, #0
 80038a0:	f884 0494 	strb.w	r0, [r4, #1172]	@ 0x494
 80038a4:	bd10      	pop	{r4, pc}
 80038a6:	f503 7115 	add.w	r1, r3, #596	@ 0x254
 80038aa:	fb02 4200 	mla	r2, r2, r0, r4
 80038ae:	2300      	movs	r3, #0
 80038b0:	4421      	add	r1, r4
 80038b2:	f882 3255 	strb.w	r3, [r2, #597]	@ 0x255
 80038b6:	e7e7      	b.n	8003888 <HAL_PCD_EP_Close+0x28>
 80038b8:	2002      	movs	r0, #2
 80038ba:	e7f3      	b.n	80038a4 <HAL_PCD_EP_Close+0x44>

080038bc <HAL_PCD_EP_Receive>:
 80038bc:	b570      	push	{r4, r5, r6, lr}
 80038be:	f001 050f 	and.w	r5, r1, #15
 80038c2:	2424      	movs	r4, #36	@ 0x24
 80038c4:	4616      	mov	r6, r2
 80038c6:	fb04 0105 	mla	r1, r4, r5, r0
 80038ca:	fb04 0405 	mla	r4, r4, r5, r0
 80038ce:	f501 7115 	add.w	r1, r1, #596	@ 0x254
 80038d2:	f884 5254 	strb.w	r5, [r4, #596]	@ 0x254
 80038d6:	e9c4 2398 	strd	r2, r3, [r4, #608]	@ 0x260
 80038da:	2300      	movs	r3, #0
 80038dc:	f8c4 3268 	str.w	r3, [r4, #616]	@ 0x268
 80038e0:	f884 3255 	strb.w	r3, [r4, #597]	@ 0x255
 80038e4:	7982      	ldrb	r2, [r0, #6]
 80038e6:	6800      	ldr	r0, [r0, #0]
 80038e8:	2a01      	cmp	r2, #1
 80038ea:	bf08      	it	eq
 80038ec:	f8c4 6270 	streq.w	r6, [r4, #624]	@ 0x270
 80038f0:	f002 fd02 	bl	80062f8 <USB_EPStartXfer>
 80038f4:	2000      	movs	r0, #0
 80038f6:	bd70      	pop	{r4, r5, r6, pc}

080038f8 <HAL_PCD_EP_GetRxCount>:
 80038f8:	f001 010f 	and.w	r1, r1, #15
 80038fc:	2324      	movs	r3, #36	@ 0x24
 80038fe:	fb03 0001 	mla	r0, r3, r1, r0
 8003902:	f8d0 0268 	ldr.w	r0, [r0, #616]	@ 0x268
 8003906:	4770      	bx	lr

08003908 <HAL_PCD_EP_Transmit>:
 8003908:	b570      	push	{r4, r5, r6, lr}
 800390a:	f001 050f 	and.w	r5, r1, #15
 800390e:	2424      	movs	r4, #36	@ 0x24
 8003910:	4616      	mov	r6, r2
 8003912:	fb04 0105 	mla	r1, r4, r5, r0
 8003916:	fb04 0405 	mla	r4, r4, r5, r0
 800391a:	3114      	adds	r1, #20
 800391c:	7525      	strb	r5, [r4, #20]
 800391e:	e9c4 2308 	strd	r2, r3, [r4, #32]
 8003922:	2300      	movs	r3, #0
 8003924:	62a3      	str	r3, [r4, #40]	@ 0x28
 8003926:	2301      	movs	r3, #1
 8003928:	7563      	strb	r3, [r4, #21]
 800392a:	7982      	ldrb	r2, [r0, #6]
 800392c:	6800      	ldr	r0, [r0, #0]
 800392e:	429a      	cmp	r2, r3
 8003930:	bf08      	it	eq
 8003932:	6326      	streq	r6, [r4, #48]	@ 0x30
 8003934:	f002 fce0 	bl	80062f8 <USB_EPStartXfer>
 8003938:	2000      	movs	r0, #0
 800393a:	bd70      	pop	{r4, r5, r6, pc}

0800393c <HAL_PCD_EP_SetStall>:
 800393c:	b538      	push	{r3, r4, r5, lr}
 800393e:	f001 050f 	and.w	r5, r1, #15
 8003942:	7903      	ldrb	r3, [r0, #4]
 8003944:	4604      	mov	r4, r0
 8003946:	42ab      	cmp	r3, r5
 8003948:	d32b      	bcc.n	80039a2 <HAL_PCD_EP_SetStall+0x66>
 800394a:	f011 0f80 	tst.w	r1, #128	@ 0x80
 800394e:	f04f 0024 	mov.w	r0, #36	@ 0x24
 8003952:	d01d      	beq.n	8003990 <HAL_PCD_EP_SetStall+0x54>
 8003954:	fb00 4105 	mla	r1, r0, r5, r4
 8003958:	2301      	movs	r3, #1
 800395a:	fb00 4005 	mla	r0, r0, r5, r4
 800395e:	3114      	adds	r1, #20
 8003960:	7543      	strb	r3, [r0, #21]
 8003962:	2301      	movs	r3, #1
 8003964:	700d      	strb	r5, [r1, #0]
 8003966:	708b      	strb	r3, [r1, #2]
 8003968:	f894 2494 	ldrb.w	r2, [r4, #1172]	@ 0x494
 800396c:	429a      	cmp	r2, r3
 800396e:	d01a      	beq.n	80039a6 <HAL_PCD_EP_SetStall+0x6a>
 8003970:	6820      	ldr	r0, [r4, #0]
 8003972:	f884 3494 	strb.w	r3, [r4, #1172]	@ 0x494
 8003976:	f002 fde1 	bl	800653c <USB_EPSetStall>
 800397a:	b92d      	cbnz	r5, 8003988 <HAL_PCD_EP_SetStall+0x4c>
 800397c:	f204 429c 	addw	r2, r4, #1180	@ 0x49c
 8003980:	79a1      	ldrb	r1, [r4, #6]
 8003982:	6820      	ldr	r0, [r4, #0]
 8003984:	f002 fe9a 	bl	80066bc <USB_EP0_OutStart>
 8003988:	2000      	movs	r0, #0
 800398a:	f884 0494 	strb.w	r0, [r4, #1172]	@ 0x494
 800398e:	bd38      	pop	{r3, r4, r5, pc}
 8003990:	fb00 4301 	mla	r3, r0, r1, r4
 8003994:	461a      	mov	r2, r3
 8003996:	f503 7115 	add.w	r1, r3, #596	@ 0x254
 800399a:	2300      	movs	r3, #0
 800399c:	f882 3255 	strb.w	r3, [r2, #597]	@ 0x255
 80039a0:	e7df      	b.n	8003962 <HAL_PCD_EP_SetStall+0x26>
 80039a2:	2001      	movs	r0, #1
 80039a4:	e7f3      	b.n	800398e <HAL_PCD_EP_SetStall+0x52>
 80039a6:	2002      	movs	r0, #2
 80039a8:	e7f1      	b.n	800398e <HAL_PCD_EP_SetStall+0x52>

080039aa <HAL_PCD_EP_ClrStall>:
 80039aa:	b538      	push	{r3, r4, r5, lr}
 80039ac:	f001 020f 	and.w	r2, r1, #15
 80039b0:	7903      	ldrb	r3, [r0, #4]
 80039b2:	4604      	mov	r4, r0
 80039b4:	4293      	cmp	r3, r2
 80039b6:	d329      	bcc.n	8003a0c <HAL_PCD_EP_ClrStall+0x62>
 80039b8:	eb02 03c2 	add.w	r3, r2, r2, lsl #3
 80039bc:	f011 0f80 	tst.w	r1, #128	@ 0x80
 80039c0:	f04f 0024 	mov.w	r0, #36	@ 0x24
 80039c4:	ea4f 0383 	mov.w	r3, r3, lsl #2
 80039c8:	d017      	beq.n	80039fa <HAL_PCD_EP_ClrStall+0x50>
 80039ca:	f103 0114 	add.w	r1, r3, #20
 80039ce:	fb00 4002 	mla	r0, r0, r2, r4
 80039d2:	2301      	movs	r3, #1
 80039d4:	4421      	add	r1, r4
 80039d6:	7543      	strb	r3, [r0, #21]
 80039d8:	2500      	movs	r5, #0
 80039da:	700a      	strb	r2, [r1, #0]
 80039dc:	708d      	strb	r5, [r1, #2]
 80039de:	f894 3494 	ldrb.w	r3, [r4, #1172]	@ 0x494
 80039e2:	2b01      	cmp	r3, #1
 80039e4:	d014      	beq.n	8003a10 <HAL_PCD_EP_ClrStall+0x66>
 80039e6:	2301      	movs	r3, #1
 80039e8:	6820      	ldr	r0, [r4, #0]
 80039ea:	f884 3494 	strb.w	r3, [r4, #1172]	@ 0x494
 80039ee:	f002 fdd0 	bl	8006592 <USB_EPClearStall>
 80039f2:	4628      	mov	r0, r5
 80039f4:	f884 5494 	strb.w	r5, [r4, #1172]	@ 0x494
 80039f8:	bd38      	pop	{r3, r4, r5, pc}
 80039fa:	f503 7115 	add.w	r1, r3, #596	@ 0x254
 80039fe:	fb00 4002 	mla	r0, r0, r2, r4
 8003a02:	2300      	movs	r3, #0
 8003a04:	4421      	add	r1, r4
 8003a06:	f880 3255 	strb.w	r3, [r0, #597]	@ 0x255
 8003a0a:	e7e5      	b.n	80039d8 <HAL_PCD_EP_ClrStall+0x2e>
 8003a0c:	2001      	movs	r0, #1
 8003a0e:	e7f3      	b.n	80039f8 <HAL_PCD_EP_ClrStall+0x4e>
 8003a10:	2002      	movs	r0, #2
 8003a12:	e7f1      	b.n	80039f8 <HAL_PCD_EP_ClrStall+0x4e>

08003a14 <HAL_PCD_EP_Abort>:
 8003a14:	f001 030f 	and.w	r3, r1, #15
 8003a18:	060a      	lsls	r2, r1, #24
 8003a1a:	eb03 03c3 	add.w	r3, r3, r3, lsl #3
 8003a1e:	ea4f 0383 	mov.w	r3, r3, lsl #2
 8003a22:	bf4c      	ite	mi
 8003a24:	f103 0114 	addmi.w	r1, r3, #20
 8003a28:	f503 7115 	addpl.w	r1, r3, #596	@ 0x254
 8003a2c:	4401      	add	r1, r0
 8003a2e:	6800      	ldr	r0, [r0, #0]
 8003a30:	f002 bc0c 	b.w	800624c <USB_EPStopXfer>

08003a34 <HAL_PCD_IRQHandler>:
 8003a34:	e92d 4ff0 	stmdb	sp!, {r4, r5, r6, r7, r8, r9, sl, fp, lr}
 8003a38:	6806      	ldr	r6, [r0, #0]
 8003a3a:	b089      	sub	sp, #36	@ 0x24
 8003a3c:	4604      	mov	r4, r0
 8003a3e:	4630      	mov	r0, r6
 8003a40:	f002 fe2a 	bl	8006698 <USB_GetMode>
 8003a44:	9003      	str	r0, [sp, #12]
 8003a46:	2800      	cmp	r0, #0
 8003a48:	f040 816f 	bne.w	8003d2a <HAL_PCD_IRQHandler+0x2f6>
 8003a4c:	6820      	ldr	r0, [r4, #0]
 8003a4e:	f002 fdf5 	bl	800663c <USB_ReadInterrupts>
 8003a52:	2800      	cmp	r0, #0
 8003a54:	f000 8169 	beq.w	8003d2a <HAL_PCD_IRQHandler+0x2f6>
 8003a58:	f8d6 3808 	ldr.w	r3, [r6, #2056]	@ 0x808
 8003a5c:	f506 6500 	add.w	r5, r6, #2048	@ 0x800
 8003a60:	6820      	ldr	r0, [r4, #0]
 8003a62:	f3c3 230d 	ubfx	r3, r3, #8, #14
 8003a66:	f8c4 34d4 	str.w	r3, [r4, #1236]	@ 0x4d4
 8003a6a:	f002 fde7 	bl	800663c <USB_ReadInterrupts>
 8003a6e:	0787      	lsls	r7, r0, #30
 8003a70:	d504      	bpl.n	8003a7c <HAL_PCD_IRQHandler+0x48>
 8003a72:	6822      	ldr	r2, [r4, #0]
 8003a74:	6953      	ldr	r3, [r2, #20]
 8003a76:	f003 0302 	and.w	r3, r3, #2
 8003a7a:	6153      	str	r3, [r2, #20]
 8003a7c:	6820      	ldr	r0, [r4, #0]
 8003a7e:	f002 fddd 	bl	800663c <USB_ReadInterrupts>
 8003a82:	06c0      	lsls	r0, r0, #27
 8003a84:	d52d      	bpl.n	8003ae2 <HAL_PCD_IRQHandler+0xae>
 8003a86:	6822      	ldr	r2, [r4, #0]
 8003a88:	6993      	ldr	r3, [r2, #24]
 8003a8a:	f023 0310 	bic.w	r3, r3, #16
 8003a8e:	6193      	str	r3, [r2, #24]
 8003a90:	f8d6 8020 	ldr.w	r8, [r6, #32]
 8003a94:	f408 13f0 	and.w	r3, r8, #1966080	@ 0x1e0000
 8003a98:	f008 070f 	and.w	r7, r8, #15
 8003a9c:	f5b3 2f80 	cmp.w	r3, #262144	@ 0x40000
 8003aa0:	f040 8146 	bne.w	8003d30 <HAL_PCD_IRQHandler+0x2fc>
 8003aa4:	f647 73f0 	movw	r3, #32752	@ 0x7ff0
 8003aa8:	ea18 0f03 	tst.w	r8, r3
 8003aac:	d014      	beq.n	8003ad8 <HAL_PCD_IRQHandler+0xa4>
 8003aae:	2324      	movs	r3, #36	@ 0x24
 8003ab0:	f3c8 190a 	ubfx	r9, r8, #4, #11
 8003ab4:	4630      	mov	r0, r6
 8003ab6:	fb03 4707 	mla	r7, r3, r7, r4
 8003aba:	464a      	mov	r2, r9
 8003abc:	f8d7 1260 	ldr.w	r1, [r7, #608]	@ 0x260
 8003ac0:	f002 fd1c 	bl	80064fc <USB_ReadPacket>
 8003ac4:	f8d7 3260 	ldr.w	r3, [r7, #608]	@ 0x260
 8003ac8:	444b      	add	r3, r9
 8003aca:	f8c7 3260 	str.w	r3, [r7, #608]	@ 0x260
 8003ace:	f8d7 3268 	ldr.w	r3, [r7, #616]	@ 0x268
 8003ad2:	444b      	add	r3, r9
 8003ad4:	f8c7 3268 	str.w	r3, [r7, #616]	@ 0x268
 8003ad8:	6822      	ldr	r2, [r4, #0]
 8003ada:	6993      	ldr	r3, [r2, #24]
 8003adc:	f043 0310 	orr.w	r3, r3, #16
 8003ae0:	6193      	str	r3, [r2, #24]
 8003ae2:	6820      	ldr	r0, [r4, #0]
 8003ae4:	f002 fdaa 	bl	800663c <USB_ReadInterrupts>
 8003ae8:	0301      	lsls	r1, r0, #12
 8003aea:	f100 8134 	bmi.w	8003d56 <HAL_PCD_IRQHandler+0x322>
 8003aee:	6820      	ldr	r0, [r4, #0]
 8003af0:	f002 fda4 	bl	800663c <USB_ReadInterrupts>
 8003af4:	0342      	lsls	r2, r0, #13
 8003af6:	d50d      	bpl.n	8003b14 <HAL_PCD_IRQHandler+0xe0>
 8003af8:	4627      	mov	r7, r4
 8003afa:	f506 6b10 	add.w	fp, r6, #2304	@ 0x900
 8003afe:	f04f 0a00 	mov.w	sl, #0
 8003b02:	6820      	ldr	r0, [r4, #0]
 8003b04:	f002 fda6 	bl	8006654 <USB_ReadDevAllInEpInterrupt>
 8003b08:	9004      	str	r0, [sp, #16]
 8003b0a:	9b04      	ldr	r3, [sp, #16]
 8003b0c:	6820      	ldr	r0, [r4, #0]
 8003b0e:	2b00      	cmp	r3, #0
 8003b10:	f040 81eb 	bne.w	8003eea <HAL_PCD_IRQHandler+0x4b6>
 8003b14:	6820      	ldr	r0, [r4, #0]
 8003b16:	f002 fd91 	bl	800663c <USB_ReadInterrupts>
 8003b1a:	2800      	cmp	r0, #0
 8003b1c:	da13      	bge.n	8003b46 <HAL_PCD_IRQHandler+0x112>
 8003b1e:	686b      	ldr	r3, [r5, #4]
 8003b20:	f023 0301 	bic.w	r3, r3, #1
 8003b24:	606b      	str	r3, [r5, #4]
 8003b26:	f894 34cc 	ldrb.w	r3, [r4, #1228]	@ 0x4cc
 8003b2a:	2b01      	cmp	r3, #1
 8003b2c:	f040 8283 	bne.w	8004036 <HAL_PCD_IRQHandler+0x602>
 8003b30:	2100      	movs	r1, #0
 8003b32:	4620      	mov	r0, r4
 8003b34:	f884 14cc 	strb.w	r1, [r4, #1228]	@ 0x4cc
 8003b38:	f004 fbee 	bl	8008318 <HAL_PCDEx_LPM_Callback>
 8003b3c:	6822      	ldr	r2, [r4, #0]
 8003b3e:	6953      	ldr	r3, [r2, #20]
 8003b40:	f003 4300 	and.w	r3, r3, #2147483648	@ 0x80000000
 8003b44:	6153      	str	r3, [r2, #20]
 8003b46:	6820      	ldr	r0, [r4, #0]
 8003b48:	f002 fd78 	bl	800663c <USB_ReadInterrupts>
 8003b4c:	0503      	lsls	r3, r0, #20
 8003b4e:	d50a      	bpl.n	8003b66 <HAL_PCD_IRQHandler+0x132>
 8003b50:	68ab      	ldr	r3, [r5, #8]
 8003b52:	07df      	lsls	r7, r3, #31
 8003b54:	d502      	bpl.n	8003b5c <HAL_PCD_IRQHandler+0x128>
 8003b56:	4620      	mov	r0, r4
 8003b58:	f004 fb6a 	bl	8008230 <HAL_PCD_SuspendCallback>
 8003b5c:	6822      	ldr	r2, [r4, #0]
 8003b5e:	6953      	ldr	r3, [r2, #20]
 8003b60:	f403 6300 	and.w	r3, r3, #2048	@ 0x800
 8003b64:	6153      	str	r3, [r2, #20]
 8003b66:	6820      	ldr	r0, [r4, #0]
 8003b68:	f002 fd68 	bl	800663c <USB_ReadInterrupts>
 8003b6c:	0100      	lsls	r0, r0, #4
 8003b6e:	d514      	bpl.n	8003b9a <HAL_PCD_IRQHandler+0x166>
 8003b70:	6823      	ldr	r3, [r4, #0]
 8003b72:	695a      	ldr	r2, [r3, #20]
 8003b74:	f002 6200 	and.w	r2, r2, #134217728	@ 0x8000000
 8003b78:	615a      	str	r2, [r3, #20]
 8003b7a:	f894 24cc 	ldrb.w	r2, [r4, #1228]	@ 0x4cc
 8003b7e:	2a00      	cmp	r2, #0
 8003b80:	f040 825d 	bne.w	800403e <HAL_PCD_IRQHandler+0x60a>
 8003b84:	2101      	movs	r1, #1
 8003b86:	4620      	mov	r0, r4
 8003b88:	f884 14cc 	strb.w	r1, [r4, #1228]	@ 0x4cc
 8003b8c:	6d5b      	ldr	r3, [r3, #84]	@ 0x54
 8003b8e:	f3c3 0383 	ubfx	r3, r3, #2, #4
 8003b92:	f8c4 34d0 	str.w	r3, [r4, #1232]	@ 0x4d0
 8003b96:	f004 fbbf 	bl	8008318 <HAL_PCDEx_LPM_Callback>
 8003b9a:	6820      	ldr	r0, [r4, #0]
 8003b9c:	f002 fd4e 	bl	800663c <USB_ReadInterrupts>
 8003ba0:	04c1      	lsls	r1, r0, #19
 8003ba2:	d533      	bpl.n	8003c0c <HAL_PCD_IRQHandler+0x1d8>
 8003ba4:	686b      	ldr	r3, [r5, #4]
 8003ba6:	2110      	movs	r1, #16
 8003ba8:	6820      	ldr	r0, [r4, #0]
 8003baa:	f023 0301 	bic.w	r3, r3, #1
 8003bae:	606b      	str	r3, [r5, #4]
 8003bb0:	f002 f9a6 	bl	8005f00 <USB_FlushTxFifo>
 8003bb4:	7920      	ldrb	r0, [r4, #4]
 8003bb6:	f506 6310 	add.w	r3, r6, #2304	@ 0x900
 8003bba:	f64f 317f 	movw	r1, #64383	@ 0xfb7f
 8003bbe:	9a03      	ldr	r2, [sp, #12]
 8003bc0:	4290      	cmp	r0, r2
 8003bc2:	f200 8240 	bhi.w	8004046 <HAL_PCD_IRQHandler+0x612>
 8003bc6:	69eb      	ldr	r3, [r5, #28]
 8003bc8:	f043 1301 	orr.w	r3, r3, #65537	@ 0x10001
 8003bcc:	61eb      	str	r3, [r5, #28]
 8003bce:	7be3      	ldrb	r3, [r4, #15]
 8003bd0:	2b00      	cmp	r3, #0
 8003bd2:	f000 8257 	beq.w	8004084 <HAL_PCD_IRQHandler+0x650>
 8003bd6:	f8d5 3084 	ldr.w	r3, [r5, #132]	@ 0x84
 8003bda:	f043 030b 	orr.w	r3, r3, #11
 8003bde:	f8c5 3084 	str.w	r3, [r5, #132]	@ 0x84
 8003be2:	6c6b      	ldr	r3, [r5, #68]	@ 0x44
 8003be4:	f043 030b 	orr.w	r3, r3, #11
 8003be8:	646b      	str	r3, [r5, #68]	@ 0x44
 8003bea:	f8d6 3800 	ldr.w	r3, [r6, #2048]	@ 0x800
 8003bee:	f204 429c 	addw	r2, r4, #1180	@ 0x49c
 8003bf2:	6820      	ldr	r0, [r4, #0]
 8003bf4:	f423 63fe 	bic.w	r3, r3, #2032	@ 0x7f0
 8003bf8:	f8c6 3800 	str.w	r3, [r6, #2048]	@ 0x800
 8003bfc:	79a1      	ldrb	r1, [r4, #6]
 8003bfe:	f002 fd5d 	bl	80066bc <USB_EP0_OutStart>
 8003c02:	6822      	ldr	r2, [r4, #0]
 8003c04:	6953      	ldr	r3, [r2, #20]
 8003c06:	f403 5380 	and.w	r3, r3, #4096	@ 0x1000
 8003c0a:	6153      	str	r3, [r2, #20]
 8003c0c:	6820      	ldr	r0, [r4, #0]
 8003c0e:	f002 fd15 	bl	800663c <USB_ReadInterrupts>
 8003c12:	0482      	lsls	r2, r0, #18
 8003c14:	d516      	bpl.n	8003c44 <HAL_PCD_IRQHandler+0x210>
 8003c16:	6820      	ldr	r0, [r4, #0]
 8003c18:	f002 fd42 	bl	80066a0 <USB_ActivateSetup>
 8003c1c:	6820      	ldr	r0, [r4, #0]
 8003c1e:	f002 fa75 	bl	800610c <USB_GetDevSpeed>
 8003c22:	6827      	ldr	r7, [r4, #0]
 8003c24:	71e0      	strb	r0, [r4, #7]
 8003c26:	f000 fe15 	bl	8004854 <HAL_RCC_GetHCLKFreq>
 8003c2a:	79e2      	ldrb	r2, [r4, #7]
 8003c2c:	4601      	mov	r1, r0
 8003c2e:	4638      	mov	r0, r7
 8003c30:	f002 f8bc 	bl	8005dac <USB_SetTurnaroundTime>
 8003c34:	4620      	mov	r0, r4
 8003c36:	f004 fae8 	bl	800820a <HAL_PCD_ResetCallback>
 8003c3a:	6822      	ldr	r2, [r4, #0]
 8003c3c:	6953      	ldr	r3, [r2, #20]
 8003c3e:	f403 5300 	and.w	r3, r3, #8192	@ 0x2000
 8003c42:	6153      	str	r3, [r2, #20]
 8003c44:	6820      	ldr	r0, [r4, #0]
 8003c46:	f002 fcf9 	bl	800663c <USB_ReadInterrupts>
 8003c4a:	0703      	lsls	r3, r0, #28
 8003c4c:	d507      	bpl.n	8003c5e <HAL_PCD_IRQHandler+0x22a>
 8003c4e:	4620      	mov	r0, r4
 8003c50:	f004 fad7 	bl	8008202 <HAL_PCD_SOFCallback>
 8003c54:	6822      	ldr	r2, [r4, #0]
 8003c56:	6953      	ldr	r3, [r2, #20]
 8003c58:	f003 0308 	and.w	r3, r3, #8
 8003c5c:	6153      	str	r3, [r2, #20]
 8003c5e:	6820      	ldr	r0, [r4, #0]
 8003c60:	f002 fcec 	bl	800663c <USB_ReadInterrupts>
 8003c64:	0607      	lsls	r7, r0, #24
 8003c66:	f100 8218 	bmi.w	800409a <HAL_PCD_IRQHandler+0x666>
 8003c6a:	6820      	ldr	r0, [r4, #0]
 8003c6c:	f002 fce6 	bl	800663c <USB_ReadInterrupts>
 8003c70:	02c0      	lsls	r0, r0, #11
 8003c72:	d50c      	bpl.n	8003c8e <HAL_PCD_IRQHandler+0x25a>
 8003c74:	46a0      	mov	r8, r4
 8003c76:	f506 6912 	add.w	r9, r6, #2336	@ 0x920
 8003c7a:	2701      	movs	r7, #1
 8003c7c:	7923      	ldrb	r3, [r4, #4]
 8003c7e:	42bb      	cmp	r3, r7
 8003c80:	f200 8224 	bhi.w	80040cc <HAL_PCD_IRQHandler+0x698>
 8003c84:	6822      	ldr	r2, [r4, #0]
 8003c86:	6953      	ldr	r3, [r2, #20]
 8003c88:	f403 1380 	and.w	r3, r3, #1048576	@ 0x100000
 8003c8c:	6153      	str	r3, [r2, #20]
 8003c8e:	6820      	ldr	r0, [r4, #0]
 8003c90:	f002 fcd4 	bl	800663c <USB_ReadInterrupts>
 8003c94:	0281      	lsls	r1, r0, #10
 8003c96:	d52b      	bpl.n	8003cf0 <HAL_PCD_IRQHandler+0x2bc>
 8003c98:	f894 e004 	ldrb.w	lr, [r4, #4]
 8003c9c:	4623      	mov	r3, r4
 8003c9e:	f506 6132 	add.w	r1, r6, #2848	@ 0xb20
 8003ca2:	f04f 0c01 	mov.w	ip, #1
 8003ca6:	45e6      	cmp	lr, ip
 8003ca8:	d91d      	bls.n	8003ce6 <HAL_PCD_IRQHandler+0x2b2>
 8003caa:	f893 727c 	ldrb.w	r7, [r3, #636]	@ 0x27c
 8003cae:	6808      	ldr	r0, [r1, #0]
 8003cb0:	2f01      	cmp	r7, #1
 8003cb2:	f040 8221 	bne.w	80040f8 <HAL_PCD_IRQHandler+0x6c4>
 8003cb6:	2800      	cmp	r0, #0
 8003cb8:	f280 821e 	bge.w	80040f8 <HAL_PCD_IRQHandler+0x6c4>
 8003cbc:	f8d4 24d4 	ldr.w	r2, [r4, #1236]	@ 0x4d4
 8003cc0:	ea82 4010 	eor.w	r0, r2, r0, lsr #16
 8003cc4:	07c2      	lsls	r2, r0, #31
 8003cc6:	f100 8217 	bmi.w	80040f8 <HAL_PCD_IRQHandler+0x6c4>
 8003cca:	f883 727b 	strb.w	r7, [r3, #635]	@ 0x27b
 8003cce:	69b0      	ldr	r0, [r6, #24]
 8003cd0:	f040 0080 	orr.w	r0, r0, #128	@ 0x80
 8003cd4:	61b0      	str	r0, [r6, #24]
 8003cd6:	6970      	ldr	r0, [r6, #20]
 8003cd8:	0600      	lsls	r0, r0, #24
 8003cda:	f100 820d 	bmi.w	80040f8 <HAL_PCD_IRQHandler+0x6c4>
 8003cde:	686b      	ldr	r3, [r5, #4]
 8003ce0:	f443 7300 	orr.w	r3, r3, #512	@ 0x200
 8003ce4:	606b      	str	r3, [r5, #4]
 8003ce6:	6822      	ldr	r2, [r4, #0]
 8003ce8:	6953      	ldr	r3, [r2, #20]
 8003cea:	f403 1300 	and.w	r3, r3, #2097152	@ 0x200000
 8003cee:	6153      	str	r3, [r2, #20]
 8003cf0:	6820      	ldr	r0, [r4, #0]
 8003cf2:	f002 fca3 	bl	800663c <USB_ReadInterrupts>
 8003cf6:	0041      	lsls	r1, r0, #1
 8003cf8:	d507      	bpl.n	8003d0a <HAL_PCD_IRQHandler+0x2d6>
 8003cfa:	4620      	mov	r0, r4
 8003cfc:	f004 fabc 	bl	8008278 <HAL_PCD_ConnectCallback>
 8003d00:	6822      	ldr	r2, [r4, #0]
 8003d02:	6953      	ldr	r3, [r2, #20]
 8003d04:	f003 4380 	and.w	r3, r3, #1073741824	@ 0x40000000
 8003d08:	6153      	str	r3, [r2, #20]
 8003d0a:	6820      	ldr	r0, [r4, #0]
 8003d0c:	f002 fc96 	bl	800663c <USB_ReadInterrupts>
 8003d10:	0742      	lsls	r2, r0, #29
 8003d12:	d50a      	bpl.n	8003d2a <HAL_PCD_IRQHandler+0x2f6>
 8003d14:	6823      	ldr	r3, [r4, #0]
 8003d16:	685d      	ldr	r5, [r3, #4]
 8003d18:	076b      	lsls	r3, r5, #29
 8003d1a:	d502      	bpl.n	8003d22 <HAL_PCD_IRQHandler+0x2ee>
 8003d1c:	4620      	mov	r0, r4
 8003d1e:	f004 faaf 	bl	8008280 <HAL_PCD_DisconnectCallback>
 8003d22:	6822      	ldr	r2, [r4, #0]
 8003d24:	6853      	ldr	r3, [r2, #4]
 8003d26:	432b      	orrs	r3, r5
 8003d28:	6053      	str	r3, [r2, #4]
 8003d2a:	b009      	add	sp, #36	@ 0x24
 8003d2c:	e8bd 8ff0 	ldmia.w	sp!, {r4, r5, r6, r7, r8, r9, sl, fp, pc}
 8003d30:	f5b3 2f40 	cmp.w	r3, #786432	@ 0xc0000
 8003d34:	f47f aed0 	bne.w	8003ad8 <HAL_PCD_IRQHandler+0xa4>
 8003d38:	2208      	movs	r2, #8
 8003d3a:	f204 419c 	addw	r1, r4, #1180	@ 0x49c
 8003d3e:	4630      	mov	r0, r6
 8003d40:	f3c8 180a 	ubfx	r8, r8, #4, #11
 8003d44:	f002 fbda 	bl	80064fc <USB_ReadPacket>
 8003d48:	2324      	movs	r3, #36	@ 0x24
 8003d4a:	fb03 4707 	mla	r7, r3, r7, r4
 8003d4e:	f8d7 3268 	ldr.w	r3, [r7, #616]	@ 0x268
 8003d52:	4443      	add	r3, r8
 8003d54:	e6be      	b.n	8003ad4 <HAL_PCD_IRQHandler+0xa0>
 8003d56:	f506 6830 	add.w	r8, r6, #2816	@ 0xb00
 8003d5a:	46a2      	mov	sl, r4
 8003d5c:	2700      	movs	r7, #0
 8003d5e:	6820      	ldr	r0, [r4, #0]
 8003d60:	f002 fc70 	bl	8006644 <USB_ReadDevAllOutEpInterrupt>
 8003d64:	9004      	str	r0, [sp, #16]
 8003d66:	9b04      	ldr	r3, [sp, #16]
 8003d68:	6820      	ldr	r0, [r4, #0]
 8003d6a:	2b00      	cmp	r3, #0
 8003d6c:	f43f aebf 	beq.w	8003aee <HAL_PCD_IRQHandler+0xba>
 8003d70:	9b04      	ldr	r3, [sp, #16]
 8003d72:	07db      	lsls	r3, r3, #31
 8003d74:	d578      	bpl.n	8003e68 <HAL_PCD_IRQHandler+0x434>
 8003d76:	fa5f fb87 	uxtb.w	fp, r7
 8003d7a:	4659      	mov	r1, fp
 8003d7c:	f002 fc72 	bl	8006664 <USB_ReadDevOutEPInterrupt>
 8003d80:	f010 0f01 	tst.w	r0, #1
 8003d84:	4681      	mov	r9, r0
 8003d86:	d01f      	beq.n	8003dc8 <HAL_PCD_IRQHandler+0x394>
 8003d88:	2301      	movs	r3, #1
 8003d8a:	6820      	ldr	r0, [r4, #0]
 8003d8c:	f8c8 3008 	str.w	r3, [r8, #8]
 8003d90:	f500 6330 	add.w	r3, r0, #2816	@ 0xb00
 8003d94:	f894 c006 	ldrb.w	ip, [r4, #6]
 8003d98:	eb03 1347 	add.w	r3, r3, r7, lsl #5
 8003d9c:	6c01      	ldr	r1, [r0, #64]	@ 0x40
 8003d9e:	f1bc 0f01 	cmp.w	ip, #1
 8003da2:	689a      	ldr	r2, [r3, #8]
 8003da4:	f040 808b 	bne.w	8003ebe <HAL_PCD_IRQHandler+0x48a>
 8003da8:	f012 0f08 	tst.w	r2, #8
 8003dac:	d007      	beq.n	8003dbe <HAL_PCD_IRQHandler+0x38a>
 8003dae:	48b3      	ldr	r0, [pc, #716]	@ (800407c <HAL_PCD_IRQHandler+0x648>)
 8003db0:	4281      	cmp	r1, r0
 8003db2:	d909      	bls.n	8003dc8 <HAL_PCD_IRQHandler+0x394>
 8003db4:	0412      	lsls	r2, r2, #16
 8003db6:	d507      	bpl.n	8003dc8 <HAL_PCD_IRQHandler+0x394>
 8003db8:	f44f 4200 	mov.w	r2, #32768	@ 0x8000
 8003dbc:	e003      	b.n	8003dc6 <HAL_PCD_IRQHandler+0x392>
 8003dbe:	f012 0f20 	tst.w	r2, #32
 8003dc2:	d05a      	beq.n	8003e7a <HAL_PCD_IRQHandler+0x446>
 8003dc4:	2220      	movs	r2, #32
 8003dc6:	609a      	str	r2, [r3, #8]
 8003dc8:	f019 0f08 	tst.w	r9, #8
 8003dcc:	d021      	beq.n	8003e12 <HAL_PCD_IRQHandler+0x3de>
 8003dce:	2308      	movs	r3, #8
 8003dd0:	49aa      	ldr	r1, [pc, #680]	@ (800407c <HAL_PCD_IRQHandler+0x648>)
 8003dd2:	f8c8 3008 	str.w	r3, [r8, #8]
 8003dd6:	6823      	ldr	r3, [r4, #0]
 8003dd8:	6c1a      	ldr	r2, [r3, #64]	@ 0x40
 8003dda:	f503 6330 	add.w	r3, r3, #2816	@ 0xb00
 8003dde:	428a      	cmp	r2, r1
 8003de0:	eb03 1347 	add.w	r3, r3, r7, lsl #5
 8003de4:	6898      	ldr	r0, [r3, #8]
 8003de6:	d904      	bls.n	8003df2 <HAL_PCD_IRQHandler+0x3be>
 8003de8:	0400      	lsls	r0, r0, #16
 8003dea:	d502      	bpl.n	8003df2 <HAL_PCD_IRQHandler+0x3be>
 8003dec:	f44f 4000 	mov.w	r0, #32768	@ 0x8000
 8003df0:	6098      	str	r0, [r3, #8]
 8003df2:	4620      	mov	r0, r4
 8003df4:	9205      	str	r2, [sp, #20]
 8003df6:	f004 f9ed 	bl	80081d4 <HAL_PCD_SetupStageCallback>
 8003dfa:	9a05      	ldr	r2, [sp, #20]
 8003dfc:	499f      	ldr	r1, [pc, #636]	@ (800407c <HAL_PCD_IRQHandler+0x648>)
 8003dfe:	428a      	cmp	r2, r1
 8003e00:	d907      	bls.n	8003e12 <HAL_PCD_IRQHandler+0x3de>
 8003e02:	79a1      	ldrb	r1, [r4, #6]
 8003e04:	2901      	cmp	r1, #1
 8003e06:	d104      	bne.n	8003e12 <HAL_PCD_IRQHandler+0x3de>
 8003e08:	f204 429c 	addw	r2, r4, #1180	@ 0x49c
 8003e0c:	6820      	ldr	r0, [r4, #0]
 8003e0e:	f002 fc55 	bl	80066bc <USB_EP0_OutStart>
 8003e12:	f019 0f10 	tst.w	r9, #16
 8003e16:	d002      	beq.n	8003e1e <HAL_PCD_IRQHandler+0x3ea>
 8003e18:	2310      	movs	r3, #16
 8003e1a:	f8c8 3008 	str.w	r3, [r8, #8]
 8003e1e:	f019 0f02 	tst.w	r9, #2
 8003e22:	d014      	beq.n	8003e4e <HAL_PCD_IRQHandler+0x41a>
 8003e24:	6973      	ldr	r3, [r6, #20]
 8003e26:	0619      	lsls	r1, r3, #24
 8003e28:	d503      	bpl.n	8003e32 <HAL_PCD_IRQHandler+0x3fe>
 8003e2a:	686b      	ldr	r3, [r5, #4]
 8003e2c:	f443 6380 	orr.w	r3, r3, #1024	@ 0x400
 8003e30:	606b      	str	r3, [r5, #4]
 8003e32:	f89a 3257 	ldrb.w	r3, [sl, #599]	@ 0x257
 8003e36:	2b01      	cmp	r3, #1
 8003e38:	d106      	bne.n	8003e48 <HAL_PCD_IRQHandler+0x414>
 8003e3a:	2300      	movs	r3, #0
 8003e3c:	4659      	mov	r1, fp
 8003e3e:	4620      	mov	r0, r4
 8003e40:	f88a 3257 	strb.w	r3, [sl, #599]	@ 0x257
 8003e44:	f004 fa10 	bl	8008268 <HAL_PCD_ISOOUTIncompleteCallback>
 8003e48:	2302      	movs	r3, #2
 8003e4a:	f8c8 3008 	str.w	r3, [r8, #8]
 8003e4e:	f019 0f20 	tst.w	r9, #32
 8003e52:	d002      	beq.n	8003e5a <HAL_PCD_IRQHandler+0x426>
 8003e54:	2320      	movs	r3, #32
 8003e56:	f8c8 3008 	str.w	r3, [r8, #8]
 8003e5a:	f419 5f00 	tst.w	r9, #8192	@ 0x2000
 8003e5e:	d003      	beq.n	8003e68 <HAL_PCD_IRQHandler+0x434>
 8003e60:	f44f 5300 	mov.w	r3, #8192	@ 0x2000
 8003e64:	f8c8 3008 	str.w	r3, [r8, #8]
 8003e68:	9b04      	ldr	r3, [sp, #16]
 8003e6a:	3701      	adds	r7, #1
 8003e6c:	f108 0820 	add.w	r8, r8, #32
 8003e70:	f10a 0a24 	add.w	sl, sl, #36	@ 0x24
 8003e74:	085b      	lsrs	r3, r3, #1
 8003e76:	9304      	str	r3, [sp, #16]
 8003e78:	e775      	b.n	8003d66 <HAL_PCD_IRQHandler+0x332>
 8003e7a:	f8df c200 	ldr.w	ip, [pc, #512]	@ 800407c <HAL_PCD_IRQHandler+0x648>
 8003e7e:	4561      	cmp	r1, ip
 8003e80:	d901      	bls.n	8003e86 <HAL_PCD_IRQHandler+0x452>
 8003e82:	0412      	lsls	r2, r2, #16
 8003e84:	d498      	bmi.n	8003db8 <HAL_PCD_IRQHandler+0x384>
 8003e86:	691a      	ldr	r2, [r3, #16]
 8003e88:	f8da 3274 	ldr.w	r3, [sl, #628]	@ 0x274
 8003e8c:	f3c2 0212 	ubfx	r2, r2, #0, #19
 8003e90:	1a9b      	subs	r3, r3, r2
 8003e92:	f8ca 3268 	str.w	r3, [sl, #616]	@ 0x268
 8003e96:	b96f      	cbnz	r7, 8003eb4 <HAL_PCD_IRQHandler+0x480>
 8003e98:	f8d4 2264 	ldr.w	r2, [r4, #612]	@ 0x264
 8003e9c:	b92a      	cbnz	r2, 8003eaa <HAL_PCD_IRQHandler+0x476>
 8003e9e:	f204 429c 	addw	r2, r4, #1180	@ 0x49c
 8003ea2:	2101      	movs	r1, #1
 8003ea4:	f002 fc0a 	bl	80066bc <USB_EP0_OutStart>
 8003ea8:	e004      	b.n	8003eb4 <HAL_PCD_IRQHandler+0x480>
 8003eaa:	f8d4 2260 	ldr.w	r2, [r4, #608]	@ 0x260
 8003eae:	441a      	add	r2, r3
 8003eb0:	f8c4 2260 	str.w	r2, [r4, #608]	@ 0x260
 8003eb4:	4659      	mov	r1, fp
 8003eb6:	4620      	mov	r0, r4
 8003eb8:	f004 f992 	bl	80081e0 <HAL_PCD_DataOutStageCallback>
 8003ebc:	e784      	b.n	8003dc8 <HAL_PCD_IRQHandler+0x394>
 8003ebe:	f8df c1c0 	ldr.w	ip, [pc, #448]	@ 8004080 <HAL_PCD_IRQHandler+0x64c>
 8003ec2:	4561      	cmp	r1, ip
 8003ec4:	d107      	bne.n	8003ed6 <HAL_PCD_IRQHandler+0x4a2>
 8003ec6:	0411      	lsls	r1, r2, #16
 8003ec8:	f53f af76 	bmi.w	8003db8 <HAL_PCD_IRQHandler+0x384>
 8003ecc:	0692      	lsls	r2, r2, #26
 8003ece:	d5f1      	bpl.n	8003eb4 <HAL_PCD_IRQHandler+0x480>
 8003ed0:	2220      	movs	r2, #32
 8003ed2:	609a      	str	r2, [r3, #8]
 8003ed4:	e7ee      	b.n	8003eb4 <HAL_PCD_IRQHandler+0x480>
 8003ed6:	2f00      	cmp	r7, #0
 8003ed8:	d1ec      	bne.n	8003eb4 <HAL_PCD_IRQHandler+0x480>
 8003eda:	f8d4 3264 	ldr.w	r3, [r4, #612]	@ 0x264
 8003ede:	2b00      	cmp	r3, #0
 8003ee0:	d1e8      	bne.n	8003eb4 <HAL_PCD_IRQHandler+0x480>
 8003ee2:	f204 429c 	addw	r2, r4, #1180	@ 0x49c
 8003ee6:	4639      	mov	r1, r7
 8003ee8:	e7dc      	b.n	8003ea4 <HAL_PCD_IRQHandler+0x470>
 8003eea:	9b04      	ldr	r3, [sp, #16]
 8003eec:	07da      	lsls	r2, r3, #31
 8003eee:	f140 8099 	bpl.w	8004024 <HAL_PCD_IRQHandler+0x5f0>
 8003ef2:	fa5f f38a 	uxtb.w	r3, sl
 8003ef6:	4619      	mov	r1, r3
 8003ef8:	9305      	str	r3, [sp, #20]
 8003efa:	f002 fbbc 	bl	8006676 <USB_ReadDevInEPInterrupt>
 8003efe:	f010 0f01 	tst.w	r0, #1
 8003f02:	4680      	mov	r8, r0
 8003f04:	d01f      	beq.n	8003f46 <HAL_PCD_IRQHandler+0x512>
 8003f06:	2101      	movs	r1, #1
 8003f08:	f00a 020f 	and.w	r2, sl, #15
 8003f0c:	6b6b      	ldr	r3, [r5, #52]	@ 0x34
 8003f0e:	fa01 f202 	lsl.w	r2, r1, r2
 8003f12:	ea23 0302 	bic.w	r3, r3, r2
 8003f16:	636b      	str	r3, [r5, #52]	@ 0x34
 8003f18:	f8cb 1008 	str.w	r1, [fp, #8]
 8003f1c:	79a1      	ldrb	r1, [r4, #6]
 8003f1e:	2901      	cmp	r1, #1
 8003f20:	d10d      	bne.n	8003f3e <HAL_PCD_IRQHandler+0x50a>
 8003f22:	e9d7 2307 	ldrd	r2, r3, [r7, #28]
 8003f26:	4413      	add	r3, r2
 8003f28:	623b      	str	r3, [r7, #32]
 8003f2a:	f1ba 0f00 	cmp.w	sl, #0
 8003f2e:	d106      	bne.n	8003f3e <HAL_PCD_IRQHandler+0x50a>
 8003f30:	6a63      	ldr	r3, [r4, #36]	@ 0x24
 8003f32:	b923      	cbnz	r3, 8003f3e <HAL_PCD_IRQHandler+0x50a>
 8003f34:	f204 429c 	addw	r2, r4, #1180	@ 0x49c
 8003f38:	6820      	ldr	r0, [r4, #0]
 8003f3a:	f002 fbbf 	bl	80066bc <USB_EP0_OutStart>
 8003f3e:	9905      	ldr	r1, [sp, #20]
 8003f40:	4620      	mov	r0, r4
 8003f42:	f004 f956 	bl	80081f2 <HAL_PCD_DataInStageCallback>
 8003f46:	f018 0f08 	tst.w	r8, #8
 8003f4a:	d002      	beq.n	8003f52 <HAL_PCD_IRQHandler+0x51e>
 8003f4c:	2308      	movs	r3, #8
 8003f4e:	f8cb 3008 	str.w	r3, [fp, #8]
 8003f52:	f018 0f10 	tst.w	r8, #16
 8003f56:	d002      	beq.n	8003f5e <HAL_PCD_IRQHandler+0x52a>
 8003f58:	2310      	movs	r3, #16
 8003f5a:	f8cb 3008 	str.w	r3, [fp, #8]
 8003f5e:	f018 0f40 	tst.w	r8, #64	@ 0x40
 8003f62:	d002      	beq.n	8003f6a <HAL_PCD_IRQHandler+0x536>
 8003f64:	2340      	movs	r3, #64	@ 0x40
 8003f66:	f8cb 3008 	str.w	r3, [fp, #8]
 8003f6a:	f018 0f02 	tst.w	r8, #2
 8003f6e:	d00f      	beq.n	8003f90 <HAL_PCD_IRQHandler+0x55c>
 8003f70:	4651      	mov	r1, sl
 8003f72:	4630      	mov	r0, r6
 8003f74:	f001 ffc4 	bl	8005f00 <USB_FlushTxFifo>
 8003f78:	7dfb      	ldrb	r3, [r7, #23]
 8003f7a:	2b01      	cmp	r3, #1
 8003f7c:	d105      	bne.n	8003f8a <HAL_PCD_IRQHandler+0x556>
 8003f7e:	2300      	movs	r3, #0
 8003f80:	9905      	ldr	r1, [sp, #20]
 8003f82:	4620      	mov	r0, r4
 8003f84:	75fb      	strb	r3, [r7, #23]
 8003f86:	f004 f973 	bl	8008270 <HAL_PCD_ISOINIncompleteCallback>
 8003f8a:	2302      	movs	r3, #2
 8003f8c:	f8cb 3008 	str.w	r3, [fp, #8]
 8003f90:	6823      	ldr	r3, [r4, #0]
 8003f92:	f018 0f80 	tst.w	r8, #128	@ 0x80
 8003f96:	9306      	str	r3, [sp, #24]
 8003f98:	d044      	beq.n	8004024 <HAL_PCD_IRQHandler+0x5f0>
 8003f9a:	e9d7 3209 	ldrd	r3, r2, [r7, #36]	@ 0x24
 8003f9e:	429a      	cmp	r2, r3
 8003fa0:	d840      	bhi.n	8004024 <HAL_PCD_IRQHandler+0x5f0>
 8003fa2:	eba3 0802 	sub.w	r8, r3, r2
 8003fa6:	69fb      	ldr	r3, [r7, #28]
 8003fa8:	4598      	cmp	r8, r3
 8003faa:	bf28      	it	cs
 8003fac:	4698      	movcs	r8, r3
 8003fae:	9b06      	ldr	r3, [sp, #24]
 8003fb0:	f108 0803 	add.w	r8, r8, #3
 8003fb4:	f503 6310 	add.w	r3, r3, #2304	@ 0x900
 8003fb8:	ea4f 0898 	mov.w	r8, r8, lsr #2
 8003fbc:	eb03 134a 	add.w	r3, r3, sl, lsl #5
 8003fc0:	9307      	str	r3, [sp, #28]
 8003fc2:	9b07      	ldr	r3, [sp, #28]
 8003fc4:	6999      	ldr	r1, [r3, #24]
 8003fc6:	b289      	uxth	r1, r1
 8003fc8:	4541      	cmp	r1, r8
 8003fca:	e9d7 3209 	ldrd	r3, r2, [r7, #36]	@ 0x24
 8003fce:	d327      	bcc.n	8004020 <HAL_PCD_IRQHandler+0x5ec>
 8003fd0:	4293      	cmp	r3, r2
 8003fd2:	d80b      	bhi.n	8003fec <HAL_PCD_IRQHandler+0x5b8>
 8003fd4:	9b06      	ldr	r3, [sp, #24]
 8003fd6:	f00a 000f 	and.w	r0, sl, #15
 8003fda:	2101      	movs	r1, #1
 8003fdc:	f8d3 2834 	ldr.w	r2, [r3, #2100]	@ 0x834
 8003fe0:	4081      	lsls	r1, r0
 8003fe2:	ea22 0201 	bic.w	r2, r2, r1
 8003fe6:	f8c3 2834 	str.w	r2, [r3, #2100]	@ 0x834
 8003fea:	e01b      	b.n	8004024 <HAL_PCD_IRQHandler+0x5f0>
 8003fec:	eba3 0902 	sub.w	r9, r3, r2
 8003ff0:	69fb      	ldr	r3, [r7, #28]
 8003ff2:	9a05      	ldr	r2, [sp, #20]
 8003ff4:	4599      	cmp	r9, r3
 8003ff6:	9806      	ldr	r0, [sp, #24]
 8003ff8:	bf28      	it	cs
 8003ffa:	4699      	movcs	r9, r3
 8003ffc:	79a3      	ldrb	r3, [r4, #6]
 8003ffe:	9300      	str	r3, [sp, #0]
 8004000:	fa1f f389 	uxth.w	r3, r9
 8004004:	6a39      	ldr	r1, [r7, #32]
 8004006:	f109 0803 	add.w	r8, r9, #3
 800400a:	f002 f961 	bl	80062d0 <USB_WritePacket>
 800400e:	6a3b      	ldr	r3, [r7, #32]
 8004010:	ea4f 0898 	mov.w	r8, r8, lsr #2
 8004014:	444b      	add	r3, r9
 8004016:	623b      	str	r3, [r7, #32]
 8004018:	6abb      	ldr	r3, [r7, #40]	@ 0x28
 800401a:	444b      	add	r3, r9
 800401c:	62bb      	str	r3, [r7, #40]	@ 0x28
 800401e:	e7d0      	b.n	8003fc2 <HAL_PCD_IRQHandler+0x58e>
 8004020:	4293      	cmp	r3, r2
 8004022:	d9d7      	bls.n	8003fd4 <HAL_PCD_IRQHandler+0x5a0>
 8004024:	9b04      	ldr	r3, [sp, #16]
 8004026:	f10a 0a01 	add.w	sl, sl, #1
 800402a:	3724      	adds	r7, #36	@ 0x24
 800402c:	f10b 0b20 	add.w	fp, fp, #32
 8004030:	085b      	lsrs	r3, r3, #1
 8004032:	9304      	str	r3, [sp, #16]
 8004034:	e569      	b.n	8003b0a <HAL_PCD_IRQHandler+0xd6>
 8004036:	4620      	mov	r0, r4
 8004038:	f004 f912 	bl	8008260 <HAL_PCD_ResumeCallback>
 800403c:	e57e      	b.n	8003b3c <HAL_PCD_IRQHandler+0x108>
 800403e:	4620      	mov	r0, r4
 8004040:	f004 f8f6 	bl	8008230 <HAL_PCD_SuspendCallback>
 8004044:	e5a9      	b.n	8003b9a <HAL_PCD_IRQHandler+0x166>
 8004046:	6099      	str	r1, [r3, #8]
 8004048:	3320      	adds	r3, #32
 800404a:	f853 2c20 	ldr.w	r2, [r3, #-32]
 800404e:	f422 1200 	bic.w	r2, r2, #2097152	@ 0x200000
 8004052:	f843 2c20 	str.w	r2, [r3, #-32]
 8004056:	f8c3 11e8 	str.w	r1, [r3, #488]	@ 0x1e8
 800405a:	f8d3 21e0 	ldr.w	r2, [r3, #480]	@ 0x1e0
 800405e:	f422 1200 	bic.w	r2, r2, #2097152	@ 0x200000
 8004062:	f8c3 21e0 	str.w	r2, [r3, #480]	@ 0x1e0
 8004066:	f8d3 21e0 	ldr.w	r2, [r3, #480]	@ 0x1e0
 800406a:	f042 6200 	orr.w	r2, r2, #134217728	@ 0x8000000
 800406e:	f8c3 21e0 	str.w	r2, [r3, #480]	@ 0x1e0
 8004072:	9a03      	ldr	r2, [sp, #12]
 8004074:	3201      	adds	r2, #1
 8004076:	9203      	str	r2, [sp, #12]
 8004078:	e5a1      	b.n	8003bbe <HAL_PCD_IRQHandler+0x18a>
 800407a:	bf00      	nop
 800407c:	4f54300a 	.word	0x4f54300a
 8004080:	4f54310a 	.word	0x4f54310a
 8004084:	696b      	ldr	r3, [r5, #20]
 8004086:	f443 5300 	orr.w	r3, r3, #8192	@ 0x2000
 800408a:	f043 032b 	orr.w	r3, r3, #43	@ 0x2b
 800408e:	616b      	str	r3, [r5, #20]
 8004090:	692b      	ldr	r3, [r5, #16]
 8004092:	f043 030b 	orr.w	r3, r3, #11
 8004096:	612b      	str	r3, [r5, #16]
 8004098:	e5a7      	b.n	8003bea <HAL_PCD_IRQHandler+0x1b6>
 800409a:	69b3      	ldr	r3, [r6, #24]
 800409c:	2701      	movs	r7, #1
 800409e:	f204 2857 	addw	r8, r4, #599	@ 0x257
 80040a2:	f04f 0924 	mov.w	r9, #36	@ 0x24
 80040a6:	f023 0380 	bic.w	r3, r3, #128	@ 0x80
 80040aa:	61b3      	str	r3, [r6, #24]
 80040ac:	7923      	ldrb	r3, [r4, #4]
 80040ae:	42bb      	cmp	r3, r7
 80040b0:	f67f addb 	bls.w	8003c6a <HAL_PCD_IRQHandler+0x236>
 80040b4:	fb09 f307 	mul.w	r3, r9, r7
 80040b8:	f818 3003 	ldrb.w	r3, [r8, r3]
 80040bc:	2b01      	cmp	r3, #1
 80040be:	d103      	bne.n	80040c8 <HAL_PCD_IRQHandler+0x694>
 80040c0:	b2f9      	uxtb	r1, r7
 80040c2:	4620      	mov	r0, r4
 80040c4:	f7ff fca6 	bl	8003a14 <HAL_PCD_EP_Abort>
 80040c8:	3701      	adds	r7, #1
 80040ca:	e7ef      	b.n	80040ac <HAL_PCD_IRQHandler+0x678>
 80040cc:	f898 303c 	ldrb.w	r3, [r8, #60]	@ 0x3c
 80040d0:	f8d9 2000 	ldr.w	r2, [r9]
 80040d4:	2b01      	cmp	r3, #1
 80040d6:	d109      	bne.n	80040ec <HAL_PCD_IRQHandler+0x6b8>
 80040d8:	2a00      	cmp	r2, #0
 80040da:	da07      	bge.n	80040ec <HAL_PCD_IRQHandler+0x6b8>
 80040dc:	f067 017f 	orn	r1, r7, #127	@ 0x7f
 80040e0:	4620      	mov	r0, r4
 80040e2:	f888 303b 	strb.w	r3, [r8, #59]	@ 0x3b
 80040e6:	b2c9      	uxtb	r1, r1
 80040e8:	f7ff fc94 	bl	8003a14 <HAL_PCD_EP_Abort>
 80040ec:	3701      	adds	r7, #1
 80040ee:	f108 0824 	add.w	r8, r8, #36	@ 0x24
 80040f2:	f109 0920 	add.w	r9, r9, #32
 80040f6:	e5c1      	b.n	8003c7c <HAL_PCD_IRQHandler+0x248>
 80040f8:	f10c 0c01 	add.w	ip, ip, #1
 80040fc:	3324      	adds	r3, #36	@ 0x24
 80040fe:	3120      	adds	r1, #32
 8004100:	e5d1      	b.n	8003ca6 <HAL_PCD_IRQHandler+0x272>
 8004102:	bf00      	nop

08004104 <HAL_PCD_EP_Flush>:
 8004104:	b510      	push	{r4, lr}
 8004106:	f890 3494 	ldrb.w	r3, [r0, #1172]	@ 0x494
 800410a:	4604      	mov	r4, r0
 800410c:	2b01      	cmp	r3, #1
 800410e:	d010      	beq.n	8004132 <HAL_PCD_EP_Flush+0x2e>
 8004110:	2301      	movs	r3, #1
 8004112:	f880 3494 	strb.w	r3, [r0, #1172]	@ 0x494
 8004116:	060b      	lsls	r3, r1, #24
 8004118:	6800      	ldr	r0, [r0, #0]
 800411a:	d507      	bpl.n	800412c <HAL_PCD_EP_Flush+0x28>
 800411c:	f001 010f 	and.w	r1, r1, #15
 8004120:	f001 feee 	bl	8005f00 <USB_FlushTxFifo>
 8004124:	2000      	movs	r0, #0
 8004126:	f884 0494 	strb.w	r0, [r4, #1172]	@ 0x494
 800412a:	bd10      	pop	{r4, pc}
 800412c:	f001 ff0b 	bl	8005f46 <USB_FlushRxFifo>
 8004130:	e7f8      	b.n	8004124 <HAL_PCD_EP_Flush+0x20>
 8004132:	2002      	movs	r0, #2
 8004134:	e7f9      	b.n	800412a <HAL_PCD_EP_Flush+0x26>

08004136 <HAL_PCDEx_SetTxFiFo>:
 8004136:	6800      	ldr	r0, [r0, #0]
 8004138:	0412      	lsls	r2, r2, #16
 800413a:	6a43      	ldr	r3, [r0, #36]	@ 0x24
 800413c:	b570      	push	{r4, r5, r6, lr}
 800413e:	b919      	cbnz	r1, 8004148 <HAL_PCDEx_SetTxFiFo+0x12>
 8004140:	4313      	orrs	r3, r2
 8004142:	6283      	str	r3, [r0, #40]	@ 0x28
 8004144:	2000      	movs	r0, #0
 8004146:	bd70      	pop	{r4, r5, r6, pc}
 8004148:	6a84      	ldr	r4, [r0, #40]	@ 0x28
 800414a:	1e4e      	subs	r6, r1, #1
 800414c:	eb03 4314 	add.w	r3, r3, r4, lsr #16
 8004150:	2400      	movs	r4, #0
 8004152:	42b4      	cmp	r4, r6
 8004154:	d305      	bcc.n	8004162 <HAL_PCDEx_SetTxFiFo+0x2c>
 8004156:	313f      	adds	r1, #63	@ 0x3f
 8004158:	4313      	orrs	r3, r2
 800415a:	eb00 0081 	add.w	r0, r0, r1, lsl #2
 800415e:	6043      	str	r3, [r0, #4]
 8004160:	e7f0      	b.n	8004144 <HAL_PCDEx_SetTxFiFo+0xe>
 8004162:	f104 0540 	add.w	r5, r4, #64	@ 0x40
 8004166:	3401      	adds	r4, #1
 8004168:	eb00 0585 	add.w	r5, r0, r5, lsl #2
 800416c:	686d      	ldr	r5, [r5, #4]
 800416e:	eb03 4315 	add.w	r3, r3, r5, lsr #16
 8004172:	e7ee      	b.n	8004152 <HAL_PCDEx_SetTxFiFo+0x1c>

08004174 <HAL_PCDEx_SetRxFiFo>:
 8004174:	6803      	ldr	r3, [r0, #0]
 8004176:	2000      	movs	r0, #0
 8004178:	6259      	str	r1, [r3, #36]	@ 0x24
 800417a:	4770      	bx	lr

0800417c <HAL_PCDEx_ActivateLPM>:
 800417c:	2101      	movs	r1, #1
 800417e:	6802      	ldr	r2, [r0, #0]
 8004180:	4603      	mov	r3, r0
 8004182:	f8c0 14d8 	str.w	r1, [r0, #1240]	@ 0x4d8
 8004186:	2000      	movs	r0, #0
 8004188:	f883 04cc 	strb.w	r0, [r3, #1228]	@ 0x4cc
 800418c:	6993      	ldr	r3, [r2, #24]
 800418e:	f043 6300 	orr.w	r3, r3, #134217728	@ 0x8000000
 8004192:	6193      	str	r3, [r2, #24]
 8004194:	6d53      	ldr	r3, [r2, #84]	@ 0x54
 8004196:	f043 5380 	orr.w	r3, r3, #268435456	@ 0x10000000
 800419a:	f043 0303 	orr.w	r3, r3, #3
 800419e:	6553      	str	r3, [r2, #84]	@ 0x54
 80041a0:	4770      	bx	lr
	...

080041a4 <HAL_PWREx_EnableOverDrive>:
 80041a4:	4b19      	ldr	r3, [pc, #100]	@ (800420c <HAL_PWREx_EnableOverDrive+0x68>)
 80041a6:	b537      	push	{r0, r1, r2, r4, r5, lr}
 80041a8:	6c1a      	ldr	r2, [r3, #64]	@ 0x40
 80041aa:	4c19      	ldr	r4, [pc, #100]	@ (8004210 <HAL_PWREx_EnableOverDrive+0x6c>)
 80041ac:	f042 5280 	orr.w	r2, r2, #268435456	@ 0x10000000
 80041b0:	641a      	str	r2, [r3, #64]	@ 0x40
 80041b2:	6c1b      	ldr	r3, [r3, #64]	@ 0x40
 80041b4:	f003 5380 	and.w	r3, r3, #268435456	@ 0x10000000
 80041b8:	9301      	str	r3, [sp, #4]
 80041ba:	9b01      	ldr	r3, [sp, #4]
 80041bc:	6823      	ldr	r3, [r4, #0]
 80041be:	f443 3380 	orr.w	r3, r3, #65536	@ 0x10000
 80041c2:	6023      	str	r3, [r4, #0]
 80041c4:	f7fe f91a 	bl	80023fc <HAL_GetTick>
 80041c8:	4605      	mov	r5, r0
 80041ca:	6863      	ldr	r3, [r4, #4]
 80041cc:	03da      	lsls	r2, r3, #15
 80041ce:	d50c      	bpl.n	80041ea <HAL_PWREx_EnableOverDrive+0x46>
 80041d0:	6823      	ldr	r3, [r4, #0]
 80041d2:	4d0f      	ldr	r5, [pc, #60]	@ (8004210 <HAL_PWREx_EnableOverDrive+0x6c>)
 80041d4:	f443 3300 	orr.w	r3, r3, #131072	@ 0x20000
 80041d8:	6023      	str	r3, [r4, #0]
 80041da:	f7fe f90f 	bl	80023fc <HAL_GetTick>
 80041de:	4604      	mov	r4, r0
 80041e0:	686b      	ldr	r3, [r5, #4]
 80041e2:	039b      	lsls	r3, r3, #14
 80041e4:	d50a      	bpl.n	80041fc <HAL_PWREx_EnableOverDrive+0x58>
 80041e6:	2000      	movs	r0, #0
 80041e8:	e006      	b.n	80041f8 <HAL_PWREx_EnableOverDrive+0x54>
 80041ea:	f7fe f907 	bl	80023fc <HAL_GetTick>
 80041ee:	1b40      	subs	r0, r0, r5
 80041f0:	f5b0 7f7a 	cmp.w	r0, #1000	@ 0x3e8
 80041f4:	d9e9      	bls.n	80041ca <HAL_PWREx_EnableOverDrive+0x26>
 80041f6:	2003      	movs	r0, #3
 80041f8:	b003      	add	sp, #12
 80041fa:	bd30      	pop	{r4, r5, pc}
 80041fc:	f7fe f8fe 	bl	80023fc <HAL_GetTick>
 8004200:	1b00      	subs	r0, r0, r4
 8004202:	f5b0 7f7a 	cmp.w	r0, #1000	@ 0x3e8
 8004206:	d9eb      	bls.n	80041e0 <HAL_PWREx_EnableOverDrive+0x3c>
 8004208:	e7f5      	b.n	80041f6 <HAL_PWREx_EnableOverDrive+0x52>
 800420a:	bf00      	nop
 800420c:	40023800 	.word	0x40023800
 8004210:	40007000 	.word	0x40007000

08004214 <HAL_RCC_DeInit>:
 8004214:	b570      	push	{r4, r5, r6, lr}
 8004216:	4c47      	ldr	r4, [pc, #284]	@ (8004334 <HAL_RCC_DeInit+0x120>)
 8004218:	f7fe f8f0 	bl	80023fc <HAL_GetTick>
 800421c:	4605      	mov	r5, r0
 800421e:	6823      	ldr	r3, [r4, #0]
 8004220:	f043 0301 	orr.w	r3, r3, #1
 8004224:	6023      	str	r3, [r4, #0]
 8004226:	6823      	ldr	r3, [r4, #0]
 8004228:	079e      	lsls	r6, r3, #30
 800422a:	d55d      	bpl.n	80042e8 <HAL_RCC_DeInit+0xd4>
 800422c:	6823      	ldr	r3, [r4, #0]
 800422e:	f241 3688 	movw	r6, #5000	@ 0x1388
 8004232:	f043 0380 	orr.w	r3, r3, #128	@ 0x80
 8004236:	6023      	str	r3, [r4, #0]
 8004238:	f7fe f8e0 	bl	80023fc <HAL_GetTick>
 800423c:	2300      	movs	r3, #0
 800423e:	4605      	mov	r5, r0
 8004240:	60a3      	str	r3, [r4, #8]
 8004242:	4c3c      	ldr	r4, [pc, #240]	@ (8004334 <HAL_RCC_DeInit+0x120>)
 8004244:	68a3      	ldr	r3, [r4, #8]
 8004246:	f013 0f0c 	tst.w	r3, #12
 800424a:	d154      	bne.n	80042f6 <HAL_RCC_DeInit+0xe2>
 800424c:	f7fe f8d6 	bl	80023fc <HAL_GetTick>
 8004250:	6823      	ldr	r3, [r4, #0]
 8004252:	4605      	mov	r5, r0
 8004254:	f423 2350 	bic.w	r3, r3, #851968	@ 0xd0000
 8004258:	6023      	str	r3, [r4, #0]
 800425a:	4c36      	ldr	r4, [pc, #216]	@ (8004334 <HAL_RCC_DeInit+0x120>)
 800425c:	6823      	ldr	r3, [r4, #0]
 800425e:	0398      	lsls	r0, r3, #14
 8004260:	d44f      	bmi.n	8004302 <HAL_RCC_DeInit+0xee>
 8004262:	f7fe f8cb 	bl	80023fc <HAL_GetTick>
 8004266:	6823      	ldr	r3, [r4, #0]
 8004268:	4605      	mov	r5, r0
 800426a:	f023 7380 	bic.w	r3, r3, #16777216	@ 0x1000000
 800426e:	6023      	str	r3, [r4, #0]
 8004270:	4c30      	ldr	r4, [pc, #192]	@ (8004334 <HAL_RCC_DeInit+0x120>)
 8004272:	6823      	ldr	r3, [r4, #0]
 8004274:	0199      	lsls	r1, r3, #6
 8004276:	d44a      	bmi.n	800430e <HAL_RCC_DeInit+0xfa>
 8004278:	f7fe f8c0 	bl	80023fc <HAL_GetTick>
 800427c:	6823      	ldr	r3, [r4, #0]
 800427e:	4605      	mov	r5, r0
 8004280:	f023 6380 	bic.w	r3, r3, #67108864	@ 0x4000000
 8004284:	6023      	str	r3, [r4, #0]
 8004286:	4c2b      	ldr	r4, [pc, #172]	@ (8004334 <HAL_RCC_DeInit+0x120>)
 8004288:	6823      	ldr	r3, [r4, #0]
 800428a:	011a      	lsls	r2, r3, #4
 800428c:	d445      	bmi.n	800431a <HAL_RCC_DeInit+0x106>
 800428e:	f7fe f8b5 	bl	80023fc <HAL_GetTick>
 8004292:	6823      	ldr	r3, [r4, #0]
 8004294:	4605      	mov	r5, r0
 8004296:	f023 5380 	bic.w	r3, r3, #268435456	@ 0x10000000
 800429a:	6023      	str	r3, [r4, #0]
 800429c:	4c25      	ldr	r4, [pc, #148]	@ (8004334 <HAL_RCC_DeInit+0x120>)
 800429e:	6823      	ldr	r3, [r4, #0]
 80042a0:	009b      	lsls	r3, r3, #2
 80042a2:	d440      	bmi.n	8004326 <HAL_RCC_DeInit+0x112>
 80042a4:	4b24      	ldr	r3, [pc, #144]	@ (8004338 <HAL_RCC_DeInit+0x124>)
 80042a6:	4a25      	ldr	r2, [pc, #148]	@ (800433c <HAL_RCC_DeInit+0x128>)
 80042a8:	6063      	str	r3, [r4, #4]
 80042aa:	3b10      	subs	r3, #16
 80042ac:	f8c4 3084 	str.w	r3, [r4, #132]	@ 0x84
 80042b0:	f8c4 3088 	str.w	r3, [r4, #136]	@ 0x88
 80042b4:	68e3      	ldr	r3, [r4, #12]
 80042b6:	f423 43fe 	bic.w	r3, r3, #32512	@ 0x7f00
 80042ba:	60e3      	str	r3, [r4, #12]
 80042bc:	68e3      	ldr	r3, [r4, #12]
 80042be:	f443 037f 	orr.w	r3, r3, #16711680	@ 0xff0000
 80042c2:	60e3      	str	r3, [r4, #12]
 80042c4:	6f63      	ldr	r3, [r4, #116]	@ 0x74
 80042c6:	f023 0301 	bic.w	r3, r3, #1
 80042ca:	6763      	str	r3, [r4, #116]	@ 0x74
 80042cc:	6f63      	ldr	r3, [r4, #116]	@ 0x74
 80042ce:	f043 7380 	orr.w	r3, r3, #16777216	@ 0x1000000
 80042d2:	6763      	str	r3, [r4, #116]	@ 0x74
 80042d4:	4b1a      	ldr	r3, [pc, #104]	@ (8004340 <HAL_RCC_DeInit+0x12c>)
 80042d6:	601a      	str	r2, [r3, #0]
 80042d8:	4b1a      	ldr	r3, [pc, #104]	@ (8004344 <HAL_RCC_DeInit+0x130>)
 80042da:	6818      	ldr	r0, [r3, #0]
 80042dc:	f7fe f852 	bl	8002384 <HAL_InitTick>
 80042e0:	3800      	subs	r0, #0
 80042e2:	bf18      	it	ne
 80042e4:	2001      	movne	r0, #1
 80042e6:	e005      	b.n	80042f4 <HAL_RCC_DeInit+0xe0>
 80042e8:	f7fe f888 	bl	80023fc <HAL_GetTick>
 80042ec:	1b40      	subs	r0, r0, r5
 80042ee:	2802      	cmp	r0, #2
 80042f0:	d999      	bls.n	8004226 <HAL_RCC_DeInit+0x12>
 80042f2:	2003      	movs	r0, #3
 80042f4:	bd70      	pop	{r4, r5, r6, pc}
 80042f6:	f7fe f881 	bl	80023fc <HAL_GetTick>
 80042fa:	1b40      	subs	r0, r0, r5
 80042fc:	42b0      	cmp	r0, r6
 80042fe:	d9a1      	bls.n	8004244 <HAL_RCC_DeInit+0x30>
 8004300:	e7f7      	b.n	80042f2 <HAL_RCC_DeInit+0xde>
 8004302:	f7fe f87b 	bl	80023fc <HAL_GetTick>
 8004306:	1b40      	subs	r0, r0, r5
 8004308:	2864      	cmp	r0, #100	@ 0x64
 800430a:	d9a7      	bls.n	800425c <HAL_RCC_DeInit+0x48>
 800430c:	e7f1      	b.n	80042f2 <HAL_RCC_DeInit+0xde>
 800430e:	f7fe f875 	bl	80023fc <HAL_GetTick>
 8004312:	1b40      	subs	r0, r0, r5
 8004314:	2802      	cmp	r0, #2
 8004316:	d9ac      	bls.n	8004272 <HAL_RCC_DeInit+0x5e>
 8004318:	e7eb      	b.n	80042f2 <HAL_RCC_DeInit+0xde>
 800431a:	f7fe f86f 	bl	80023fc <HAL_GetTick>
 800431e:	1b40      	subs	r0, r0, r5
 8004320:	2864      	cmp	r0, #100	@ 0x64
 8004322:	d9b1      	bls.n	8004288 <HAL_RCC_DeInit+0x74>
 8004324:	e7e5      	b.n	80042f2 <HAL_RCC_DeInit+0xde>
 8004326:	f7fe f869 	bl	80023fc <HAL_GetTick>
 800432a:	1b40      	subs	r0, r0, r5
 800432c:	2864      	cmp	r0, #100	@ 0x64
 800432e:	d9b6      	bls.n	800429e <HAL_RCC_DeInit+0x8a>
 8004330:	e7df      	b.n	80042f2 <HAL_RCC_DeInit+0xde>
 8004332:	bf00      	nop
 8004334:	40023800 	.word	0x40023800
 8004338:	24003010 	.word	0x24003010
 800433c:	00f42400 	.word	0x00f42400
 8004340:	20000020 	.word	0x20000020
 8004344:	20000028 	.word	0x20000028

08004348 <HAL_RCC_OscConfig>:
 8004348:	e92d 41f3 	stmdb	sp!, {r0, r1, r4, r5, r6, r7, r8, lr}
 800434c:	4604      	mov	r4, r0
 800434e:	b340      	cbz	r0, 80043a2 <HAL_RCC_OscConfig+0x5a>
 8004350:	6803      	ldr	r3, [r0, #0]
 8004352:	07de      	lsls	r6, r3, #31
 8004354:	d410      	bmi.n	8004378 <HAL_RCC_OscConfig+0x30>
 8004356:	6823      	ldr	r3, [r4, #0]
 8004358:	079d      	lsls	r5, r3, #30
 800435a:	d461      	bmi.n	8004420 <HAL_RCC_OscConfig+0xd8>
 800435c:	6823      	ldr	r3, [r4, #0]
 800435e:	0719      	lsls	r1, r3, #28
 8004360:	f100 80a6 	bmi.w	80044b0 <HAL_RCC_OscConfig+0x168>
 8004364:	6823      	ldr	r3, [r4, #0]
 8004366:	075a      	lsls	r2, r3, #29
 8004368:	f100 80c7 	bmi.w	80044fa <HAL_RCC_OscConfig+0x1b2>
 800436c:	69a2      	ldr	r2, [r4, #24]
 800436e:	2a00      	cmp	r2, #0
 8004370:	f040 8130 	bne.w	80045d4 <HAL_RCC_OscConfig+0x28c>
 8004374:	2000      	movs	r0, #0
 8004376:	e02c      	b.n	80043d2 <HAL_RCC_OscConfig+0x8a>
 8004378:	4b94      	ldr	r3, [pc, #592]	@ (80045cc <HAL_RCC_OscConfig+0x284>)
 800437a:	689a      	ldr	r2, [r3, #8]
 800437c:	f002 020c 	and.w	r2, r2, #12
 8004380:	2a04      	cmp	r2, #4
 8004382:	d007      	beq.n	8004394 <HAL_RCC_OscConfig+0x4c>
 8004384:	689a      	ldr	r2, [r3, #8]
 8004386:	f002 020c 	and.w	r2, r2, #12
 800438a:	2a08      	cmp	r2, #8
 800438c:	d10b      	bne.n	80043a6 <HAL_RCC_OscConfig+0x5e>
 800438e:	685b      	ldr	r3, [r3, #4]
 8004390:	0259      	lsls	r1, r3, #9
 8004392:	d508      	bpl.n	80043a6 <HAL_RCC_OscConfig+0x5e>
 8004394:	4b8d      	ldr	r3, [pc, #564]	@ (80045cc <HAL_RCC_OscConfig+0x284>)
 8004396:	681b      	ldr	r3, [r3, #0]
 8004398:	039a      	lsls	r2, r3, #14
 800439a:	d5dc      	bpl.n	8004356 <HAL_RCC_OscConfig+0xe>
 800439c:	6863      	ldr	r3, [r4, #4]
 800439e:	2b00      	cmp	r3, #0
 80043a0:	d1d9      	bne.n	8004356 <HAL_RCC_OscConfig+0xe>
 80043a2:	2001      	movs	r0, #1
 80043a4:	e015      	b.n	80043d2 <HAL_RCC_OscConfig+0x8a>
 80043a6:	6863      	ldr	r3, [r4, #4]
 80043a8:	4d88      	ldr	r5, [pc, #544]	@ (80045cc <HAL_RCC_OscConfig+0x284>)
 80043aa:	f5b3 3f80 	cmp.w	r3, #65536	@ 0x10000
 80043ae:	d113      	bne.n	80043d8 <HAL_RCC_OscConfig+0x90>
 80043b0:	682b      	ldr	r3, [r5, #0]
 80043b2:	f443 3380 	orr.w	r3, r3, #65536	@ 0x10000
 80043b6:	602b      	str	r3, [r5, #0]
 80043b8:	f7fe f820 	bl	80023fc <HAL_GetTick>
 80043bc:	4e83      	ldr	r6, [pc, #524]	@ (80045cc <HAL_RCC_OscConfig+0x284>)
 80043be:	4605      	mov	r5, r0
 80043c0:	6833      	ldr	r3, [r6, #0]
 80043c2:	039b      	lsls	r3, r3, #14
 80043c4:	d4c7      	bmi.n	8004356 <HAL_RCC_OscConfig+0xe>
 80043c6:	f7fe f819 	bl	80023fc <HAL_GetTick>
 80043ca:	1b40      	subs	r0, r0, r5
 80043cc:	2864      	cmp	r0, #100	@ 0x64
 80043ce:	d9f7      	bls.n	80043c0 <HAL_RCC_OscConfig+0x78>
 80043d0:	2003      	movs	r0, #3
 80043d2:	b002      	add	sp, #8
 80043d4:	e8bd 81f0 	ldmia.w	sp!, {r4, r5, r6, r7, r8, pc}
 80043d8:	b99b      	cbnz	r3, 8004402 <HAL_RCC_OscConfig+0xba>
 80043da:	682b      	ldr	r3, [r5, #0]
 80043dc:	f423 3380 	bic.w	r3, r3, #65536	@ 0x10000
 80043e0:	602b      	str	r3, [r5, #0]
 80043e2:	682b      	ldr	r3, [r5, #0]
 80043e4:	f423 2380 	bic.w	r3, r3, #262144	@ 0x40000
 80043e8:	602b      	str	r3, [r5, #0]
 80043ea:	f7fe f807 	bl	80023fc <HAL_GetTick>
 80043ee:	4606      	mov	r6, r0
 80043f0:	682b      	ldr	r3, [r5, #0]
 80043f2:	039f      	lsls	r7, r3, #14
 80043f4:	d5af      	bpl.n	8004356 <HAL_RCC_OscConfig+0xe>
 80043f6:	f7fe f801 	bl	80023fc <HAL_GetTick>
 80043fa:	1b80      	subs	r0, r0, r6
 80043fc:	2864      	cmp	r0, #100	@ 0x64
 80043fe:	d9f7      	bls.n	80043f0 <HAL_RCC_OscConfig+0xa8>
 8004400:	e7e6      	b.n	80043d0 <HAL_RCC_OscConfig+0x88>
 8004402:	f5b3 2fa0 	cmp.w	r3, #327680	@ 0x50000
 8004406:	682b      	ldr	r3, [r5, #0]
 8004408:	d103      	bne.n	8004412 <HAL_RCC_OscConfig+0xca>
 800440a:	f443 2380 	orr.w	r3, r3, #262144	@ 0x40000
 800440e:	602b      	str	r3, [r5, #0]
 8004410:	e7ce      	b.n	80043b0 <HAL_RCC_OscConfig+0x68>
 8004412:	f423 3380 	bic.w	r3, r3, #65536	@ 0x10000
 8004416:	602b      	str	r3, [r5, #0]
 8004418:	682b      	ldr	r3, [r5, #0]
 800441a:	f423 2380 	bic.w	r3, r3, #262144	@ 0x40000
 800441e:	e7ca      	b.n	80043b6 <HAL_RCC_OscConfig+0x6e>
 8004420:	4b6a      	ldr	r3, [pc, #424]	@ (80045cc <HAL_RCC_OscConfig+0x284>)
 8004422:	689a      	ldr	r2, [r3, #8]
 8004424:	f012 0f0c 	tst.w	r2, #12
 8004428:	d007      	beq.n	800443a <HAL_RCC_OscConfig+0xf2>
 800442a:	689a      	ldr	r2, [r3, #8]
 800442c:	f002 020c 	and.w	r2, r2, #12
 8004430:	2a08      	cmp	r2, #8
 8004432:	d111      	bne.n	8004458 <HAL_RCC_OscConfig+0x110>
 8004434:	685b      	ldr	r3, [r3, #4]
 8004436:	025d      	lsls	r5, r3, #9
 8004438:	d40e      	bmi.n	8004458 <HAL_RCC_OscConfig+0x110>
 800443a:	4a64      	ldr	r2, [pc, #400]	@ (80045cc <HAL_RCC_OscConfig+0x284>)
 800443c:	6813      	ldr	r3, [r2, #0]
 800443e:	0799      	lsls	r1, r3, #30
 8004440:	d502      	bpl.n	8004448 <HAL_RCC_OscConfig+0x100>
 8004442:	68e3      	ldr	r3, [r4, #12]
 8004444:	2b01      	cmp	r3, #1
 8004446:	d1ac      	bne.n	80043a2 <HAL_RCC_OscConfig+0x5a>
 8004448:	6813      	ldr	r3, [r2, #0]
 800444a:	6921      	ldr	r1, [r4, #16]
 800444c:	f023 03f8 	bic.w	r3, r3, #248	@ 0xf8
 8004450:	ea43 03c1 	orr.w	r3, r3, r1, lsl #3
 8004454:	6013      	str	r3, [r2, #0]
 8004456:	e781      	b.n	800435c <HAL_RCC_OscConfig+0x14>
 8004458:	68e3      	ldr	r3, [r4, #12]
 800445a:	4d5c      	ldr	r5, [pc, #368]	@ (80045cc <HAL_RCC_OscConfig+0x284>)
 800445c:	b1bb      	cbz	r3, 800448e <HAL_RCC_OscConfig+0x146>
 800445e:	682b      	ldr	r3, [r5, #0]
 8004460:	f043 0301 	orr.w	r3, r3, #1
 8004464:	602b      	str	r3, [r5, #0]
 8004466:	f7fd ffc9 	bl	80023fc <HAL_GetTick>
 800446a:	4606      	mov	r6, r0
 800446c:	682b      	ldr	r3, [r5, #0]
 800446e:	079b      	lsls	r3, r3, #30
 8004470:	d507      	bpl.n	8004482 <HAL_RCC_OscConfig+0x13a>
 8004472:	682b      	ldr	r3, [r5, #0]
 8004474:	6922      	ldr	r2, [r4, #16]
 8004476:	f023 03f8 	bic.w	r3, r3, #248	@ 0xf8
 800447a:	ea43 03c2 	orr.w	r3, r3, r2, lsl #3
 800447e:	602b      	str	r3, [r5, #0]
 8004480:	e76c      	b.n	800435c <HAL_RCC_OscConfig+0x14>
 8004482:	f7fd ffbb 	bl	80023fc <HAL_GetTick>
 8004486:	1b80      	subs	r0, r0, r6
 8004488:	2802      	cmp	r0, #2
 800448a:	d9ef      	bls.n	800446c <HAL_RCC_OscConfig+0x124>
 800448c:	e7a0      	b.n	80043d0 <HAL_RCC_OscConfig+0x88>
 800448e:	682b      	ldr	r3, [r5, #0]
 8004490:	f023 0301 	bic.w	r3, r3, #1
 8004494:	602b      	str	r3, [r5, #0]
 8004496:	f7fd ffb1 	bl	80023fc <HAL_GetTick>
 800449a:	4606      	mov	r6, r0
 800449c:	682b      	ldr	r3, [r5, #0]
 800449e:	079f      	lsls	r7, r3, #30
 80044a0:	f57f af5c 	bpl.w	800435c <HAL_RCC_OscConfig+0x14>
 80044a4:	f7fd ffaa 	bl	80023fc <HAL_GetTick>
 80044a8:	1b80      	subs	r0, r0, r6
 80044aa:	2802      	cmp	r0, #2
 80044ac:	d9f6      	bls.n	800449c <HAL_RCC_OscConfig+0x154>
 80044ae:	e78f      	b.n	80043d0 <HAL_RCC_OscConfig+0x88>
 80044b0:	6963      	ldr	r3, [r4, #20]
 80044b2:	4d46      	ldr	r5, [pc, #280]	@ (80045cc <HAL_RCC_OscConfig+0x284>)
 80044b4:	b183      	cbz	r3, 80044d8 <HAL_RCC_OscConfig+0x190>
 80044b6:	6f6b      	ldr	r3, [r5, #116]	@ 0x74
 80044b8:	f043 0301 	orr.w	r3, r3, #1
 80044bc:	676b      	str	r3, [r5, #116]	@ 0x74
 80044be:	f7fd ff9d 	bl	80023fc <HAL_GetTick>
 80044c2:	4606      	mov	r6, r0
 80044c4:	6f6b      	ldr	r3, [r5, #116]	@ 0x74
 80044c6:	079b      	lsls	r3, r3, #30
 80044c8:	f53f af4c 	bmi.w	8004364 <HAL_RCC_OscConfig+0x1c>
 80044cc:	f7fd ff96 	bl	80023fc <HAL_GetTick>
 80044d0:	1b80      	subs	r0, r0, r6
 80044d2:	2802      	cmp	r0, #2
 80044d4:	d9f6      	bls.n	80044c4 <HAL_RCC_OscConfig+0x17c>
 80044d6:	e77b      	b.n	80043d0 <HAL_RCC_OscConfig+0x88>
 80044d8:	6f6b      	ldr	r3, [r5, #116]	@ 0x74
 80044da:	f023 0301 	bic.w	r3, r3, #1
 80044de:	676b      	str	r3, [r5, #116]	@ 0x74
 80044e0:	f7fd ff8c 	bl	80023fc <HAL_GetTick>
 80044e4:	4606      	mov	r6, r0
 80044e6:	6f6b      	ldr	r3, [r5, #116]	@ 0x74
 80044e8:	079f      	lsls	r7, r3, #30
 80044ea:	f57f af3b 	bpl.w	8004364 <HAL_RCC_OscConfig+0x1c>
 80044ee:	f7fd ff85 	bl	80023fc <HAL_GetTick>
 80044f2:	1b80      	subs	r0, r0, r6
 80044f4:	2802      	cmp	r0, #2
 80044f6:	d9f6      	bls.n	80044e6 <HAL_RCC_OscConfig+0x19e>
 80044f8:	e76a      	b.n	80043d0 <HAL_RCC_OscConfig+0x88>
 80044fa:	4b34      	ldr	r3, [pc, #208]	@ (80045cc <HAL_RCC_OscConfig+0x284>)
 80044fc:	6c1a      	ldr	r2, [r3, #64]	@ 0x40
 80044fe:	00d5      	lsls	r5, r2, #3
 8004500:	d427      	bmi.n	8004552 <HAL_RCC_OscConfig+0x20a>
 8004502:	6c1a      	ldr	r2, [r3, #64]	@ 0x40
 8004504:	2701      	movs	r7, #1
 8004506:	f042 5280 	orr.w	r2, r2, #268435456	@ 0x10000000
 800450a:	641a      	str	r2, [r3, #64]	@ 0x40
 800450c:	6c1b      	ldr	r3, [r3, #64]	@ 0x40
 800450e:	f003 5380 	and.w	r3, r3, #268435456	@ 0x10000000
 8004512:	9301      	str	r3, [sp, #4]
 8004514:	9b01      	ldr	r3, [sp, #4]
 8004516:	4d2e      	ldr	r5, [pc, #184]	@ (80045d0 <HAL_RCC_OscConfig+0x288>)
 8004518:	682b      	ldr	r3, [r5, #0]
 800451a:	05d8      	lsls	r0, r3, #23
 800451c:	d51b      	bpl.n	8004556 <HAL_RCC_OscConfig+0x20e>
 800451e:	68a3      	ldr	r3, [r4, #8]
 8004520:	4d2a      	ldr	r5, [pc, #168]	@ (80045cc <HAL_RCC_OscConfig+0x284>)
 8004522:	2b01      	cmp	r3, #1
 8004524:	d127      	bne.n	8004576 <HAL_RCC_OscConfig+0x22e>
 8004526:	6f2b      	ldr	r3, [r5, #112]	@ 0x70
 8004528:	f043 0301 	orr.w	r3, r3, #1
 800452c:	672b      	str	r3, [r5, #112]	@ 0x70
 800452e:	f241 3888 	movw	r8, #5000	@ 0x1388
 8004532:	f7fd ff63 	bl	80023fc <HAL_GetTick>
 8004536:	4e25      	ldr	r6, [pc, #148]	@ (80045cc <HAL_RCC_OscConfig+0x284>)
 8004538:	4605      	mov	r5, r0
 800453a:	6f33      	ldr	r3, [r6, #112]	@ 0x70
 800453c:	079a      	lsls	r2, r3, #30
 800453e:	d53f      	bpl.n	80045c0 <HAL_RCC_OscConfig+0x278>
 8004540:	2f00      	cmp	r7, #0
 8004542:	f43f af13 	beq.w	800436c <HAL_RCC_OscConfig+0x24>
 8004546:	4a21      	ldr	r2, [pc, #132]	@ (80045cc <HAL_RCC_OscConfig+0x284>)
 8004548:	6c13      	ldr	r3, [r2, #64]	@ 0x40
 800454a:	f023 5380 	bic.w	r3, r3, #268435456	@ 0x10000000
 800454e:	6413      	str	r3, [r2, #64]	@ 0x40
 8004550:	e70c      	b.n	800436c <HAL_RCC_OscConfig+0x24>
 8004552:	2700      	movs	r7, #0
 8004554:	e7df      	b.n	8004516 <HAL_RCC_OscConfig+0x1ce>
 8004556:	682b      	ldr	r3, [r5, #0]
 8004558:	f443 7380 	orr.w	r3, r3, #256	@ 0x100
 800455c:	602b      	str	r3, [r5, #0]
 800455e:	f7fd ff4d 	bl	80023fc <HAL_GetTick>
 8004562:	4606      	mov	r6, r0
 8004564:	682b      	ldr	r3, [r5, #0]
 8004566:	05d9      	lsls	r1, r3, #23
 8004568:	d4d9      	bmi.n	800451e <HAL_RCC_OscConfig+0x1d6>
 800456a:	f7fd ff47 	bl	80023fc <HAL_GetTick>
 800456e:	1b80      	subs	r0, r0, r6
 8004570:	2864      	cmp	r0, #100	@ 0x64
 8004572:	d9f7      	bls.n	8004564 <HAL_RCC_OscConfig+0x21c>
 8004574:	e72c      	b.n	80043d0 <HAL_RCC_OscConfig+0x88>
 8004576:	b9ab      	cbnz	r3, 80045a4 <HAL_RCC_OscConfig+0x25c>
 8004578:	6f2b      	ldr	r3, [r5, #112]	@ 0x70
 800457a:	f241 3888 	movw	r8, #5000	@ 0x1388
 800457e:	f023 0301 	bic.w	r3, r3, #1
 8004582:	672b      	str	r3, [r5, #112]	@ 0x70
 8004584:	6f2b      	ldr	r3, [r5, #112]	@ 0x70
 8004586:	f023 0304 	bic.w	r3, r3, #4
 800458a:	672b      	str	r3, [r5, #112]	@ 0x70
 800458c:	f7fd ff36 	bl	80023fc <HAL_GetTick>
 8004590:	4606      	mov	r6, r0
 8004592:	6f2b      	ldr	r3, [r5, #112]	@ 0x70
 8004594:	079b      	lsls	r3, r3, #30
 8004596:	d5d3      	bpl.n	8004540 <HAL_RCC_OscConfig+0x1f8>
 8004598:	f7fd ff30 	bl	80023fc <HAL_GetTick>
 800459c:	1b80      	subs	r0, r0, r6
 800459e:	4540      	cmp	r0, r8
 80045a0:	d9f7      	bls.n	8004592 <HAL_RCC_OscConfig+0x24a>
 80045a2:	e715      	b.n	80043d0 <HAL_RCC_OscConfig+0x88>
 80045a4:	2b05      	cmp	r3, #5
 80045a6:	6f2b      	ldr	r3, [r5, #112]	@ 0x70
 80045a8:	d103      	bne.n	80045b2 <HAL_RCC_OscConfig+0x26a>
 80045aa:	f043 0304 	orr.w	r3, r3, #4
 80045ae:	672b      	str	r3, [r5, #112]	@ 0x70
 80045b0:	e7b9      	b.n	8004526 <HAL_RCC_OscConfig+0x1de>
 80045b2:	f023 0301 	bic.w	r3, r3, #1
 80045b6:	672b      	str	r3, [r5, #112]	@ 0x70
 80045b8:	6f2b      	ldr	r3, [r5, #112]	@ 0x70
 80045ba:	f023 0304 	bic.w	r3, r3, #4
 80045be:	e7b5      	b.n	800452c <HAL_RCC_OscConfig+0x1e4>
 80045c0:	f7fd ff1c 	bl	80023fc <HAL_GetTick>
 80045c4:	1b40      	subs	r0, r0, r5
 80045c6:	4540      	cmp	r0, r8
 80045c8:	d9b7      	bls.n	800453a <HAL_RCC_OscConfig+0x1f2>
 80045ca:	e701      	b.n	80043d0 <HAL_RCC_OscConfig+0x88>
 80045cc:	40023800 	.word	0x40023800
 80045d0:	40007000 	.word	0x40007000
 80045d4:	4d38      	ldr	r5, [pc, #224]	@ (80046b8 <HAL_RCC_OscConfig+0x370>)
 80045d6:	68ab      	ldr	r3, [r5, #8]
 80045d8:	f003 030c 	and.w	r3, r3, #12
 80045dc:	2b08      	cmp	r3, #8
 80045de:	d041      	beq.n	8004664 <HAL_RCC_OscConfig+0x31c>
 80045e0:	682b      	ldr	r3, [r5, #0]
 80045e2:	2a02      	cmp	r2, #2
 80045e4:	f023 7380 	bic.w	r3, r3, #16777216	@ 0x1000000
 80045e8:	602b      	str	r3, [r5, #0]
 80045ea:	d12e      	bne.n	800464a <HAL_RCC_OscConfig+0x302>
 80045ec:	f7fd ff06 	bl	80023fc <HAL_GetTick>
 80045f0:	4606      	mov	r6, r0
 80045f2:	682b      	ldr	r3, [r5, #0]
 80045f4:	0199      	lsls	r1, r3, #6
 80045f6:	d422      	bmi.n	800463e <HAL_RCC_OscConfig+0x2f6>
 80045f8:	6aa3      	ldr	r3, [r4, #40]	@ 0x28
 80045fa:	085b      	lsrs	r3, r3, #1
 80045fc:	1e5a      	subs	r2, r3, #1
 80045fe:	e9d4 3107 	ldrd	r3, r1, [r4, #28]
 8004602:	430b      	orrs	r3, r1
 8004604:	ea43 4302 	orr.w	r3, r3, r2, lsl #16
 8004608:	6a62      	ldr	r2, [r4, #36]	@ 0x24
 800460a:	ea43 1382 	orr.w	r3, r3, r2, lsl #6
 800460e:	6ae2      	ldr	r2, [r4, #44]	@ 0x2c
 8004610:	ea43 6302 	orr.w	r3, r3, r2, lsl #24
 8004614:	f043 5300 	orr.w	r3, r3, #536870912	@ 0x20000000
 8004618:	606b      	str	r3, [r5, #4]
 800461a:	682b      	ldr	r3, [r5, #0]
 800461c:	f043 7380 	orr.w	r3, r3, #16777216	@ 0x1000000
 8004620:	602b      	str	r3, [r5, #0]
 8004622:	f7fd feeb 	bl	80023fc <HAL_GetTick>
 8004626:	4d24      	ldr	r5, [pc, #144]	@ (80046b8 <HAL_RCC_OscConfig+0x370>)
 8004628:	4604      	mov	r4, r0
 800462a:	682b      	ldr	r3, [r5, #0]
 800462c:	019a      	lsls	r2, r3, #6
 800462e:	f53f aea1 	bmi.w	8004374 <HAL_RCC_OscConfig+0x2c>
 8004632:	f7fd fee3 	bl	80023fc <HAL_GetTick>
 8004636:	1b00      	subs	r0, r0, r4
 8004638:	2802      	cmp	r0, #2
 800463a:	d9f6      	bls.n	800462a <HAL_RCC_OscConfig+0x2e2>
 800463c:	e6c8      	b.n	80043d0 <HAL_RCC_OscConfig+0x88>
 800463e:	f7fd fedd 	bl	80023fc <HAL_GetTick>
 8004642:	1b80      	subs	r0, r0, r6
 8004644:	2802      	cmp	r0, #2
 8004646:	d9d4      	bls.n	80045f2 <HAL_RCC_OscConfig+0x2aa>
 8004648:	e6c2      	b.n	80043d0 <HAL_RCC_OscConfig+0x88>
 800464a:	f7fd fed7 	bl	80023fc <HAL_GetTick>
 800464e:	4604      	mov	r4, r0
 8004650:	682b      	ldr	r3, [r5, #0]
 8004652:	019b      	lsls	r3, r3, #6
 8004654:	f57f ae8e 	bpl.w	8004374 <HAL_RCC_OscConfig+0x2c>
 8004658:	f7fd fed0 	bl	80023fc <HAL_GetTick>
 800465c:	1b00      	subs	r0, r0, r4
 800465e:	2802      	cmp	r0, #2
 8004660:	d9f6      	bls.n	8004650 <HAL_RCC_OscConfig+0x308>
 8004662:	e6b5      	b.n	80043d0 <HAL_RCC_OscConfig+0x88>
 8004664:	2a01      	cmp	r2, #1
 8004666:	686b      	ldr	r3, [r5, #4]
 8004668:	f43f ae9b 	beq.w	80043a2 <HAL_RCC_OscConfig+0x5a>
 800466c:	f403 0280 	and.w	r2, r3, #4194304	@ 0x400000
 8004670:	69e1      	ldr	r1, [r4, #28]
 8004672:	428a      	cmp	r2, r1
 8004674:	f47f ae95 	bne.w	80043a2 <HAL_RCC_OscConfig+0x5a>
 8004678:	f003 023f 	and.w	r2, r3, #63	@ 0x3f
 800467c:	6a21      	ldr	r1, [r4, #32]
 800467e:	428a      	cmp	r2, r1
 8004680:	f47f ae8f 	bne.w	80043a2 <HAL_RCC_OscConfig+0x5a>
 8004684:	f647 72c0 	movw	r2, #32704	@ 0x7fc0
 8004688:	6a61      	ldr	r1, [r4, #36]	@ 0x24
 800468a:	401a      	ands	r2, r3
 800468c:	ebb2 1f81 	cmp.w	r2, r1, lsl #6
 8004690:	f47f ae87 	bne.w	80043a2 <HAL_RCC_OscConfig+0x5a>
 8004694:	6aa2      	ldr	r2, [r4, #40]	@ 0x28
 8004696:	f403 3140 	and.w	r1, r3, #196608	@ 0x30000
 800469a:	0852      	lsrs	r2, r2, #1
 800469c:	3a01      	subs	r2, #1
 800469e:	ebb1 4f02 	cmp.w	r1, r2, lsl #16
 80046a2:	f47f ae7e 	bne.w	80043a2 <HAL_RCC_OscConfig+0x5a>
 80046a6:	6ae2      	ldr	r2, [r4, #44]	@ 0x2c
 80046a8:	f003 6370 	and.w	r3, r3, #251658240	@ 0xf000000
 80046ac:	ebb3 6f02 	cmp.w	r3, r2, lsl #24
 80046b0:	bf14      	ite	ne
 80046b2:	2001      	movne	r0, #1
 80046b4:	2000      	moveq	r0, #0
 80046b6:	e68c      	b.n	80043d2 <HAL_RCC_OscConfig+0x8a>
 80046b8:	40023800 	.word	0x40023800

080046bc <HAL_RCC_GetSysClockFreq>:
 80046bc:	4913      	ldr	r1, [pc, #76]	@ (800470c <HAL_RCC_GetSysClockFreq+0x50>)
 80046be:	b508      	push	{r3, lr}
 80046c0:	688b      	ldr	r3, [r1, #8]
 80046c2:	f003 030c 	and.w	r3, r3, #12
 80046c6:	2b04      	cmp	r3, #4
 80046c8:	d01b      	beq.n	8004702 <HAL_RCC_GetSysClockFreq+0x46>
 80046ca:	2b08      	cmp	r3, #8
 80046cc:	d11b      	bne.n	8004706 <HAL_RCC_GetSysClockFreq+0x4a>
 80046ce:	684a      	ldr	r2, [r1, #4]
 80046d0:	684b      	ldr	r3, [r1, #4]
 80046d2:	6849      	ldr	r1, [r1, #4]
 80046d4:	f002 023f 	and.w	r2, r2, #63	@ 0x3f
 80046d8:	f413 0380 	ands.w	r3, r3, #4194304	@ 0x400000
 80046dc:	f3c1 1188 	ubfx	r1, r1, #6, #9
 80046e0:	bf1a      	itte	ne
 80046e2:	480b      	ldrne	r0, [pc, #44]	@ (8004710 <HAL_RCC_GetSysClockFreq+0x54>)
 80046e4:	2300      	movne	r3, #0
 80046e6:	480b      	ldreq	r0, [pc, #44]	@ (8004714 <HAL_RCC_GetSysClockFreq+0x58>)
 80046e8:	fba1 0100 	umull	r0, r1, r1, r0
 80046ec:	f7fb fe00 	bl	80002f0 <__aeabi_uldivmod>
 80046f0:	4b06      	ldr	r3, [pc, #24]	@ (800470c <HAL_RCC_GetSysClockFreq+0x50>)
 80046f2:	685b      	ldr	r3, [r3, #4]
 80046f4:	f3c3 4301 	ubfx	r3, r3, #16, #2
 80046f8:	3301      	adds	r3, #1
 80046fa:	005b      	lsls	r3, r3, #1
 80046fc:	fbb0 f0f3 	udiv	r0, r0, r3
 8004700:	bd08      	pop	{r3, pc}
 8004702:	4803      	ldr	r0, [pc, #12]	@ (8004710 <HAL_RCC_GetSysClockFreq+0x54>)
 8004704:	e7fc      	b.n	8004700 <HAL_RCC_GetSysClockFreq+0x44>
 8004706:	4803      	ldr	r0, [pc, #12]	@ (8004714 <HAL_RCC_GetSysClockFreq+0x58>)
 8004708:	e7fa      	b.n	8004700 <HAL_RCC_GetSysClockFreq+0x44>
 800470a:	bf00      	nop
 800470c:	40023800 	.word	0x40023800
 8004710:	017d7840 	.word	0x017d7840
 8004714:	00f42400 	.word	0x00f42400

08004718 <HAL_RCC_ClockConfig>:
 8004718:	e92d 41f0 	stmdb	sp!, {r4, r5, r6, r7, r8, lr}
 800471c:	460d      	mov	r5, r1
 800471e:	4604      	mov	r4, r0
 8004720:	b910      	cbnz	r0, 8004728 <HAL_RCC_ClockConfig+0x10>
 8004722:	2001      	movs	r0, #1
 8004724:	e8bd 81f0 	ldmia.w	sp!, {r4, r5, r6, r7, r8, pc}
 8004728:	4a45      	ldr	r2, [pc, #276]	@ (8004840 <HAL_RCC_ClockConfig+0x128>)
 800472a:	6813      	ldr	r3, [r2, #0]
 800472c:	f003 030f 	and.w	r3, r3, #15
 8004730:	428b      	cmp	r3, r1
 8004732:	d328      	bcc.n	8004786 <HAL_RCC_ClockConfig+0x6e>
 8004734:	6821      	ldr	r1, [r4, #0]
 8004736:	078f      	lsls	r7, r1, #30
 8004738:	d430      	bmi.n	800479c <HAL_RCC_ClockConfig+0x84>
 800473a:	07c8      	lsls	r0, r1, #31
 800473c:	d443      	bmi.n	80047c6 <HAL_RCC_ClockConfig+0xae>
 800473e:	4a40      	ldr	r2, [pc, #256]	@ (8004840 <HAL_RCC_ClockConfig+0x128>)
 8004740:	6813      	ldr	r3, [r2, #0]
 8004742:	f003 030f 	and.w	r3, r3, #15
 8004746:	42ab      	cmp	r3, r5
 8004748:	d866      	bhi.n	8004818 <HAL_RCC_ClockConfig+0x100>
 800474a:	6822      	ldr	r2, [r4, #0]
 800474c:	0751      	lsls	r1, r2, #29
 800474e:	d46f      	bmi.n	8004830 <HAL_RCC_ClockConfig+0x118>
 8004750:	0713      	lsls	r3, r2, #28
 8004752:	d507      	bpl.n	8004764 <HAL_RCC_ClockConfig+0x4c>
 8004754:	4a3b      	ldr	r2, [pc, #236]	@ (8004844 <HAL_RCC_ClockConfig+0x12c>)
 8004756:	6921      	ldr	r1, [r4, #16]
 8004758:	6893      	ldr	r3, [r2, #8]
 800475a:	f423 4360 	bic.w	r3, r3, #57344	@ 0xe000
 800475e:	ea43 03c1 	orr.w	r3, r3, r1, lsl #3
 8004762:	6093      	str	r3, [r2, #8]
 8004764:	f7ff ffaa 	bl	80046bc <HAL_RCC_GetSysClockFreq>
 8004768:	4b36      	ldr	r3, [pc, #216]	@ (8004844 <HAL_RCC_ClockConfig+0x12c>)
 800476a:	4a37      	ldr	r2, [pc, #220]	@ (8004848 <HAL_RCC_ClockConfig+0x130>)
 800476c:	689b      	ldr	r3, [r3, #8]
 800476e:	f3c3 1303 	ubfx	r3, r3, #4, #4
 8004772:	5cd3      	ldrb	r3, [r2, r3]
 8004774:	40d8      	lsrs	r0, r3
 8004776:	4b35      	ldr	r3, [pc, #212]	@ (800484c <HAL_RCC_ClockConfig+0x134>)
 8004778:	6018      	str	r0, [r3, #0]
 800477a:	4b35      	ldr	r3, [pc, #212]	@ (8004850 <HAL_RCC_ClockConfig+0x138>)
 800477c:	6818      	ldr	r0, [r3, #0]
 800477e:	f7fd fe01 	bl	8002384 <HAL_InitTick>
 8004782:	2000      	movs	r0, #0
 8004784:	e7ce      	b.n	8004724 <HAL_RCC_ClockConfig+0xc>
 8004786:	6813      	ldr	r3, [r2, #0]
 8004788:	f023 030f 	bic.w	r3, r3, #15
 800478c:	430b      	orrs	r3, r1
 800478e:	6013      	str	r3, [r2, #0]
 8004790:	6813      	ldr	r3, [r2, #0]
 8004792:	f003 030f 	and.w	r3, r3, #15
 8004796:	428b      	cmp	r3, r1
 8004798:	d1c3      	bne.n	8004722 <HAL_RCC_ClockConfig+0xa>
 800479a:	e7cb      	b.n	8004734 <HAL_RCC_ClockConfig+0x1c>
 800479c:	f011 0f04 	tst.w	r1, #4
 80047a0:	4b28      	ldr	r3, [pc, #160]	@ (8004844 <HAL_RCC_ClockConfig+0x12c>)
 80047a2:	d003      	beq.n	80047ac <HAL_RCC_ClockConfig+0x94>
 80047a4:	689a      	ldr	r2, [r3, #8]
 80047a6:	f442 52e0 	orr.w	r2, r2, #7168	@ 0x1c00
 80047aa:	609a      	str	r2, [r3, #8]
 80047ac:	070e      	lsls	r6, r1, #28
 80047ae:	d503      	bpl.n	80047b8 <HAL_RCC_ClockConfig+0xa0>
 80047b0:	689a      	ldr	r2, [r3, #8]
 80047b2:	f442 4260 	orr.w	r2, r2, #57344	@ 0xe000
 80047b6:	609a      	str	r2, [r3, #8]
 80047b8:	689a      	ldr	r2, [r3, #8]
 80047ba:	68a0      	ldr	r0, [r4, #8]
 80047bc:	f022 02f0 	bic.w	r2, r2, #240	@ 0xf0
 80047c0:	4302      	orrs	r2, r0
 80047c2:	609a      	str	r2, [r3, #8]
 80047c4:	e7b9      	b.n	800473a <HAL_RCC_ClockConfig+0x22>
 80047c6:	6861      	ldr	r1, [r4, #4]
 80047c8:	4b1e      	ldr	r3, [pc, #120]	@ (8004844 <HAL_RCC_ClockConfig+0x12c>)
 80047ca:	2901      	cmp	r1, #1
 80047cc:	681a      	ldr	r2, [r3, #0]
 80047ce:	d11b      	bne.n	8004808 <HAL_RCC_ClockConfig+0xf0>
 80047d0:	f412 3f00 	tst.w	r2, #131072	@ 0x20000
 80047d4:	d0a5      	beq.n	8004722 <HAL_RCC_ClockConfig+0xa>
 80047d6:	689a      	ldr	r2, [r3, #8]
 80047d8:	f241 3888 	movw	r8, #5000	@ 0x1388
 80047dc:	4f19      	ldr	r7, [pc, #100]	@ (8004844 <HAL_RCC_ClockConfig+0x12c>)
 80047de:	f022 0203 	bic.w	r2, r2, #3
 80047e2:	430a      	orrs	r2, r1
 80047e4:	609a      	str	r2, [r3, #8]
 80047e6:	f7fd fe09 	bl	80023fc <HAL_GetTick>
 80047ea:	4606      	mov	r6, r0
 80047ec:	68bb      	ldr	r3, [r7, #8]
 80047ee:	6862      	ldr	r2, [r4, #4]
 80047f0:	f003 030c 	and.w	r3, r3, #12
 80047f4:	ebb3 0f82 	cmp.w	r3, r2, lsl #2
 80047f8:	d0a1      	beq.n	800473e <HAL_RCC_ClockConfig+0x26>
 80047fa:	f7fd fdff 	bl	80023fc <HAL_GetTick>
 80047fe:	1b80      	subs	r0, r0, r6
 8004800:	4540      	cmp	r0, r8
 8004802:	d9f3      	bls.n	80047ec <HAL_RCC_ClockConfig+0xd4>
 8004804:	2003      	movs	r0, #3
 8004806:	e78d      	b.n	8004724 <HAL_RCC_ClockConfig+0xc>
 8004808:	2902      	cmp	r1, #2
 800480a:	d102      	bne.n	8004812 <HAL_RCC_ClockConfig+0xfa>
 800480c:	f012 7f00 	tst.w	r2, #33554432	@ 0x2000000
 8004810:	e7e0      	b.n	80047d4 <HAL_RCC_ClockConfig+0xbc>
 8004812:	f012 0f02 	tst.w	r2, #2
 8004816:	e7dd      	b.n	80047d4 <HAL_RCC_ClockConfig+0xbc>
 8004818:	6813      	ldr	r3, [r2, #0]
 800481a:	f023 030f 	bic.w	r3, r3, #15
 800481e:	432b      	orrs	r3, r5
 8004820:	6013      	str	r3, [r2, #0]
 8004822:	6813      	ldr	r3, [r2, #0]
 8004824:	f003 030f 	and.w	r3, r3, #15
 8004828:	42ab      	cmp	r3, r5
 800482a:	f47f af7a 	bne.w	8004722 <HAL_RCC_ClockConfig+0xa>
 800482e:	e78c      	b.n	800474a <HAL_RCC_ClockConfig+0x32>
 8004830:	4904      	ldr	r1, [pc, #16]	@ (8004844 <HAL_RCC_ClockConfig+0x12c>)
 8004832:	68e0      	ldr	r0, [r4, #12]
 8004834:	688b      	ldr	r3, [r1, #8]
 8004836:	f423 53e0 	bic.w	r3, r3, #7168	@ 0x1c00
 800483a:	4303      	orrs	r3, r0
 800483c:	608b      	str	r3, [r1, #8]
 800483e:	e787      	b.n	8004750 <HAL_RCC_ClockConfig+0x38>
 8004840:	40023c00 	.word	0x40023c00
 8004844:	40023800 	.word	0x40023800
 8004848:	08009c99 	.word	0x08009c99
 800484c:	20000020 	.word	0x20000020
 8004850:	20000028 	.word	0x20000028

08004854 <HAL_RCC_GetHCLKFreq>:
 8004854:	4b01      	ldr	r3, [pc, #4]	@ (800485c <HAL_RCC_GetHCLKFreq+0x8>)
 8004856:	6818      	ldr	r0, [r3, #0]
 8004858:	4770      	bx	lr
 800485a:	bf00      	nop
 800485c:	20000020 	.word	0x20000020

08004860 <HAL_RCC_GetPCLK1Freq>:
 8004860:	4b04      	ldr	r3, [pc, #16]	@ (8004874 <HAL_RCC_GetPCLK1Freq+0x14>)
 8004862:	4a05      	ldr	r2, [pc, #20]	@ (8004878 <HAL_RCC_GetPCLK1Freq+0x18>)
 8004864:	689b      	ldr	r3, [r3, #8]
 8004866:	f3c3 2382 	ubfx	r3, r3, #10, #3
 800486a:	5cd3      	ldrb	r3, [r2, r3]
 800486c:	4a03      	ldr	r2, [pc, #12]	@ (800487c <HAL_RCC_GetPCLK1Freq+0x1c>)
 800486e:	6810      	ldr	r0, [r2, #0]
 8004870:	40d8      	lsrs	r0, r3
 8004872:	4770      	bx	lr
 8004874:	40023800 	.word	0x40023800
 8004878:	08009c91 	.word	0x08009c91
 800487c:	20000020 	.word	0x20000020

08004880 <HAL_RCCEx_PeriphCLKConfig>:
 8004880:	6803      	ldr	r3, [r0, #0]
 8004882:	e92d 43f7 	stmdb	sp!, {r0, r1, r2, r4, r5, r6, r7, r8, r9, lr}
 8004886:	f013 0601 	ands.w	r6, r3, #1
 800488a:	4604      	mov	r4, r0
 800488c:	d00b      	beq.n	80048a6 <HAL_RCCEx_PeriphCLKConfig+0x26>
 800488e:	4aac      	ldr	r2, [pc, #688]	@ (8004b40 <HAL_RCCEx_PeriphCLKConfig+0x2c0>)
 8004890:	6891      	ldr	r1, [r2, #8]
 8004892:	f421 0100 	bic.w	r1, r1, #8388608	@ 0x800000
 8004896:	6091      	str	r1, [r2, #8]
 8004898:	6ac6      	ldr	r6, [r0, #44]	@ 0x2c
 800489a:	6891      	ldr	r1, [r2, #8]
 800489c:	4331      	orrs	r1, r6
 800489e:	fab6 f686 	clz	r6, r6
 80048a2:	0976      	lsrs	r6, r6, #5
 80048a4:	6091      	str	r1, [r2, #8]
 80048a6:	f413 2500 	ands.w	r5, r3, #524288	@ 0x80000
 80048aa:	d012      	beq.n	80048d2 <HAL_RCCEx_PeriphCLKConfig+0x52>
 80048ac:	49a4      	ldr	r1, [pc, #656]	@ (8004b40 <HAL_RCCEx_PeriphCLKConfig+0x2c0>)
 80048ae:	6b65      	ldr	r5, [r4, #52]	@ 0x34
 80048b0:	f8d1 208c 	ldr.w	r2, [r1, #140]	@ 0x8c
 80048b4:	f5b5 1f80 	cmp.w	r5, #1048576	@ 0x100000
 80048b8:	f422 1240 	bic.w	r2, r2, #3145728	@ 0x300000
 80048bc:	bf08      	it	eq
 80048be:	2601      	moveq	r6, #1
 80048c0:	ea42 0205 	orr.w	r2, r2, r5
 80048c4:	bf16      	itet	ne
 80048c6:	fab5 f585 	clzne	r5, r5
 80048ca:	2500      	moveq	r5, #0
 80048cc:	096d      	lsrne	r5, r5, #5
 80048ce:	f8c1 208c 	str.w	r2, [r1, #140]	@ 0x8c
 80048d2:	02d9      	lsls	r1, r3, #11
 80048d4:	d510      	bpl.n	80048f8 <HAL_RCCEx_PeriphCLKConfig+0x78>
 80048d6:	489a      	ldr	r0, [pc, #616]	@ (8004b40 <HAL_RCCEx_PeriphCLKConfig+0x2c0>)
 80048d8:	6ba1      	ldr	r1, [r4, #56]	@ 0x38
 80048da:	f8d0 208c 	ldr.w	r2, [r0, #140]	@ 0x8c
 80048de:	f5b1 0f80 	cmp.w	r1, #4194304	@ 0x400000
 80048e2:	f422 0240 	bic.w	r2, r2, #12582912	@ 0xc00000
 80048e6:	ea42 0201 	orr.w	r2, r2, r1
 80048ea:	f8c0 208c 	str.w	r2, [r0, #140]	@ 0x8c
 80048ee:	f000 814c 	beq.w	8004b8a <HAL_RCCEx_PeriphCLKConfig+0x30a>
 80048f2:	2900      	cmp	r1, #0
 80048f4:	bf08      	it	eq
 80048f6:	2501      	moveq	r5, #1
 80048f8:	069a      	lsls	r2, r3, #26
 80048fa:	d532      	bpl.n	8004962 <HAL_RCCEx_PeriphCLKConfig+0xe2>
 80048fc:	4b90      	ldr	r3, [pc, #576]	@ (8004b40 <HAL_RCCEx_PeriphCLKConfig+0x2c0>)
 80048fe:	4f91      	ldr	r7, [pc, #580]	@ (8004b44 <HAL_RCCEx_PeriphCLKConfig+0x2c4>)
 8004900:	6c1a      	ldr	r2, [r3, #64]	@ 0x40
 8004902:	f042 5280 	orr.w	r2, r2, #268435456	@ 0x10000000
 8004906:	641a      	str	r2, [r3, #64]	@ 0x40
 8004908:	6c1b      	ldr	r3, [r3, #64]	@ 0x40
 800490a:	f003 5380 	and.w	r3, r3, #268435456	@ 0x10000000
 800490e:	9301      	str	r3, [sp, #4]
 8004910:	9b01      	ldr	r3, [sp, #4]
 8004912:	683b      	ldr	r3, [r7, #0]
 8004914:	f443 7380 	orr.w	r3, r3, #256	@ 0x100
 8004918:	603b      	str	r3, [r7, #0]
 800491a:	f7fd fd6f 	bl	80023fc <HAL_GetTick>
 800491e:	4680      	mov	r8, r0
 8004920:	683b      	ldr	r3, [r7, #0]
 8004922:	05db      	lsls	r3, r3, #23
 8004924:	f140 8133 	bpl.w	8004b8e <HAL_RCCEx_PeriphCLKConfig+0x30e>
 8004928:	4f85      	ldr	r7, [pc, #532]	@ (8004b40 <HAL_RCCEx_PeriphCLKConfig+0x2c0>)
 800492a:	6aa2      	ldr	r2, [r4, #40]	@ 0x28
 800492c:	6f3b      	ldr	r3, [r7, #112]	@ 0x70
 800492e:	f413 7340 	ands.w	r3, r3, #768	@ 0x300
 8004932:	f040 8137 	bne.w	8004ba4 <HAL_RCCEx_PeriphCLKConfig+0x324>
 8004936:	6aa3      	ldr	r3, [r4, #40]	@ 0x28
 8004938:	f403 7240 	and.w	r2, r3, #768	@ 0x300
 800493c:	f5b2 7f40 	cmp.w	r2, #768	@ 0x300
 8004940:	4a7f      	ldr	r2, [pc, #508]	@ (8004b40 <HAL_RCCEx_PeriphCLKConfig+0x2c0>)
 8004942:	f040 8154 	bne.w	8004bee <HAL_RCCEx_PeriphCLKConfig+0x36e>
 8004946:	6891      	ldr	r1, [r2, #8]
 8004948:	f023 4070 	bic.w	r0, r3, #4026531840	@ 0xf0000000
 800494c:	f421 11f8 	bic.w	r1, r1, #2031616	@ 0x1f0000
 8004950:	f420 7040 	bic.w	r0, r0, #768	@ 0x300
 8004954:	4301      	orrs	r1, r0
 8004956:	6091      	str	r1, [r2, #8]
 8004958:	f3c3 030b 	ubfx	r3, r3, #0, #12
 800495c:	6f11      	ldr	r1, [r2, #112]	@ 0x70
 800495e:	430b      	orrs	r3, r1
 8004960:	6713      	str	r3, [r2, #112]	@ 0x70
 8004962:	6823      	ldr	r3, [r4, #0]
 8004964:	06da      	lsls	r2, r3, #27
 8004966:	d50c      	bpl.n	8004982 <HAL_RCCEx_PeriphCLKConfig+0x102>
 8004968:	4a75      	ldr	r2, [pc, #468]	@ (8004b40 <HAL_RCCEx_PeriphCLKConfig+0x2c0>)
 800496a:	f8d2 108c 	ldr.w	r1, [r2, #140]	@ 0x8c
 800496e:	f021 7180 	bic.w	r1, r1, #16777216	@ 0x1000000
 8004972:	f8c2 108c 	str.w	r1, [r2, #140]	@ 0x8c
 8004976:	f8d2 108c 	ldr.w	r1, [r2, #140]	@ 0x8c
 800497a:	6b20      	ldr	r0, [r4, #48]	@ 0x30
 800497c:	4301      	orrs	r1, r0
 800497e:	f8c2 108c 	str.w	r1, [r2, #140]	@ 0x8c
 8004982:	045f      	lsls	r7, r3, #17
 8004984:	d508      	bpl.n	8004998 <HAL_RCCEx_PeriphCLKConfig+0x118>
 8004986:	496e      	ldr	r1, [pc, #440]	@ (8004b40 <HAL_RCCEx_PeriphCLKConfig+0x2c0>)
 8004988:	6de0      	ldr	r0, [r4, #92]	@ 0x5c
 800498a:	f8d1 2090 	ldr.w	r2, [r1, #144]	@ 0x90
 800498e:	f422 3240 	bic.w	r2, r2, #196608	@ 0x30000
 8004992:	4302      	orrs	r2, r0
 8004994:	f8c1 2090 	str.w	r2, [r1, #144]	@ 0x90
 8004998:	0418      	lsls	r0, r3, #16
 800499a:	d508      	bpl.n	80049ae <HAL_RCCEx_PeriphCLKConfig+0x12e>
 800499c:	4968      	ldr	r1, [pc, #416]	@ (8004b40 <HAL_RCCEx_PeriphCLKConfig+0x2c0>)
 800499e:	6e20      	ldr	r0, [r4, #96]	@ 0x60
 80049a0:	f8d1 2090 	ldr.w	r2, [r1, #144]	@ 0x90
 80049a4:	f422 2240 	bic.w	r2, r2, #786432	@ 0xc0000
 80049a8:	4302      	orrs	r2, r0
 80049aa:	f8c1 2090 	str.w	r2, [r1, #144]	@ 0x90
 80049ae:	03d9      	lsls	r1, r3, #15
 80049b0:	d508      	bpl.n	80049c4 <HAL_RCCEx_PeriphCLKConfig+0x144>
 80049b2:	4963      	ldr	r1, [pc, #396]	@ (8004b40 <HAL_RCCEx_PeriphCLKConfig+0x2c0>)
 80049b4:	6e60      	ldr	r0, [r4, #100]	@ 0x64
 80049b6:	f8d1 2090 	ldr.w	r2, [r1, #144]	@ 0x90
 80049ba:	f422 1240 	bic.w	r2, r2, #3145728	@ 0x300000
 80049be:	4302      	orrs	r2, r0
 80049c0:	f8c1 2090 	str.w	r2, [r1, #144]	@ 0x90
 80049c4:	065a      	lsls	r2, r3, #25
 80049c6:	d508      	bpl.n	80049da <HAL_RCCEx_PeriphCLKConfig+0x15a>
 80049c8:	495d      	ldr	r1, [pc, #372]	@ (8004b40 <HAL_RCCEx_PeriphCLKConfig+0x2c0>)
 80049ca:	6be0      	ldr	r0, [r4, #60]	@ 0x3c
 80049cc:	f8d1 2090 	ldr.w	r2, [r1, #144]	@ 0x90
 80049d0:	f022 0203 	bic.w	r2, r2, #3
 80049d4:	4302      	orrs	r2, r0
 80049d6:	f8c1 2090 	str.w	r2, [r1, #144]	@ 0x90
 80049da:	061f      	lsls	r7, r3, #24
 80049dc:	d508      	bpl.n	80049f0 <HAL_RCCEx_PeriphCLKConfig+0x170>
 80049de:	4958      	ldr	r1, [pc, #352]	@ (8004b40 <HAL_RCCEx_PeriphCLKConfig+0x2c0>)
 80049e0:	6c20      	ldr	r0, [r4, #64]	@ 0x40
 80049e2:	f8d1 2090 	ldr.w	r2, [r1, #144]	@ 0x90
 80049e6:	f022 020c 	bic.w	r2, r2, #12
 80049ea:	4302      	orrs	r2, r0
 80049ec:	f8c1 2090 	str.w	r2, [r1, #144]	@ 0x90
 80049f0:	05d8      	lsls	r0, r3, #23
 80049f2:	d508      	bpl.n	8004a06 <HAL_RCCEx_PeriphCLKConfig+0x186>
 80049f4:	4952      	ldr	r1, [pc, #328]	@ (8004b40 <HAL_RCCEx_PeriphCLKConfig+0x2c0>)
 80049f6:	6c60      	ldr	r0, [r4, #68]	@ 0x44
 80049f8:	f8d1 2090 	ldr.w	r2, [r1, #144]	@ 0x90
 80049fc:	f022 0230 	bic.w	r2, r2, #48	@ 0x30
 8004a00:	4302      	orrs	r2, r0
 8004a02:	f8c1 2090 	str.w	r2, [r1, #144]	@ 0x90
 8004a06:	0599      	lsls	r1, r3, #22
 8004a08:	d508      	bpl.n	8004a1c <HAL_RCCEx_PeriphCLKConfig+0x19c>
 8004a0a:	494d      	ldr	r1, [pc, #308]	@ (8004b40 <HAL_RCCEx_PeriphCLKConfig+0x2c0>)
 8004a0c:	6ca0      	ldr	r0, [r4, #72]	@ 0x48
 8004a0e:	f8d1 2090 	ldr.w	r2, [r1, #144]	@ 0x90
 8004a12:	f022 02c0 	bic.w	r2, r2, #192	@ 0xc0
 8004a16:	4302      	orrs	r2, r0
 8004a18:	f8c1 2090 	str.w	r2, [r1, #144]	@ 0x90
 8004a1c:	055a      	lsls	r2, r3, #21
 8004a1e:	d508      	bpl.n	8004a32 <HAL_RCCEx_PeriphCLKConfig+0x1b2>
 8004a20:	4947      	ldr	r1, [pc, #284]	@ (8004b40 <HAL_RCCEx_PeriphCLKConfig+0x2c0>)
 8004a22:	6ce0      	ldr	r0, [r4, #76]	@ 0x4c
 8004a24:	f8d1 2090 	ldr.w	r2, [r1, #144]	@ 0x90
 8004a28:	f422 7240 	bic.w	r2, r2, #768	@ 0x300
 8004a2c:	4302      	orrs	r2, r0
 8004a2e:	f8c1 2090 	str.w	r2, [r1, #144]	@ 0x90
 8004a32:	051f      	lsls	r7, r3, #20
 8004a34:	d508      	bpl.n	8004a48 <HAL_RCCEx_PeriphCLKConfig+0x1c8>
 8004a36:	4942      	ldr	r1, [pc, #264]	@ (8004b40 <HAL_RCCEx_PeriphCLKConfig+0x2c0>)
 8004a38:	6d20      	ldr	r0, [r4, #80]	@ 0x50
 8004a3a:	f8d1 2090 	ldr.w	r2, [r1, #144]	@ 0x90
 8004a3e:	f422 6240 	bic.w	r2, r2, #3072	@ 0xc00
 8004a42:	4302      	orrs	r2, r0
 8004a44:	f8c1 2090 	str.w	r2, [r1, #144]	@ 0x90
 8004a48:	04d8      	lsls	r0, r3, #19
 8004a4a:	d508      	bpl.n	8004a5e <HAL_RCCEx_PeriphCLKConfig+0x1de>
 8004a4c:	493c      	ldr	r1, [pc, #240]	@ (8004b40 <HAL_RCCEx_PeriphCLKConfig+0x2c0>)
 8004a4e:	6d60      	ldr	r0, [r4, #84]	@ 0x54
 8004a50:	f8d1 2090 	ldr.w	r2, [r1, #144]	@ 0x90
 8004a54:	f422 5240 	bic.w	r2, r2, #12288	@ 0x3000
 8004a58:	4302      	orrs	r2, r0
 8004a5a:	f8c1 2090 	str.w	r2, [r1, #144]	@ 0x90
 8004a5e:	0499      	lsls	r1, r3, #18
 8004a60:	d508      	bpl.n	8004a74 <HAL_RCCEx_PeriphCLKConfig+0x1f4>
 8004a62:	4937      	ldr	r1, [pc, #220]	@ (8004b40 <HAL_RCCEx_PeriphCLKConfig+0x2c0>)
 8004a64:	6da0      	ldr	r0, [r4, #88]	@ 0x58
 8004a66:	f8d1 2090 	ldr.w	r2, [r1, #144]	@ 0x90
 8004a6a:	f422 4240 	bic.w	r2, r2, #49152	@ 0xc000
 8004a6e:	4302      	orrs	r2, r0
 8004a70:	f8c1 2090 	str.w	r2, [r1, #144]	@ 0x90
 8004a74:	029a      	lsls	r2, r3, #10
 8004a76:	d50c      	bpl.n	8004a92 <HAL_RCCEx_PeriphCLKConfig+0x212>
 8004a78:	4831      	ldr	r0, [pc, #196]	@ (8004b40 <HAL_RCCEx_PeriphCLKConfig+0x2c0>)
 8004a7a:	6f61      	ldr	r1, [r4, #116]	@ 0x74
 8004a7c:	f8d0 2090 	ldr.w	r2, [r0, #144]	@ 0x90
 8004a80:	f1b1 6f00 	cmp.w	r1, #134217728	@ 0x8000000
 8004a84:	f022 6200 	bic.w	r2, r2, #134217728	@ 0x8000000
 8004a88:	bf08      	it	eq
 8004a8a:	2501      	moveq	r5, #1
 8004a8c:	430a      	orrs	r2, r1
 8004a8e:	f8c0 2090 	str.w	r2, [r0, #144]	@ 0x90
 8004a92:	035f      	lsls	r7, r3, #13
 8004a94:	d508      	bpl.n	8004aa8 <HAL_RCCEx_PeriphCLKConfig+0x228>
 8004a96:	492a      	ldr	r1, [pc, #168]	@ (8004b40 <HAL_RCCEx_PeriphCLKConfig+0x2c0>)
 8004a98:	6ee0      	ldr	r0, [r4, #108]	@ 0x6c
 8004a9a:	f8d1 2090 	ldr.w	r2, [r1, #144]	@ 0x90
 8004a9e:	f022 7240 	bic.w	r2, r2, #50331648	@ 0x3000000
 8004aa2:	4302      	orrs	r2, r0
 8004aa4:	f8c1 2090 	str.w	r2, [r1, #144]	@ 0x90
 8004aa8:	0218      	lsls	r0, r3, #8
 8004aaa:	d508      	bpl.n	8004abe <HAL_RCCEx_PeriphCLKConfig+0x23e>
 8004aac:	4924      	ldr	r1, [pc, #144]	@ (8004b40 <HAL_RCCEx_PeriphCLKConfig+0x2c0>)
 8004aae:	6fa0      	ldr	r0, [r4, #120]	@ 0x78
 8004ab0:	f8d1 2090 	ldr.w	r2, [r1, #144]	@ 0x90
 8004ab4:	f022 5280 	bic.w	r2, r2, #268435456	@ 0x10000000
 8004ab8:	4302      	orrs	r2, r0
 8004aba:	f8c1 2090 	str.w	r2, [r1, #144]	@ 0x90
 8004abe:	0159      	lsls	r1, r3, #5
 8004ac0:	d508      	bpl.n	8004ad4 <HAL_RCCEx_PeriphCLKConfig+0x254>
 8004ac2:	491f      	ldr	r1, [pc, #124]	@ (8004b40 <HAL_RCCEx_PeriphCLKConfig+0x2c0>)
 8004ac4:	6fe0      	ldr	r0, [r4, #124]	@ 0x7c
 8004ac6:	f8d1 2090 	ldr.w	r2, [r1, #144]	@ 0x90
 8004aca:	f022 5200 	bic.w	r2, r2, #536870912	@ 0x20000000
 8004ace:	4302      	orrs	r2, r0
 8004ad0:	f8c1 2090 	str.w	r2, [r1, #144]	@ 0x90
 8004ad4:	2e00      	cmp	r6, #0
 8004ad6:	f040 808e 	bne.w	8004bf6 <HAL_RCCEx_PeriphCLKConfig+0x376>
 8004ada:	019a      	lsls	r2, r3, #6
 8004adc:	f100 808b 	bmi.w	8004bf6 <HAL_RCCEx_PeriphCLKConfig+0x376>
 8004ae0:	2d01      	cmp	r5, #1
 8004ae2:	d150      	bne.n	8004b86 <HAL_RCCEx_PeriphCLKConfig+0x306>
 8004ae4:	4d16      	ldr	r5, [pc, #88]	@ (8004b40 <HAL_RCCEx_PeriphCLKConfig+0x2c0>)
 8004ae6:	682b      	ldr	r3, [r5, #0]
 8004ae8:	f023 5380 	bic.w	r3, r3, #268435456	@ 0x10000000
 8004aec:	602b      	str	r3, [r5, #0]
 8004aee:	f7fd fc85 	bl	80023fc <HAL_GetTick>
 8004af2:	4606      	mov	r6, r0
 8004af4:	682b      	ldr	r3, [r5, #0]
 8004af6:	009f      	lsls	r7, r3, #2
 8004af8:	f100 80e0 	bmi.w	8004cbc <HAL_RCCEx_PeriphCLKConfig+0x43c>
 8004afc:	6821      	ldr	r1, [r4, #0]
 8004afe:	030d      	lsls	r5, r1, #12
 8004b00:	d501      	bpl.n	8004b06 <HAL_RCCEx_PeriphCLKConfig+0x286>
 8004b02:	6b63      	ldr	r3, [r4, #52]	@ 0x34
 8004b04:	b11b      	cbz	r3, 8004b0e <HAL_RCCEx_PeriphCLKConfig+0x28e>
 8004b06:	02c8      	lsls	r0, r1, #11
 8004b08:	d51e      	bpl.n	8004b48 <HAL_RCCEx_PeriphCLKConfig+0x2c8>
 8004b0a:	6ba3      	ldr	r3, [r4, #56]	@ 0x38
 8004b0c:	b9e3      	cbnz	r3, 8004b48 <HAL_RCCEx_PeriphCLKConfig+0x2c8>
 8004b0e:	4a0c      	ldr	r2, [pc, #48]	@ (8004b40 <HAL_RCCEx_PeriphCLKConfig+0x2c0>)
 8004b10:	e9d4 5304 	ldrd	r5, r3, [r4, #16]
 8004b14:	f8d2 0088 	ldr.w	r0, [r2, #136]	@ 0x88
 8004b18:	061b      	lsls	r3, r3, #24
 8004b1a:	f400 3040 	and.w	r0, r0, #196608	@ 0x30000
 8004b1e:	ea43 1385 	orr.w	r3, r3, r5, lsl #6
 8004b22:	4303      	orrs	r3, r0
 8004b24:	f8c2 3088 	str.w	r3, [r2, #136]	@ 0x88
 8004b28:	f8d2 308c 	ldr.w	r3, [r2, #140]	@ 0x8c
 8004b2c:	6a20      	ldr	r0, [r4, #32]
 8004b2e:	f423 53f8 	bic.w	r3, r3, #7936	@ 0x1f00
 8004b32:	3801      	subs	r0, #1
 8004b34:	ea43 2300 	orr.w	r3, r3, r0, lsl #8
 8004b38:	f8c2 308c 	str.w	r3, [r2, #140]	@ 0x8c
 8004b3c:	e004      	b.n	8004b48 <HAL_RCCEx_PeriphCLKConfig+0x2c8>
 8004b3e:	bf00      	nop
 8004b40:	40023800 	.word	0x40023800
 8004b44:	40007000 	.word	0x40007000
 8004b48:	028a      	lsls	r2, r1, #10
 8004b4a:	d510      	bpl.n	8004b6e <HAL_RCCEx_PeriphCLKConfig+0x2ee>
 8004b4c:	6f63      	ldr	r3, [r4, #116]	@ 0x74
 8004b4e:	f1b3 6f00 	cmp.w	r3, #134217728	@ 0x8000000
 8004b52:	d10c      	bne.n	8004b6e <HAL_RCCEx_PeriphCLKConfig+0x2ee>
 8004b54:	4960      	ldr	r1, [pc, #384]	@ (8004cd8 <HAL_RCCEx_PeriphCLKConfig+0x458>)
 8004b56:	69a3      	ldr	r3, [r4, #24]
 8004b58:	f8d1 2088 	ldr.w	r2, [r1, #136]	@ 0x88
 8004b5c:	6920      	ldr	r0, [r4, #16]
 8004b5e:	041b      	lsls	r3, r3, #16
 8004b60:	f002 6270 	and.w	r2, r2, #251658240	@ 0xf000000
 8004b64:	ea43 1380 	orr.w	r3, r3, r0, lsl #6
 8004b68:	4313      	orrs	r3, r2
 8004b6a:	f8c1 3088 	str.w	r3, [r1, #136]	@ 0x88
 8004b6e:	4c5a      	ldr	r4, [pc, #360]	@ (8004cd8 <HAL_RCCEx_PeriphCLKConfig+0x458>)
 8004b70:	6823      	ldr	r3, [r4, #0]
 8004b72:	f043 5380 	orr.w	r3, r3, #268435456	@ 0x10000000
 8004b76:	6023      	str	r3, [r4, #0]
 8004b78:	f7fd fc40 	bl	80023fc <HAL_GetTick>
 8004b7c:	4605      	mov	r5, r0
 8004b7e:	6823      	ldr	r3, [r4, #0]
 8004b80:	009b      	lsls	r3, r3, #2
 8004b82:	f140 80a2 	bpl.w	8004cca <HAL_RCCEx_PeriphCLKConfig+0x44a>
 8004b86:	2000      	movs	r0, #0
 8004b88:	e009      	b.n	8004b9e <HAL_RCCEx_PeriphCLKConfig+0x31e>
 8004b8a:	2601      	movs	r6, #1
 8004b8c:	e6b4      	b.n	80048f8 <HAL_RCCEx_PeriphCLKConfig+0x78>
 8004b8e:	f7fd fc35 	bl	80023fc <HAL_GetTick>
 8004b92:	eba0 0008 	sub.w	r0, r0, r8
 8004b96:	2864      	cmp	r0, #100	@ 0x64
 8004b98:	f67f aec2 	bls.w	8004920 <HAL_RCCEx_PeriphCLKConfig+0xa0>
 8004b9c:	2003      	movs	r0, #3
 8004b9e:	b003      	add	sp, #12
 8004ba0:	e8bd 83f0 	ldmia.w	sp!, {r4, r5, r6, r7, r8, r9, pc}
 8004ba4:	f402 7240 	and.w	r2, r2, #768	@ 0x300
 8004ba8:	4293      	cmp	r3, r2
 8004baa:	f43f aec4 	beq.w	8004936 <HAL_RCCEx_PeriphCLKConfig+0xb6>
 8004bae:	6f3b      	ldr	r3, [r7, #112]	@ 0x70
 8004bb0:	6f3a      	ldr	r2, [r7, #112]	@ 0x70
 8004bb2:	f423 7340 	bic.w	r3, r3, #768	@ 0x300
 8004bb6:	f442 3280 	orr.w	r2, r2, #65536	@ 0x10000
 8004bba:	673a      	str	r2, [r7, #112]	@ 0x70
 8004bbc:	6f3a      	ldr	r2, [r7, #112]	@ 0x70
 8004bbe:	f422 3280 	bic.w	r2, r2, #65536	@ 0x10000
 8004bc2:	673a      	str	r2, [r7, #112]	@ 0x70
 8004bc4:	673b      	str	r3, [r7, #112]	@ 0x70
 8004bc6:	6f3b      	ldr	r3, [r7, #112]	@ 0x70
 8004bc8:	07d8      	lsls	r0, r3, #31
 8004bca:	f57f aeb4 	bpl.w	8004936 <HAL_RCCEx_PeriphCLKConfig+0xb6>
 8004bce:	f7fd fc15 	bl	80023fc <HAL_GetTick>
 8004bd2:	f241 3988 	movw	r9, #5000	@ 0x1388
 8004bd6:	4680      	mov	r8, r0
 8004bd8:	6f3b      	ldr	r3, [r7, #112]	@ 0x70
 8004bda:	0799      	lsls	r1, r3, #30
 8004bdc:	f53f aeab 	bmi.w	8004936 <HAL_RCCEx_PeriphCLKConfig+0xb6>
 8004be0:	f7fd fc0c 	bl	80023fc <HAL_GetTick>
 8004be4:	eba0 0008 	sub.w	r0, r0, r8
 8004be8:	4548      	cmp	r0, r9
 8004bea:	d9f5      	bls.n	8004bd8 <HAL_RCCEx_PeriphCLKConfig+0x358>
 8004bec:	e7d6      	b.n	8004b9c <HAL_RCCEx_PeriphCLKConfig+0x31c>
 8004bee:	6891      	ldr	r1, [r2, #8]
 8004bf0:	f421 11f8 	bic.w	r1, r1, #2031616	@ 0x1f0000
 8004bf4:	e6af      	b.n	8004956 <HAL_RCCEx_PeriphCLKConfig+0xd6>
 8004bf6:	4e38      	ldr	r6, [pc, #224]	@ (8004cd8 <HAL_RCCEx_PeriphCLKConfig+0x458>)
 8004bf8:	6833      	ldr	r3, [r6, #0]
 8004bfa:	f023 6380 	bic.w	r3, r3, #67108864	@ 0x4000000
 8004bfe:	6033      	str	r3, [r6, #0]
 8004c00:	f7fd fbfc 	bl	80023fc <HAL_GetTick>
 8004c04:	4607      	mov	r7, r0
 8004c06:	6833      	ldr	r3, [r6, #0]
 8004c08:	011b      	lsls	r3, r3, #4
 8004c0a:	d451      	bmi.n	8004cb0 <HAL_RCCEx_PeriphCLKConfig+0x430>
 8004c0c:	6822      	ldr	r2, [r4, #0]
 8004c0e:	07d7      	lsls	r7, r2, #31
 8004c10:	d50d      	bpl.n	8004c2e <HAL_RCCEx_PeriphCLKConfig+0x3ae>
 8004c12:	6ae3      	ldr	r3, [r4, #44]	@ 0x2c
 8004c14:	b95b      	cbnz	r3, 8004c2e <HAL_RCCEx_PeriphCLKConfig+0x3ae>
 8004c16:	f8d6 1084 	ldr.w	r1, [r6, #132]	@ 0x84
 8004c1a:	e9d4 0301 	ldrd	r0, r3, [r4, #4]
 8004c1e:	f001 6170 	and.w	r1, r1, #251658240	@ 0xf000000
 8004c22:	071b      	lsls	r3, r3, #28
 8004c24:	ea43 1380 	orr.w	r3, r3, r0, lsl #6
 8004c28:	430b      	orrs	r3, r1
 8004c2a:	f8c6 3084 	str.w	r3, [r6, #132]	@ 0x84
 8004c2e:	0310      	lsls	r0, r2, #12
 8004c30:	d503      	bpl.n	8004c3a <HAL_RCCEx_PeriphCLKConfig+0x3ba>
 8004c32:	6b63      	ldr	r3, [r4, #52]	@ 0x34
 8004c34:	f5b3 1f80 	cmp.w	r3, #1048576	@ 0x100000
 8004c38:	d005      	beq.n	8004c46 <HAL_RCCEx_PeriphCLKConfig+0x3c6>
 8004c3a:	02d1      	lsls	r1, r2, #11
 8004c3c:	d519      	bpl.n	8004c72 <HAL_RCCEx_PeriphCLKConfig+0x3f2>
 8004c3e:	6ba3      	ldr	r3, [r4, #56]	@ 0x38
 8004c40:	f5b3 0f80 	cmp.w	r3, #4194304	@ 0x400000
 8004c44:	d115      	bne.n	8004c72 <HAL_RCCEx_PeriphCLKConfig+0x3f2>
 8004c46:	4924      	ldr	r1, [pc, #144]	@ (8004cd8 <HAL_RCCEx_PeriphCLKConfig+0x458>)
 8004c48:	68e3      	ldr	r3, [r4, #12]
 8004c4a:	f8d1 0084 	ldr.w	r0, [r1, #132]	@ 0x84
 8004c4e:	6866      	ldr	r6, [r4, #4]
 8004c50:	061b      	lsls	r3, r3, #24
 8004c52:	f000 40e0 	and.w	r0, r0, #1879048192	@ 0x70000000
 8004c56:	ea43 1386 	orr.w	r3, r3, r6, lsl #6
 8004c5a:	4303      	orrs	r3, r0
 8004c5c:	f8c1 3084 	str.w	r3, [r1, #132]	@ 0x84
 8004c60:	f8d1 008c 	ldr.w	r0, [r1, #140]	@ 0x8c
 8004c64:	69e3      	ldr	r3, [r4, #28]
 8004c66:	f020 001f 	bic.w	r0, r0, #31
 8004c6a:	3b01      	subs	r3, #1
 8004c6c:	4303      	orrs	r3, r0
 8004c6e:	f8c1 308c 	str.w	r3, [r1, #140]	@ 0x8c
 8004c72:	0192      	lsls	r2, r2, #6
 8004c74:	d50a      	bpl.n	8004c8c <HAL_RCCEx_PeriphCLKConfig+0x40c>
 8004c76:	68e3      	ldr	r3, [r4, #12]
 8004c78:	6862      	ldr	r2, [r4, #4]
 8004c7a:	061b      	lsls	r3, r3, #24
 8004c7c:	ea43 1382 	orr.w	r3, r3, r2, lsl #6
 8004c80:	68a2      	ldr	r2, [r4, #8]
 8004c82:	ea43 7302 	orr.w	r3, r3, r2, lsl #28
 8004c86:	4a14      	ldr	r2, [pc, #80]	@ (8004cd8 <HAL_RCCEx_PeriphCLKConfig+0x458>)
 8004c88:	f8c2 3084 	str.w	r3, [r2, #132]	@ 0x84
 8004c8c:	4e12      	ldr	r6, [pc, #72]	@ (8004cd8 <HAL_RCCEx_PeriphCLKConfig+0x458>)
 8004c8e:	6833      	ldr	r3, [r6, #0]
 8004c90:	f043 6380 	orr.w	r3, r3, #67108864	@ 0x4000000
 8004c94:	6033      	str	r3, [r6, #0]
 8004c96:	f7fd fbb1 	bl	80023fc <HAL_GetTick>
 8004c9a:	4607      	mov	r7, r0
 8004c9c:	6833      	ldr	r3, [r6, #0]
 8004c9e:	011b      	lsls	r3, r3, #4
 8004ca0:	f53f af1e 	bmi.w	8004ae0 <HAL_RCCEx_PeriphCLKConfig+0x260>
 8004ca4:	f7fd fbaa 	bl	80023fc <HAL_GetTick>
 8004ca8:	1bc0      	subs	r0, r0, r7
 8004caa:	2864      	cmp	r0, #100	@ 0x64
 8004cac:	d9f6      	bls.n	8004c9c <HAL_RCCEx_PeriphCLKConfig+0x41c>
 8004cae:	e775      	b.n	8004b9c <HAL_RCCEx_PeriphCLKConfig+0x31c>
 8004cb0:	f7fd fba4 	bl	80023fc <HAL_GetTick>
 8004cb4:	1bc0      	subs	r0, r0, r7
 8004cb6:	2864      	cmp	r0, #100	@ 0x64
 8004cb8:	d9a5      	bls.n	8004c06 <HAL_RCCEx_PeriphCLKConfig+0x386>
 8004cba:	e76f      	b.n	8004b9c <HAL_RCCEx_PeriphCLKConfig+0x31c>
 8004cbc:	f7fd fb9e 	bl	80023fc <HAL_GetTick>
 8004cc0:	1b80      	subs	r0, r0, r6
 8004cc2:	2864      	cmp	r0, #100	@ 0x64
 8004cc4:	f67f af16 	bls.w	8004af4 <HAL_RCCEx_PeriphCLKConfig+0x274>
 8004cc8:	e768      	b.n	8004b9c <HAL_RCCEx_PeriphCLKConfig+0x31c>
 8004cca:	f7fd fb97 	bl	80023fc <HAL_GetTick>
 8004cce:	1b40      	subs	r0, r0, r5
 8004cd0:	2864      	cmp	r0, #100	@ 0x64
 8004cd2:	f67f af54 	bls.w	8004b7e <HAL_RCCEx_PeriphCLKConfig+0x2fe>
 8004cd6:	e761      	b.n	8004b9c <HAL_RCCEx_PeriphCLKConfig+0x31c>
 8004cd8:	40023800 	.word	0x40023800

08004cdc <HAL_SDRAM_Init>:
 8004cdc:	b538      	push	{r3, r4, r5, lr}
 8004cde:	460d      	mov	r5, r1
 8004ce0:	4604      	mov	r4, r0
 8004ce2:	b1c8      	cbz	r0, 8004d18 <HAL_SDRAM_Init+0x3c>
 8004ce4:	f890 302c 	ldrb.w	r3, [r0, #44]	@ 0x2c
 8004ce8:	f003 02ff 	and.w	r2, r3, #255	@ 0xff
 8004cec:	b91b      	cbnz	r3, 8004cf6 <HAL_SDRAM_Init+0x1a>
 8004cee:	f880 202d 	strb.w	r2, [r0, #45]	@ 0x2d
 8004cf2:	f7fd f98b 	bl	800200c <HAL_SDRAM_MspInit>
 8004cf6:	2302      	movs	r3, #2
 8004cf8:	1d21      	adds	r1, r4, #4
 8004cfa:	6820      	ldr	r0, [r4, #0]
 8004cfc:	f884 302c 	strb.w	r3, [r4, #44]	@ 0x2c
 8004d00:	f000 ff26 	bl	8005b50 <FMC_SDRAM_Init>
 8004d04:	6862      	ldr	r2, [r4, #4]
 8004d06:	4629      	mov	r1, r5
 8004d08:	6820      	ldr	r0, [r4, #0]
 8004d0a:	f000 ff57 	bl	8005bbc <FMC_SDRAM_Timing_Init>
 8004d0e:	2301      	movs	r3, #1
 8004d10:	2000      	movs	r0, #0
 8004d12:	f884 302c 	strb.w	r3, [r4, #44]	@ 0x2c
 8004d16:	bd38      	pop	{r3, r4, r5, pc}
 8004d18:	2001      	movs	r0, #1
 8004d1a:	e7fc      	b.n	8004d16 <HAL_SDRAM_Init+0x3a>

08004d1c <HAL_SDRAM_SendCommand>:
 8004d1c:	b570      	push	{r4, r5, r6, lr}
 8004d1e:	f890 302c 	ldrb.w	r3, [r0, #44]	@ 0x2c
 8004d22:	4605      	mov	r5, r0
 8004d24:	460e      	mov	r6, r1
 8004d26:	2b02      	cmp	r3, #2
 8004d28:	b2d8      	uxtb	r0, r3
 8004d2a:	d010      	beq.n	8004d4e <HAL_SDRAM_SendCommand+0x32>
 8004d2c:	f000 04fb 	and.w	r4, r0, #251	@ 0xfb
 8004d30:	2c01      	cmp	r4, #1
 8004d32:	d110      	bne.n	8004d56 <HAL_SDRAM_SendCommand+0x3a>
 8004d34:	2302      	movs	r3, #2
 8004d36:	6828      	ldr	r0, [r5, #0]
 8004d38:	f885 302c 	strb.w	r3, [r5, #44]	@ 0x2c
 8004d3c:	f000 ff74 	bl	8005c28 <FMC_SDRAM_SendCommand>
 8004d40:	6833      	ldr	r3, [r6, #0]
 8004d42:	2b02      	cmp	r3, #2
 8004d44:	d104      	bne.n	8004d50 <HAL_SDRAM_SendCommand+0x34>
 8004d46:	2305      	movs	r3, #5
 8004d48:	f885 302c 	strb.w	r3, [r5, #44]	@ 0x2c
 8004d4c:	2000      	movs	r0, #0
 8004d4e:	bd70      	pop	{r4, r5, r6, pc}
 8004d50:	f885 402c 	strb.w	r4, [r5, #44]	@ 0x2c
 8004d54:	e7fa      	b.n	8004d4c <HAL_SDRAM_SendCommand+0x30>
 8004d56:	2001      	movs	r0, #1
 8004d58:	e7f9      	b.n	8004d4e <HAL_SDRAM_SendCommand+0x32>

08004d5a <HAL_SDRAM_ProgramRefreshRate>:
 8004d5a:	b538      	push	{r3, r4, r5, lr}
 8004d5c:	f890 302c 	ldrb.w	r3, [r0, #44]	@ 0x2c
 8004d60:	4604      	mov	r4, r0
 8004d62:	2b02      	cmp	r3, #2
 8004d64:	b2d8      	uxtb	r0, r3
 8004d66:	d00d      	beq.n	8004d84 <HAL_SDRAM_ProgramRefreshRate+0x2a>
 8004d68:	f894 302c 	ldrb.w	r3, [r4, #44]	@ 0x2c
 8004d6c:	2b01      	cmp	r3, #1
 8004d6e:	b2dd      	uxtb	r5, r3
 8004d70:	d109      	bne.n	8004d86 <HAL_SDRAM_ProgramRefreshRate+0x2c>
 8004d72:	2302      	movs	r3, #2
 8004d74:	6820      	ldr	r0, [r4, #0]
 8004d76:	f884 302c 	strb.w	r3, [r4, #44]	@ 0x2c
 8004d7a:	f000 ff67 	bl	8005c4c <FMC_SDRAM_ProgramRefreshRate>
 8004d7e:	2000      	movs	r0, #0
 8004d80:	f884 502c 	strb.w	r5, [r4, #44]	@ 0x2c
 8004d84:	bd38      	pop	{r3, r4, r5, pc}
 8004d86:	2001      	movs	r0, #1
 8004d88:	e7fc      	b.n	8004d84 <HAL_SDRAM_ProgramRefreshRate+0x2a>

08004d8a <HAL_SPI_Init>:
 8004d8a:	b570      	push	{r4, r5, r6, lr}
 8004d8c:	4604      	mov	r4, r0
 8004d8e:	2800      	cmp	r0, #0
 8004d90:	d067      	beq.n	8004e62 <HAL_SPI_Init+0xd8>
 8004d92:	6a43      	ldr	r3, [r0, #36]	@ 0x24
 8004d94:	2b00      	cmp	r3, #0
 8004d96:	d15d      	bne.n	8004e54 <HAL_SPI_Init+0xca>
 8004d98:	6842      	ldr	r2, [r0, #4]
 8004d9a:	f5b2 7f82 	cmp.w	r2, #260	@ 0x104
 8004d9e:	d000      	beq.n	8004da2 <HAL_SPI_Init+0x18>
 8004da0:	61c3      	str	r3, [r0, #28]
 8004da2:	2300      	movs	r3, #0
 8004da4:	62a3      	str	r3, [r4, #40]	@ 0x28
 8004da6:	f894 305d 	ldrb.w	r3, [r4, #93]	@ 0x5d
 8004daa:	f003 02ff 	and.w	r2, r3, #255	@ 0xff
 8004dae:	b923      	cbnz	r3, 8004dba <HAL_SPI_Init+0x30>
 8004db0:	4620      	mov	r0, r4
 8004db2:	f884 205c 	strb.w	r2, [r4, #92]	@ 0x5c
 8004db6:	f7fd f841 	bl	8001e3c <HAL_SPI_MspInit>
 8004dba:	2302      	movs	r3, #2
 8004dbc:	6822      	ldr	r2, [r4, #0]
 8004dbe:	68e0      	ldr	r0, [r4, #12]
 8004dc0:	f884 305d 	strb.w	r3, [r4, #93]	@ 0x5d
 8004dc4:	6813      	ldr	r3, [r2, #0]
 8004dc6:	f5b0 6fe0 	cmp.w	r0, #1792	@ 0x700
 8004dca:	f023 0340 	bic.w	r3, r3, #64	@ 0x40
 8004dce:	6013      	str	r3, [r2, #0]
 8004dd0:	f04f 0300 	mov.w	r3, #0
 8004dd4:	d942      	bls.n	8004e5c <HAL_SPI_Init+0xd2>
 8004dd6:	461d      	mov	r5, r3
 8004dd8:	f5b0 6f70 	cmp.w	r0, #3840	@ 0xf00
 8004ddc:	bf18      	it	ne
 8004dde:	62a3      	strne	r3, [r4, #40]	@ 0x28
 8004de0:	f400 6070 	and.w	r0, r0, #3840	@ 0xf00
 8004de4:	6863      	ldr	r3, [r4, #4]
 8004de6:	68a6      	ldr	r6, [r4, #8]
 8004de8:	f403 7382 	and.w	r3, r3, #260	@ 0x104
 8004dec:	69a1      	ldr	r1, [r4, #24]
 8004dee:	f406 4604 	and.w	r6, r6, #33792	@ 0x8400
 8004df2:	4333      	orrs	r3, r6
 8004df4:	6926      	ldr	r6, [r4, #16]
 8004df6:	f006 0602 	and.w	r6, r6, #2
 8004dfa:	4333      	orrs	r3, r6
 8004dfc:	6966      	ldr	r6, [r4, #20]
 8004dfe:	f006 0601 	and.w	r6, r6, #1
 8004e02:	4333      	orrs	r3, r6
 8004e04:	f401 7600 	and.w	r6, r1, #512	@ 0x200
 8004e08:	0c09      	lsrs	r1, r1, #16
 8004e0a:	4333      	orrs	r3, r6
 8004e0c:	69e6      	ldr	r6, [r4, #28]
 8004e0e:	f001 0104 	and.w	r1, r1, #4
 8004e12:	f006 0638 	and.w	r6, r6, #56	@ 0x38
 8004e16:	4333      	orrs	r3, r6
 8004e18:	6a26      	ldr	r6, [r4, #32]
 8004e1a:	f006 0680 	and.w	r6, r6, #128	@ 0x80
 8004e1e:	4333      	orrs	r3, r6
 8004e20:	6aa6      	ldr	r6, [r4, #40]	@ 0x28
 8004e22:	f406 5600 	and.w	r6, r6, #8192	@ 0x2000
 8004e26:	4333      	orrs	r3, r6
 8004e28:	6b66      	ldr	r6, [r4, #52]	@ 0x34
 8004e2a:	6013      	str	r3, [r2, #0]
 8004e2c:	f006 0608 	and.w	r6, r6, #8
 8004e30:	6a63      	ldr	r3, [r4, #36]	@ 0x24
 8004e32:	f003 0310 	and.w	r3, r3, #16
 8004e36:	4333      	orrs	r3, r6
 8004e38:	4303      	orrs	r3, r0
 8004e3a:	2000      	movs	r0, #0
 8004e3c:	430b      	orrs	r3, r1
 8004e3e:	432b      	orrs	r3, r5
 8004e40:	6053      	str	r3, [r2, #4]
 8004e42:	69d3      	ldr	r3, [r2, #28]
 8004e44:	f423 6300 	bic.w	r3, r3, #2048	@ 0x800
 8004e48:	61d3      	str	r3, [r2, #28]
 8004e4a:	2301      	movs	r3, #1
 8004e4c:	6620      	str	r0, [r4, #96]	@ 0x60
 8004e4e:	f884 305d 	strb.w	r3, [r4, #93]	@ 0x5d
 8004e52:	bd70      	pop	{r4, r5, r6, pc}
 8004e54:	2300      	movs	r3, #0
 8004e56:	e9c0 3304 	strd	r3, r3, [r0, #16]
 8004e5a:	e7a2      	b.n	8004da2 <HAL_SPI_Init+0x18>
 8004e5c:	f44f 5580 	mov.w	r5, #4096	@ 0x1000
 8004e60:	e7bc      	b.n	8004ddc <HAL_SPI_Init+0x52>
 8004e62:	2001      	movs	r0, #1
 8004e64:	e7f5      	b.n	8004e52 <HAL_SPI_Init+0xc8>

08004e66 <HAL_SPI_ErrorCallback>:
 8004e66:	4770      	bx	lr

08004e68 <HAL_SPI_IRQHandler>:
 8004e68:	6803      	ldr	r3, [r0, #0]
 8004e6a:	b5f0      	push	{r4, r5, r6, r7, lr}
 8004e6c:	685d      	ldr	r5, [r3, #4]
 8004e6e:	b085      	sub	sp, #20
 8004e70:	689a      	ldr	r2, [r3, #8]
 8004e72:	4604      	mov	r4, r0
 8004e74:	0656      	lsls	r6, r2, #25
 8004e76:	ea4f 1192 	mov.w	r1, r2, lsr #6
 8004e7a:	f3c2 1780 	ubfx	r7, r2, #6, #1
 8004e7e:	d408      	bmi.n	8004e92 <HAL_SPI_IRQHandler+0x2a>
 8004e80:	07d6      	lsls	r6, r2, #31
 8004e82:	d506      	bpl.n	8004e92 <HAL_SPI_IRQHandler+0x2a>
 8004e84:	066e      	lsls	r6, r5, #25
 8004e86:	d504      	bpl.n	8004e92 <HAL_SPI_IRQHandler+0x2a>
 8004e88:	6cc3      	ldr	r3, [r0, #76]	@ 0x4c
 8004e8a:	b005      	add	sp, #20
 8004e8c:	e8bd 40f0 	ldmia.w	sp!, {r4, r5, r6, r7, lr}
 8004e90:	4718      	bx	r3
 8004e92:	0796      	lsls	r6, r2, #30
 8004e94:	d504      	bpl.n	8004ea0 <HAL_SPI_IRQHandler+0x38>
 8004e96:	0628      	lsls	r0, r5, #24
 8004e98:	d502      	bpl.n	8004ea0 <HAL_SPI_IRQHandler+0x38>
 8004e9a:	6d23      	ldr	r3, [r4, #80]	@ 0x50
 8004e9c:	4620      	mov	r0, r4
 8004e9e:	e7f4      	b.n	8004e8a <HAL_SPI_IRQHandler+0x22>
 8004ea0:	ea41 1152 	orr.w	r1, r1, r2, lsr #5
 8004ea4:	f402 7080 	and.w	r0, r2, #256	@ 0x100
 8004ea8:	0956      	lsrs	r6, r2, #5
 8004eaa:	f001 0101 	and.w	r1, r1, #1
 8004eae:	4301      	orrs	r1, r0
 8004eb0:	d056      	beq.n	8004f60 <HAL_SPI_IRQHandler+0xf8>
 8004eb2:	06aa      	lsls	r2, r5, #26
 8004eb4:	d554      	bpl.n	8004f60 <HAL_SPI_IRQHandler+0xf8>
 8004eb6:	b177      	cbz	r7, 8004ed6 <HAL_SPI_IRQHandler+0x6e>
 8004eb8:	f894 205d 	ldrb.w	r2, [r4, #93]	@ 0x5d
 8004ebc:	2100      	movs	r1, #0
 8004ebe:	2a03      	cmp	r2, #3
 8004ec0:	d048      	beq.n	8004f54 <HAL_SPI_IRQHandler+0xec>
 8004ec2:	6e22      	ldr	r2, [r4, #96]	@ 0x60
 8004ec4:	f042 0204 	orr.w	r2, r2, #4
 8004ec8:	6622      	str	r2, [r4, #96]	@ 0x60
 8004eca:	9100      	str	r1, [sp, #0]
 8004ecc:	68da      	ldr	r2, [r3, #12]
 8004ece:	9200      	str	r2, [sp, #0]
 8004ed0:	689a      	ldr	r2, [r3, #8]
 8004ed2:	9200      	str	r2, [sp, #0]
 8004ed4:	9a00      	ldr	r2, [sp, #0]
 8004ed6:	07f1      	lsls	r1, r6, #31
 8004ed8:	d50c      	bpl.n	8004ef4 <HAL_SPI_IRQHandler+0x8c>
 8004eda:	6e22      	ldr	r2, [r4, #96]	@ 0x60
 8004edc:	f042 0201 	orr.w	r2, r2, #1
 8004ee0:	6622      	str	r2, [r4, #96]	@ 0x60
 8004ee2:	2200      	movs	r2, #0
 8004ee4:	9202      	str	r2, [sp, #8]
 8004ee6:	689a      	ldr	r2, [r3, #8]
 8004ee8:	9202      	str	r2, [sp, #8]
 8004eea:	681a      	ldr	r2, [r3, #0]
 8004eec:	f022 0240 	bic.w	r2, r2, #64	@ 0x40
 8004ef0:	601a      	str	r2, [r3, #0]
 8004ef2:	9a02      	ldr	r2, [sp, #8]
 8004ef4:	b140      	cbz	r0, 8004f08 <HAL_SPI_IRQHandler+0xa0>
 8004ef6:	6e22      	ldr	r2, [r4, #96]	@ 0x60
 8004ef8:	f042 0208 	orr.w	r2, r2, #8
 8004efc:	6622      	str	r2, [r4, #96]	@ 0x60
 8004efe:	2200      	movs	r2, #0
 8004f00:	9203      	str	r2, [sp, #12]
 8004f02:	689a      	ldr	r2, [r3, #8]
 8004f04:	9203      	str	r2, [sp, #12]
 8004f06:	9a03      	ldr	r2, [sp, #12]
 8004f08:	6e22      	ldr	r2, [r4, #96]	@ 0x60
 8004f0a:	b34a      	cbz	r2, 8004f60 <HAL_SPI_IRQHandler+0xf8>
 8004f0c:	685a      	ldr	r2, [r3, #4]
 8004f0e:	f022 02e0 	bic.w	r2, r2, #224	@ 0xe0
 8004f12:	605a      	str	r2, [r3, #4]
 8004f14:	2201      	movs	r2, #1
 8004f16:	f884 205d 	strb.w	r2, [r4, #93]	@ 0x5d
 8004f1a:	07aa      	lsls	r2, r5, #30
 8004f1c:	d022      	beq.n	8004f64 <HAL_SPI_IRQHandler+0xfc>
 8004f1e:	685a      	ldr	r2, [r3, #4]
 8004f20:	6da0      	ldr	r0, [r4, #88]	@ 0x58
 8004f22:	f022 0203 	bic.w	r2, r2, #3
 8004f26:	605a      	str	r2, [r3, #4]
 8004f28:	b140      	cbz	r0, 8004f3c <HAL_SPI_IRQHandler+0xd4>
 8004f2a:	4b10      	ldr	r3, [pc, #64]	@ (8004f6c <HAL_SPI_IRQHandler+0x104>)
 8004f2c:	6503      	str	r3, [r0, #80]	@ 0x50
 8004f2e:	f7fd fda5 	bl	8002a7c <HAL_DMA_Abort_IT>
 8004f32:	b118      	cbz	r0, 8004f3c <HAL_SPI_IRQHandler+0xd4>
 8004f34:	6e23      	ldr	r3, [r4, #96]	@ 0x60
 8004f36:	f043 0340 	orr.w	r3, r3, #64	@ 0x40
 8004f3a:	6623      	str	r3, [r4, #96]	@ 0x60
 8004f3c:	6d60      	ldr	r0, [r4, #84]	@ 0x54
 8004f3e:	b178      	cbz	r0, 8004f60 <HAL_SPI_IRQHandler+0xf8>
 8004f40:	4b0a      	ldr	r3, [pc, #40]	@ (8004f6c <HAL_SPI_IRQHandler+0x104>)
 8004f42:	6503      	str	r3, [r0, #80]	@ 0x50
 8004f44:	f7fd fd9a 	bl	8002a7c <HAL_DMA_Abort_IT>
 8004f48:	b150      	cbz	r0, 8004f60 <HAL_SPI_IRQHandler+0xf8>
 8004f4a:	6e23      	ldr	r3, [r4, #96]	@ 0x60
 8004f4c:	f043 0340 	orr.w	r3, r3, #64	@ 0x40
 8004f50:	6623      	str	r3, [r4, #96]	@ 0x60
 8004f52:	e005      	b.n	8004f60 <HAL_SPI_IRQHandler+0xf8>
 8004f54:	9101      	str	r1, [sp, #4]
 8004f56:	68da      	ldr	r2, [r3, #12]
 8004f58:	9201      	str	r2, [sp, #4]
 8004f5a:	689b      	ldr	r3, [r3, #8]
 8004f5c:	9301      	str	r3, [sp, #4]
 8004f5e:	9b01      	ldr	r3, [sp, #4]
 8004f60:	b005      	add	sp, #20
 8004f62:	bdf0      	pop	{r4, r5, r6, r7, pc}
 8004f64:	4620      	mov	r0, r4
 8004f66:	f7ff ff7e 	bl	8004e66 <HAL_SPI_ErrorCallback>
 8004f6a:	e7f9      	b.n	8004f60 <HAL_SPI_IRQHandler+0xf8>
 8004f6c:	08004f71 	.word	0x08004f71

08004f70 <SPI_DMAAbortOnError>:
 8004f70:	b508      	push	{r3, lr}
 8004f72:	6b80      	ldr	r0, [r0, #56]	@ 0x38
 8004f74:	2300      	movs	r3, #0
 8004f76:	f8a0 3046 	strh.w	r3, [r0, #70]	@ 0x46
 8004f7a:	87c3      	strh	r3, [r0, #62]	@ 0x3e
 8004f7c:	f7ff ff73 	bl	8004e66 <HAL_SPI_ErrorCallback>
 8004f80:	bd08      	pop	{r3, pc}
	...

08004f84 <TIM_OC1_SetConfig>:
 8004f84:	6a03      	ldr	r3, [r0, #32]
 8004f86:	6a02      	ldr	r2, [r0, #32]
 8004f88:	f023 0302 	bic.w	r3, r3, #2
 8004f8c:	f022 0201 	bic.w	r2, r2, #1
 8004f90:	b570      	push	{r4, r5, r6, lr}
 8004f92:	6202      	str	r2, [r0, #32]
 8004f94:	6842      	ldr	r2, [r0, #4]
 8004f96:	6984      	ldr	r4, [r0, #24]
 8004f98:	680d      	ldr	r5, [r1, #0]
 8004f9a:	f424 3480 	bic.w	r4, r4, #65536	@ 0x10000
 8004f9e:	f024 0473 	bic.w	r4, r4, #115	@ 0x73
 8004fa2:	432c      	orrs	r4, r5
 8004fa4:	688d      	ldr	r5, [r1, #8]
 8004fa6:	432b      	orrs	r3, r5
 8004fa8:	4d0c      	ldr	r5, [pc, #48]	@ (8004fdc <TIM_OC1_SetConfig+0x58>)
 8004faa:	42a8      	cmp	r0, r5
 8004fac:	d003      	beq.n	8004fb6 <TIM_OC1_SetConfig+0x32>
 8004fae:	f505 6580 	add.w	r5, r5, #1024	@ 0x400
 8004fb2:	42a8      	cmp	r0, r5
 8004fb4:	d10b      	bne.n	8004fce <TIM_OC1_SetConfig+0x4a>
 8004fb6:	68cd      	ldr	r5, [r1, #12]
 8004fb8:	f023 0308 	bic.w	r3, r3, #8
 8004fbc:	f422 7240 	bic.w	r2, r2, #768	@ 0x300
 8004fc0:	432b      	orrs	r3, r5
 8004fc2:	e9d1 5605 	ldrd	r5, r6, [r1, #20]
 8004fc6:	f023 0304 	bic.w	r3, r3, #4
 8004fca:	4335      	orrs	r5, r6
 8004fcc:	432a      	orrs	r2, r5
 8004fce:	6042      	str	r2, [r0, #4]
 8004fd0:	684a      	ldr	r2, [r1, #4]
 8004fd2:	6184      	str	r4, [r0, #24]
 8004fd4:	6342      	str	r2, [r0, #52]	@ 0x34
 8004fd6:	6203      	str	r3, [r0, #32]
 8004fd8:	bd70      	pop	{r4, r5, r6, pc}
 8004fda:	bf00      	nop
 8004fdc:	40010000 	.word	0x40010000

08004fe0 <TIM_OC3_SetConfig>:
 8004fe0:	6a03      	ldr	r3, [r0, #32]
 8004fe2:	6a02      	ldr	r2, [r0, #32]
 8004fe4:	f423 7300 	bic.w	r3, r3, #512	@ 0x200
 8004fe8:	f422 7280 	bic.w	r2, r2, #256	@ 0x100
 8004fec:	b570      	push	{r4, r5, r6, lr}
 8004fee:	6202      	str	r2, [r0, #32]
 8004ff0:	6842      	ldr	r2, [r0, #4]
 8004ff2:	69c4      	ldr	r4, [r0, #28]
 8004ff4:	680d      	ldr	r5, [r1, #0]
 8004ff6:	f424 3480 	bic.w	r4, r4, #65536	@ 0x10000
 8004ffa:	f024 0473 	bic.w	r4, r4, #115	@ 0x73
 8004ffe:	432c      	orrs	r4, r5
 8005000:	688d      	ldr	r5, [r1, #8]
 8005002:	ea43 2305 	orr.w	r3, r3, r5, lsl #8
 8005006:	4d0d      	ldr	r5, [pc, #52]	@ (800503c <TIM_OC3_SetConfig+0x5c>)
 8005008:	42a8      	cmp	r0, r5
 800500a:	d003      	beq.n	8005014 <TIM_OC3_SetConfig+0x34>
 800500c:	f505 6580 	add.w	r5, r5, #1024	@ 0x400
 8005010:	42a8      	cmp	r0, r5
 8005012:	d10d      	bne.n	8005030 <TIM_OC3_SetConfig+0x50>
 8005014:	68cd      	ldr	r5, [r1, #12]
 8005016:	f423 6300 	bic.w	r3, r3, #2048	@ 0x800
 800501a:	f422 5240 	bic.w	r2, r2, #12288	@ 0x3000
 800501e:	ea43 2305 	orr.w	r3, r3, r5, lsl #8
 8005022:	e9d1 5605 	ldrd	r5, r6, [r1, #20]
 8005026:	f423 6380 	bic.w	r3, r3, #1024	@ 0x400
 800502a:	4335      	orrs	r5, r6
 800502c:	ea42 1205 	orr.w	r2, r2, r5, lsl #4
 8005030:	6042      	str	r2, [r0, #4]
 8005032:	684a      	ldr	r2, [r1, #4]
 8005034:	61c4      	str	r4, [r0, #28]
 8005036:	63c2      	str	r2, [r0, #60]	@ 0x3c
 8005038:	6203      	str	r3, [r0, #32]
 800503a:	bd70      	pop	{r4, r5, r6, pc}
 800503c:	40010000 	.word	0x40010000

08005040 <TIM_OC4_SetConfig>:
 8005040:	6a02      	ldr	r2, [r0, #32]
 8005042:	6a03      	ldr	r3, [r0, #32]
 8005044:	f422 5200 	bic.w	r2, r2, #8192	@ 0x2000
 8005048:	f423 5380 	bic.w	r3, r3, #4096	@ 0x1000
 800504c:	b530      	push	{r4, r5, lr}
 800504e:	6203      	str	r3, [r0, #32]
 8005050:	6844      	ldr	r4, [r0, #4]
 8005052:	69c3      	ldr	r3, [r0, #28]
 8005054:	680d      	ldr	r5, [r1, #0]
 8005056:	f023 7380 	bic.w	r3, r3, #16777216	@ 0x1000000
 800505a:	f423 43e6 	bic.w	r3, r3, #29440	@ 0x7300
 800505e:	ea43 2305 	orr.w	r3, r3, r5, lsl #8
 8005062:	688d      	ldr	r5, [r1, #8]
 8005064:	ea42 3205 	orr.w	r2, r2, r5, lsl #12
 8005068:	4d08      	ldr	r5, [pc, #32]	@ (800508c <TIM_OC4_SetConfig+0x4c>)
 800506a:	42a8      	cmp	r0, r5
 800506c:	d003      	beq.n	8005076 <TIM_OC4_SetConfig+0x36>
 800506e:	f505 6580 	add.w	r5, r5, #1024	@ 0x400
 8005072:	42a8      	cmp	r0, r5
 8005074:	d104      	bne.n	8005080 <TIM_OC4_SetConfig+0x40>
 8005076:	f424 4480 	bic.w	r4, r4, #16384	@ 0x4000
 800507a:	694d      	ldr	r5, [r1, #20]
 800507c:	ea44 1485 	orr.w	r4, r4, r5, lsl #6
 8005080:	6044      	str	r4, [r0, #4]
 8005082:	61c3      	str	r3, [r0, #28]
 8005084:	684b      	ldr	r3, [r1, #4]
 8005086:	6403      	str	r3, [r0, #64]	@ 0x40
 8005088:	6202      	str	r2, [r0, #32]
 800508a:	bd30      	pop	{r4, r5, pc}
 800508c:	40010000 	.word	0x40010000

08005090 <TIM_OC5_SetConfig>:
 8005090:	6a02      	ldr	r2, [r0, #32]
 8005092:	6a03      	ldr	r3, [r0, #32]
 8005094:	f422 3200 	bic.w	r2, r2, #131072	@ 0x20000
 8005098:	f423 3380 	bic.w	r3, r3, #65536	@ 0x10000
 800509c:	b530      	push	{r4, r5, lr}
 800509e:	6203      	str	r3, [r0, #32]
 80050a0:	6844      	ldr	r4, [r0, #4]
 80050a2:	6d43      	ldr	r3, [r0, #84]	@ 0x54
 80050a4:	680d      	ldr	r5, [r1, #0]
 80050a6:	f423 3380 	bic.w	r3, r3, #65536	@ 0x10000
 80050aa:	f023 0370 	bic.w	r3, r3, #112	@ 0x70
 80050ae:	432b      	orrs	r3, r5
 80050b0:	688d      	ldr	r5, [r1, #8]
 80050b2:	ea42 4205 	orr.w	r2, r2, r5, lsl #16
 80050b6:	4d09      	ldr	r5, [pc, #36]	@ (80050dc <TIM_OC5_SetConfig+0x4c>)
 80050b8:	42a8      	cmp	r0, r5
 80050ba:	d003      	beq.n	80050c4 <TIM_OC5_SetConfig+0x34>
 80050bc:	f505 6580 	add.w	r5, r5, #1024	@ 0x400
 80050c0:	42a8      	cmp	r0, r5
 80050c2:	d104      	bne.n	80050ce <TIM_OC5_SetConfig+0x3e>
 80050c4:	f424 3480 	bic.w	r4, r4, #65536	@ 0x10000
 80050c8:	694d      	ldr	r5, [r1, #20]
 80050ca:	ea44 2405 	orr.w	r4, r4, r5, lsl #8
 80050ce:	6044      	str	r4, [r0, #4]
 80050d0:	6543      	str	r3, [r0, #84]	@ 0x54
 80050d2:	684b      	ldr	r3, [r1, #4]
 80050d4:	6583      	str	r3, [r0, #88]	@ 0x58
 80050d6:	6202      	str	r2, [r0, #32]
 80050d8:	bd30      	pop	{r4, r5, pc}
 80050da:	bf00      	nop
 80050dc:	40010000 	.word	0x40010000

080050e0 <TIM_OC6_SetConfig>:
 80050e0:	6a02      	ldr	r2, [r0, #32]
 80050e2:	6a03      	ldr	r3, [r0, #32]
 80050e4:	f422 1200 	bic.w	r2, r2, #2097152	@ 0x200000
 80050e8:	f423 1380 	bic.w	r3, r3, #1048576	@ 0x100000
 80050ec:	b530      	push	{r4, r5, lr}
 80050ee:	6203      	str	r3, [r0, #32]
 80050f0:	6844      	ldr	r4, [r0, #4]
 80050f2:	6d43      	ldr	r3, [r0, #84]	@ 0x54
 80050f4:	680d      	ldr	r5, [r1, #0]
 80050f6:	f023 7380 	bic.w	r3, r3, #16777216	@ 0x1000000
 80050fa:	f423 43e0 	bic.w	r3, r3, #28672	@ 0x7000
 80050fe:	ea43 2305 	orr.w	r3, r3, r5, lsl #8
 8005102:	688d      	ldr	r5, [r1, #8]
 8005104:	ea42 5205 	orr.w	r2, r2, r5, lsl #20
 8005108:	4d08      	ldr	r5, [pc, #32]	@ (800512c <TIM_OC6_SetConfig+0x4c>)
 800510a:	42a8      	cmp	r0, r5
 800510c:	d003      	beq.n	8005116 <TIM_OC6_SetConfig+0x36>
 800510e:	f505 6580 	add.w	r5, r5, #1024	@ 0x400
 8005112:	42a8      	cmp	r0, r5
 8005114:	d104      	bne.n	8005120 <TIM_OC6_SetConfig+0x40>
 8005116:	f424 2480 	bic.w	r4, r4, #262144	@ 0x40000
 800511a:	694d      	ldr	r5, [r1, #20]
 800511c:	ea44 2485 	orr.w	r4, r4, r5, lsl #10
 8005120:	6044      	str	r4, [r0, #4]
 8005122:	6543      	str	r3, [r0, #84]	@ 0x54
 8005124:	684b      	ldr	r3, [r1, #4]
 8005126:	65c3      	str	r3, [r0, #92]	@ 0x5c
 8005128:	6202      	str	r2, [r0, #32]
 800512a:	bd30      	pop	{r4, r5, pc}
 800512c:	40010000 	.word	0x40010000

08005130 <HAL_TIM_PWM_MspInit>:
 8005130:	4770      	bx	lr

08005132 <HAL_TIM_IC_MspInit>:
 8005132:	4770      	bx	lr

08005134 <TIM_Base_SetConfig>:
 8005134:	4a27      	ldr	r2, [pc, #156]	@ (80051d4 <TIM_Base_SetConfig+0xa0>)
 8005136:	6803      	ldr	r3, [r0, #0]
 8005138:	4290      	cmp	r0, r2
 800513a:	d012      	beq.n	8005162 <TIM_Base_SetConfig+0x2e>
 800513c:	f1b0 4f80 	cmp.w	r0, #1073741824	@ 0x40000000
 8005140:	d00f      	beq.n	8005162 <TIM_Base_SetConfig+0x2e>
 8005142:	f5a2 427c 	sub.w	r2, r2, #64512	@ 0xfc00
 8005146:	4290      	cmp	r0, r2
 8005148:	d00b      	beq.n	8005162 <TIM_Base_SetConfig+0x2e>
 800514a:	f502 6280 	add.w	r2, r2, #1024	@ 0x400
 800514e:	4290      	cmp	r0, r2
 8005150:	d007      	beq.n	8005162 <TIM_Base_SetConfig+0x2e>
 8005152:	f502 6280 	add.w	r2, r2, #1024	@ 0x400
 8005156:	4290      	cmp	r0, r2
 8005158:	d003      	beq.n	8005162 <TIM_Base_SetConfig+0x2e>
 800515a:	f502 4278 	add.w	r2, r2, #63488	@ 0xf800
 800515e:	4290      	cmp	r0, r2
 8005160:	d108      	bne.n	8005174 <TIM_Base_SetConfig+0x40>
 8005162:	f023 0370 	bic.w	r3, r3, #112	@ 0x70
 8005166:	684a      	ldr	r2, [r1, #4]
 8005168:	4313      	orrs	r3, r2
 800516a:	f423 7340 	bic.w	r3, r3, #768	@ 0x300
 800516e:	68ca      	ldr	r2, [r1, #12]
 8005170:	4313      	orrs	r3, r2
 8005172:	e016      	b.n	80051a2 <TIM_Base_SetConfig+0x6e>
 8005174:	4a18      	ldr	r2, [pc, #96]	@ (80051d8 <TIM_Base_SetConfig+0xa4>)
 8005176:	4290      	cmp	r0, r2
 8005178:	d0f7      	beq.n	800516a <TIM_Base_SetConfig+0x36>
 800517a:	f502 6280 	add.w	r2, r2, #1024	@ 0x400
 800517e:	4290      	cmp	r0, r2
 8005180:	d0f3      	beq.n	800516a <TIM_Base_SetConfig+0x36>
 8005182:	f502 6280 	add.w	r2, r2, #1024	@ 0x400
 8005186:	4290      	cmp	r0, r2
 8005188:	d0ef      	beq.n	800516a <TIM_Base_SetConfig+0x36>
 800518a:	f5a2 3298 	sub.w	r2, r2, #77824	@ 0x13000
 800518e:	4290      	cmp	r0, r2
 8005190:	d0eb      	beq.n	800516a <TIM_Base_SetConfig+0x36>
 8005192:	f502 6280 	add.w	r2, r2, #1024	@ 0x400
 8005196:	4290      	cmp	r0, r2
 8005198:	d0e7      	beq.n	800516a <TIM_Base_SetConfig+0x36>
 800519a:	f502 6280 	add.w	r2, r2, #1024	@ 0x400
 800519e:	4290      	cmp	r0, r2
 80051a0:	d0e3      	beq.n	800516a <TIM_Base_SetConfig+0x36>
 80051a2:	694a      	ldr	r2, [r1, #20]
 80051a4:	f023 0380 	bic.w	r3, r3, #128	@ 0x80
 80051a8:	4313      	orrs	r3, r2
 80051aa:	688a      	ldr	r2, [r1, #8]
 80051ac:	62c2      	str	r2, [r0, #44]	@ 0x2c
 80051ae:	680a      	ldr	r2, [r1, #0]
 80051b0:	6282      	str	r2, [r0, #40]	@ 0x28
 80051b2:	4a08      	ldr	r2, [pc, #32]	@ (80051d4 <TIM_Base_SetConfig+0xa0>)
 80051b4:	4290      	cmp	r0, r2
 80051b6:	d003      	beq.n	80051c0 <TIM_Base_SetConfig+0x8c>
 80051b8:	f502 6280 	add.w	r2, r2, #1024	@ 0x400
 80051bc:	4290      	cmp	r0, r2
 80051be:	d101      	bne.n	80051c4 <TIM_Base_SetConfig+0x90>
 80051c0:	690a      	ldr	r2, [r1, #16]
 80051c2:	6302      	str	r2, [r0, #48]	@ 0x30
 80051c4:	6802      	ldr	r2, [r0, #0]
 80051c6:	f042 0204 	orr.w	r2, r2, #4
 80051ca:	6002      	str	r2, [r0, #0]
 80051cc:	2201      	movs	r2, #1
 80051ce:	6142      	str	r2, [r0, #20]
 80051d0:	6003      	str	r3, [r0, #0]
 80051d2:	4770      	bx	lr
 80051d4:	40010000 	.word	0x40010000
 80051d8:	40014000 	.word	0x40014000

080051dc <HAL_TIM_Base_Init>:
 80051dc:	b510      	push	{r4, lr}
 80051de:	4604      	mov	r4, r0
 80051e0:	b350      	cbz	r0, 8005238 <HAL_TIM_Base_Init+0x5c>
 80051e2:	f890 303d 	ldrb.w	r3, [r0, #61]	@ 0x3d
 80051e6:	f003 02ff 	and.w	r2, r3, #255	@ 0xff
 80051ea:	b91b      	cbnz	r3, 80051f4 <HAL_TIM_Base_Init+0x18>
 80051ec:	f880 203c 	strb.w	r2, [r0, #60]	@ 0x3c
 80051f0:	f7fc fe60 	bl	8001eb4 <HAL_TIM_Base_MspInit>
 80051f4:	2302      	movs	r3, #2
 80051f6:	6820      	ldr	r0, [r4, #0]
 80051f8:	1d21      	adds	r1, r4, #4
 80051fa:	f884 303d 	strb.w	r3, [r4, #61]	@ 0x3d
 80051fe:	f7ff ff99 	bl	8005134 <TIM_Base_SetConfig>
 8005202:	2301      	movs	r3, #1
 8005204:	2000      	movs	r0, #0
 8005206:	f884 3048 	strb.w	r3, [r4, #72]	@ 0x48
 800520a:	f884 303e 	strb.w	r3, [r4, #62]	@ 0x3e
 800520e:	f884 303f 	strb.w	r3, [r4, #63]	@ 0x3f
 8005212:	f884 3040 	strb.w	r3, [r4, #64]	@ 0x40
 8005216:	f884 3041 	strb.w	r3, [r4, #65]	@ 0x41
 800521a:	f884 3042 	strb.w	r3, [r4, #66]	@ 0x42
 800521e:	f884 3043 	strb.w	r3, [r4, #67]	@ 0x43
 8005222:	f884 3044 	strb.w	r3, [r4, #68]	@ 0x44
 8005226:	f884 3045 	strb.w	r3, [r4, #69]	@ 0x45
 800522a:	f884 3046 	strb.w	r3, [r4, #70]	@ 0x46
 800522e:	f884 3047 	strb.w	r3, [r4, #71]	@ 0x47
 8005232:	f884 303d 	strb.w	r3, [r4, #61]	@ 0x3d
 8005236:	bd10      	pop	{r4, pc}
 8005238:	2001      	movs	r0, #1
 800523a:	e7fc      	b.n	8005236 <HAL_TIM_Base_Init+0x5a>

0800523c <HAL_TIM_PWM_Init>:
 800523c:	b510      	push	{r4, lr}
 800523e:	4604      	mov	r4, r0
 8005240:	b350      	cbz	r0, 8005298 <HAL_TIM_PWM_Init+0x5c>
 8005242:	f890 303d 	ldrb.w	r3, [r0, #61]	@ 0x3d
 8005246:	f003 02ff 	and.w	r2, r3, #255	@ 0xff
 800524a:	b91b      	cbnz	r3, 8005254 <HAL_TIM_PWM_Init+0x18>
 800524c:	f880 203c 	strb.w	r2, [r0, #60]	@ 0x3c
 8005250:	f7ff ff6e 	bl	8005130 <HAL_TIM_PWM_MspInit>
 8005254:	2302      	movs	r3, #2
 8005256:	6820      	ldr	r0, [r4, #0]
 8005258:	1d21      	adds	r1, r4, #4
 800525a:	f884 303d 	strb.w	r3, [r4, #61]	@ 0x3d
 800525e:	f7ff ff69 	bl	8005134 <TIM_Base_SetConfig>
 8005262:	2301      	movs	r3, #1
 8005264:	2000      	movs	r0, #0
 8005266:	f884 3048 	strb.w	r3, [r4, #72]	@ 0x48
 800526a:	f884 303e 	strb.w	r3, [r4, #62]	@ 0x3e
 800526e:	f884 303f 	strb.w	r3, [r4, #63]	@ 0x3f
 8005272:	f884 3040 	strb.w	r3, [r4, #64]	@ 0x40
 8005276:	f884 3041 	strb.w	r3, [r4, #65]	@ 0x41
 800527a:	f884 3042 	strb.w	r3, [r4, #66]	@ 0x42
 800527e:	f884 3043 	strb.w	r3, [r4, #67]	@ 0x43
 8005282:	f884 3044 	strb.w	r3, [r4, #68]	@ 0x44
 8005286:	f884 3045 	strb.w	r3, [r4, #69]	@ 0x45
 800528a:	f884 3046 	strb.w	r3, [r4, #70]	@ 0x46
 800528e:	f884 3047 	strb.w	r3, [r4, #71]	@ 0x47
 8005292:	f884 303d 	strb.w	r3, [r4, #61]	@ 0x3d
 8005296:	bd10      	pop	{r4, pc}
 8005298:	2001      	movs	r0, #1
 800529a:	e7fc      	b.n	8005296 <HAL_TIM_PWM_Init+0x5a>

0800529c <HAL_TIM_IC_Init>:
 800529c:	b510      	push	{r4, lr}
 800529e:	4604      	mov	r4, r0
 80052a0:	b350      	cbz	r0, 80052f8 <HAL_TIM_IC_Init+0x5c>
 80052a2:	f890 303d 	ldrb.w	r3, [r0, #61]	@ 0x3d
 80052a6:	f003 02ff 	and.w	r2, r3, #255	@ 0xff
 80052aa:	b91b      	cbnz	r3, 80052b4 <HAL_TIM_IC_Init+0x18>
 80052ac:	f880 203c 	strb.w	r2, [r0, #60]	@ 0x3c
 80052b0:	f7ff ff3f 	bl	8005132 <HAL_TIM_IC_MspInit>
 80052b4:	2302      	movs	r3, #2
 80052b6:	6820      	ldr	r0, [r4, #0]
 80052b8:	1d21      	adds	r1, r4, #4
 80052ba:	f884 303d 	strb.w	r3, [r4, #61]	@ 0x3d
 80052be:	f7ff ff39 	bl	8005134 <TIM_Base_SetConfig>
 80052c2:	2301      	movs	r3, #1
 80052c4:	2000      	movs	r0, #0
 80052c6:	f884 3048 	strb.w	r3, [r4, #72]	@ 0x48
 80052ca:	f884 303e 	strb.w	r3, [r4, #62]	@ 0x3e
 80052ce:	f884 303f 	strb.w	r3, [r4, #63]	@ 0x3f
 80052d2:	f884 3040 	strb.w	r3, [r4, #64]	@ 0x40
 80052d6:	f884 3041 	strb.w	r3, [r4, #65]	@ 0x41
 80052da:	f884 3042 	strb.w	r3, [r4, #66]	@ 0x42
 80052de:	f884 3043 	strb.w	r3, [r4, #67]	@ 0x43
 80052e2:	f884 3044 	strb.w	r3, [r4, #68]	@ 0x44
 80052e6:	f884 3045 	strb.w	r3, [r4, #69]	@ 0x45
 80052ea:	f884 3046 	strb.w	r3, [r4, #70]	@ 0x46
 80052ee:	f884 3047 	strb.w	r3, [r4, #71]	@ 0x47
 80052f2:	f884 303d 	strb.w	r3, [r4, #61]	@ 0x3d
 80052f6:	bd10      	pop	{r4, pc}
 80052f8:	2001      	movs	r0, #1
 80052fa:	e7fc      	b.n	80052f6 <HAL_TIM_IC_Init+0x5a>

080052fc <TIM_OC2_SetConfig>:
 80052fc:	6a03      	ldr	r3, [r0, #32]
 80052fe:	6a02      	ldr	r2, [r0, #32]
 8005300:	f023 0320 	bic.w	r3, r3, #32
 8005304:	f022 0210 	bic.w	r2, r2, #16
 8005308:	b570      	push	{r4, r5, r6, lr}
 800530a:	6202      	str	r2, [r0, #32]
 800530c:	6842      	ldr	r2, [r0, #4]
 800530e:	6984      	ldr	r4, [r0, #24]
 8005310:	680d      	ldr	r5, [r1, #0]
 8005312:	f024 7480 	bic.w	r4, r4, #16777216	@ 0x1000000
 8005316:	f424 44e6 	bic.w	r4, r4, #29440	@ 0x7300
 800531a:	ea44 2405 	orr.w	r4, r4, r5, lsl #8
 800531e:	688d      	ldr	r5, [r1, #8]
 8005320:	ea43 1305 	orr.w	r3, r3, r5, lsl #4
 8005324:	4d0d      	ldr	r5, [pc, #52]	@ (800535c <TIM_OC2_SetConfig+0x60>)
 8005326:	42a8      	cmp	r0, r5
 8005328:	d003      	beq.n	8005332 <TIM_OC2_SetConfig+0x36>
 800532a:	f505 6580 	add.w	r5, r5, #1024	@ 0x400
 800532e:	42a8      	cmp	r0, r5
 8005330:	d10d      	bne.n	800534e <TIM_OC2_SetConfig+0x52>
 8005332:	68cd      	ldr	r5, [r1, #12]
 8005334:	f023 0380 	bic.w	r3, r3, #128	@ 0x80
 8005338:	f422 6240 	bic.w	r2, r2, #3072	@ 0xc00
 800533c:	ea43 1305 	orr.w	r3, r3, r5, lsl #4
 8005340:	e9d1 5605 	ldrd	r5, r6, [r1, #20]
 8005344:	f023 0340 	bic.w	r3, r3, #64	@ 0x40
 8005348:	4335      	orrs	r5, r6
 800534a:	ea42 0285 	orr.w	r2, r2, r5, lsl #2
 800534e:	6042      	str	r2, [r0, #4]
 8005350:	684a      	ldr	r2, [r1, #4]
 8005352:	6184      	str	r4, [r0, #24]
 8005354:	6382      	str	r2, [r0, #56]	@ 0x38
 8005356:	6203      	str	r3, [r0, #32]
 8005358:	bd70      	pop	{r4, r5, r6, pc}
 800535a:	bf00      	nop
 800535c:	40010000 	.word	0x40010000

08005360 <HAL_TIM_PWM_ConfigChannel>:
 8005360:	b538      	push	{r3, r4, r5, lr}
 8005362:	f890 303c 	ldrb.w	r3, [r0, #60]	@ 0x3c
 8005366:	4604      	mov	r4, r0
 8005368:	2b01      	cmp	r3, #1
 800536a:	d073      	beq.n	8005454 <HAL_TIM_PWM_ConfigChannel+0xf4>
 800536c:	2001      	movs	r0, #1
 800536e:	2a0c      	cmp	r2, #12
 8005370:	f884 003c 	strb.w	r0, [r4, #60]	@ 0x3c
 8005374:	d04e      	beq.n	8005414 <HAL_TIM_PWM_ConfigChannel+0xb4>
 8005376:	d808      	bhi.n	800538a <HAL_TIM_PWM_ConfigChannel+0x2a>
 8005378:	2a04      	cmp	r2, #4
 800537a:	d02b      	beq.n	80053d4 <HAL_TIM_PWM_ConfigChannel+0x74>
 800537c:	2a08      	cmp	r2, #8
 800537e:	d039      	beq.n	80053f4 <HAL_TIM_PWM_ConfigChannel+0x94>
 8005380:	b1ba      	cbz	r2, 80053b2 <HAL_TIM_PWM_ConfigChannel+0x52>
 8005382:	2300      	movs	r3, #0
 8005384:	f884 303c 	strb.w	r3, [r4, #60]	@ 0x3c
 8005388:	bd38      	pop	{r3, r4, r5, pc}
 800538a:	2a10      	cmp	r2, #16
 800538c:	d052      	beq.n	8005434 <HAL_TIM_PWM_ConfigChannel+0xd4>
 800538e:	2a14      	cmp	r2, #20
 8005390:	d1f7      	bne.n	8005382 <HAL_TIM_PWM_ConfigChannel+0x22>
 8005392:	6820      	ldr	r0, [r4, #0]
 8005394:	f7ff fea4 	bl	80050e0 <TIM_OC6_SetConfig>
 8005398:	690a      	ldr	r2, [r1, #16]
 800539a:	6d43      	ldr	r3, [r0, #84]	@ 0x54
 800539c:	f443 6300 	orr.w	r3, r3, #2048	@ 0x800
 80053a0:	6543      	str	r3, [r0, #84]	@ 0x54
 80053a2:	6d43      	ldr	r3, [r0, #84]	@ 0x54
 80053a4:	f423 6380 	bic.w	r3, r3, #1024	@ 0x400
 80053a8:	6543      	str	r3, [r0, #84]	@ 0x54
 80053aa:	6d43      	ldr	r3, [r0, #84]	@ 0x54
 80053ac:	ea43 2302 	orr.w	r3, r3, r2, lsl #8
 80053b0:	e04e      	b.n	8005450 <HAL_TIM_PWM_ConfigChannel+0xf0>
 80053b2:	6820      	ldr	r0, [r4, #0]
 80053b4:	f7ff fde6 	bl	8004f84 <TIM_OC1_SetConfig>
 80053b8:	690a      	ldr	r2, [r1, #16]
 80053ba:	6983      	ldr	r3, [r0, #24]
 80053bc:	f043 0308 	orr.w	r3, r3, #8
 80053c0:	6183      	str	r3, [r0, #24]
 80053c2:	6983      	ldr	r3, [r0, #24]
 80053c4:	f023 0304 	bic.w	r3, r3, #4
 80053c8:	6183      	str	r3, [r0, #24]
 80053ca:	6983      	ldr	r3, [r0, #24]
 80053cc:	4313      	orrs	r3, r2
 80053ce:	6183      	str	r3, [r0, #24]
 80053d0:	2000      	movs	r0, #0
 80053d2:	e7d6      	b.n	8005382 <HAL_TIM_PWM_ConfigChannel+0x22>
 80053d4:	6820      	ldr	r0, [r4, #0]
 80053d6:	f7ff ff91 	bl	80052fc <TIM_OC2_SetConfig>
 80053da:	690a      	ldr	r2, [r1, #16]
 80053dc:	6983      	ldr	r3, [r0, #24]
 80053de:	f443 6300 	orr.w	r3, r3, #2048	@ 0x800
 80053e2:	6183      	str	r3, [r0, #24]
 80053e4:	6983      	ldr	r3, [r0, #24]
 80053e6:	f423 6380 	bic.w	r3, r3, #1024	@ 0x400
 80053ea:	6183      	str	r3, [r0, #24]
 80053ec:	6983      	ldr	r3, [r0, #24]
 80053ee:	ea43 2302 	orr.w	r3, r3, r2, lsl #8
 80053f2:	e7ec      	b.n	80053ce <HAL_TIM_PWM_ConfigChannel+0x6e>
 80053f4:	6820      	ldr	r0, [r4, #0]
 80053f6:	f7ff fdf3 	bl	8004fe0 <TIM_OC3_SetConfig>
 80053fa:	690a      	ldr	r2, [r1, #16]
 80053fc:	69c3      	ldr	r3, [r0, #28]
 80053fe:	f043 0308 	orr.w	r3, r3, #8
 8005402:	61c3      	str	r3, [r0, #28]
 8005404:	69c3      	ldr	r3, [r0, #28]
 8005406:	f023 0304 	bic.w	r3, r3, #4
 800540a:	61c3      	str	r3, [r0, #28]
 800540c:	69c3      	ldr	r3, [r0, #28]
 800540e:	4313      	orrs	r3, r2
 8005410:	61c3      	str	r3, [r0, #28]
 8005412:	e7dd      	b.n	80053d0 <HAL_TIM_PWM_ConfigChannel+0x70>
 8005414:	6820      	ldr	r0, [r4, #0]
 8005416:	f7ff fe13 	bl	8005040 <TIM_OC4_SetConfig>
 800541a:	690a      	ldr	r2, [r1, #16]
 800541c:	69c3      	ldr	r3, [r0, #28]
 800541e:	f443 6300 	orr.w	r3, r3, #2048	@ 0x800
 8005422:	61c3      	str	r3, [r0, #28]
 8005424:	69c3      	ldr	r3, [r0, #28]
 8005426:	f423 6380 	bic.w	r3, r3, #1024	@ 0x400
 800542a:	61c3      	str	r3, [r0, #28]
 800542c:	69c3      	ldr	r3, [r0, #28]
 800542e:	ea43 2302 	orr.w	r3, r3, r2, lsl #8
 8005432:	e7ed      	b.n	8005410 <HAL_TIM_PWM_ConfigChannel+0xb0>
 8005434:	6820      	ldr	r0, [r4, #0]
 8005436:	f7ff fe2b 	bl	8005090 <TIM_OC5_SetConfig>
 800543a:	690a      	ldr	r2, [r1, #16]
 800543c:	6d43      	ldr	r3, [r0, #84]	@ 0x54
 800543e:	f043 0308 	orr.w	r3, r3, #8
 8005442:	6543      	str	r3, [r0, #84]	@ 0x54
 8005444:	6d43      	ldr	r3, [r0, #84]	@ 0x54
 8005446:	f023 0304 	bic.w	r3, r3, #4
 800544a:	6543      	str	r3, [r0, #84]	@ 0x54
 800544c:	6d43      	ldr	r3, [r0, #84]	@ 0x54
 800544e:	4313      	orrs	r3, r2
 8005450:	6543      	str	r3, [r0, #84]	@ 0x54
 8005452:	e7bd      	b.n	80053d0 <HAL_TIM_PWM_ConfigChannel+0x70>
 8005454:	2002      	movs	r0, #2
 8005456:	e797      	b.n	8005388 <HAL_TIM_PWM_ConfigChannel+0x28>

08005458 <TIM_TI1_SetConfig>:
 8005458:	b570      	push	{r4, r5, r6, lr}
 800545a:	6a05      	ldr	r5, [r0, #32]
 800545c:	4e19      	ldr	r6, [pc, #100]	@ (80054c4 <TIM_TI1_SetConfig+0x6c>)
 800545e:	6a04      	ldr	r4, [r0, #32]
 8005460:	42b0      	cmp	r0, r6
 8005462:	f024 0401 	bic.w	r4, r4, #1
 8005466:	6204      	str	r4, [r0, #32]
 8005468:	6984      	ldr	r4, [r0, #24]
 800546a:	d026      	beq.n	80054ba <TIM_TI1_SetConfig+0x62>
 800546c:	f1b0 4f80 	cmp.w	r0, #1073741824	@ 0x40000000
 8005470:	d023      	beq.n	80054ba <TIM_TI1_SetConfig+0x62>
 8005472:	f5a6 467c 	sub.w	r6, r6, #64512	@ 0xfc00
 8005476:	42b0      	cmp	r0, r6
 8005478:	d01f      	beq.n	80054ba <TIM_TI1_SetConfig+0x62>
 800547a:	f506 6680 	add.w	r6, r6, #1024	@ 0x400
 800547e:	42b0      	cmp	r0, r6
 8005480:	d01b      	beq.n	80054ba <TIM_TI1_SetConfig+0x62>
 8005482:	f506 6680 	add.w	r6, r6, #1024	@ 0x400
 8005486:	42b0      	cmp	r0, r6
 8005488:	d017      	beq.n	80054ba <TIM_TI1_SetConfig+0x62>
 800548a:	f506 4678 	add.w	r6, r6, #63488	@ 0xf800
 800548e:	42b0      	cmp	r0, r6
 8005490:	d013      	beq.n	80054ba <TIM_TI1_SetConfig+0x62>
 8005492:	f506 5670 	add.w	r6, r6, #15360	@ 0x3c00
 8005496:	42b0      	cmp	r0, r6
 8005498:	d00f      	beq.n	80054ba <TIM_TI1_SetConfig+0x62>
 800549a:	f5a6 3694 	sub.w	r6, r6, #75776	@ 0x12800
 800549e:	42b0      	cmp	r0, r6
 80054a0:	d00b      	beq.n	80054ba <TIM_TI1_SetConfig+0x62>
 80054a2:	f044 0201 	orr.w	r2, r4, #1
 80054a6:	f363 1207 	bfi	r2, r3, #4, #4
 80054aa:	f001 010a 	and.w	r1, r1, #10
 80054ae:	f025 030a 	bic.w	r3, r5, #10
 80054b2:	6182      	str	r2, [r0, #24]
 80054b4:	4319      	orrs	r1, r3
 80054b6:	6201      	str	r1, [r0, #32]
 80054b8:	bd70      	pop	{r4, r5, r6, pc}
 80054ba:	f024 0403 	bic.w	r4, r4, #3
 80054be:	4322      	orrs	r2, r4
 80054c0:	e7f1      	b.n	80054a6 <TIM_TI1_SetConfig+0x4e>
 80054c2:	bf00      	nop
 80054c4:	40010000 	.word	0x40010000

080054c8 <HAL_TIM_IC_ConfigChannel>:
 80054c8:	b5f8      	push	{r3, r4, r5, r6, r7, lr}
 80054ca:	f890 303c 	ldrb.w	r3, [r0, #60]	@ 0x3c
 80054ce:	4605      	mov	r5, r0
 80054d0:	460c      	mov	r4, r1
 80054d2:	2b01      	cmp	r3, #1
 80054d4:	f000 8082 	beq.w	80055dc <HAL_TIM_IC_ConfigChannel+0x114>
 80054d8:	2001      	movs	r0, #1
 80054da:	2a08      	cmp	r2, #8
 80054dc:	f885 003c 	strb.w	r0, [r5, #60]	@ 0x3c
 80054e0:	d05c      	beq.n	800559c <HAL_TIM_IC_ConfigChannel+0xd4>
 80054e2:	d806      	bhi.n	80054f2 <HAL_TIM_IC_ConfigChannel+0x2a>
 80054e4:	b342      	cbz	r2, 8005538 <HAL_TIM_IC_ConfigChannel+0x70>
 80054e6:	2a04      	cmp	r2, #4
 80054e8:	d036      	beq.n	8005558 <HAL_TIM_IC_ConfigChannel+0x90>
 80054ea:	2300      	movs	r3, #0
 80054ec:	f885 303c 	strb.w	r3, [r5, #60]	@ 0x3c
 80054f0:	bdf8      	pop	{r3, r4, r5, r6, r7, pc}
 80054f2:	2a0c      	cmp	r2, #12
 80054f4:	d1f9      	bne.n	80054ea <HAL_TIM_IC_ConfigChannel+0x22>
 80054f6:	682b      	ldr	r3, [r5, #0]
 80054f8:	68ce      	ldr	r6, [r1, #12]
 80054fa:	6a18      	ldr	r0, [r3, #32]
 80054fc:	e9d1 2700 	ldrd	r2, r7, [r1]
 8005500:	6a19      	ldr	r1, [r3, #32]
 8005502:	f420 4020 	bic.w	r0, r0, #40960	@ 0xa000
 8005506:	0312      	lsls	r2, r2, #12
 8005508:	f421 5180 	bic.w	r1, r1, #4096	@ 0x1000
 800550c:	f402 4220 	and.w	r2, r2, #40960	@ 0xa000
 8005510:	6219      	str	r1, [r3, #32]
 8005512:	69d9      	ldr	r1, [r3, #28]
 8005514:	4302      	orrs	r2, r0
 8005516:	f421 7140 	bic.w	r1, r1, #768	@ 0x300
 800551a:	ea41 2107 	orr.w	r1, r1, r7, lsl #8
 800551e:	f366 310f 	bfi	r1, r6, #12, #4
 8005522:	61d9      	str	r1, [r3, #28]
 8005524:	621a      	str	r2, [r3, #32]
 8005526:	69da      	ldr	r2, [r3, #28]
 8005528:	68a1      	ldr	r1, [r4, #8]
 800552a:	f422 6240 	bic.w	r2, r2, #3072	@ 0xc00
 800552e:	61da      	str	r2, [r3, #28]
 8005530:	69da      	ldr	r2, [r3, #28]
 8005532:	ea42 2201 	orr.w	r2, r2, r1, lsl #8
 8005536:	e04f      	b.n	80055d8 <HAL_TIM_IC_ConfigChannel+0x110>
 8005538:	6828      	ldr	r0, [r5, #0]
 800553a:	68cb      	ldr	r3, [r1, #12]
 800553c:	e9d1 1200 	ldrd	r1, r2, [r1]
 8005540:	f7ff ff8a 	bl	8005458 <TIM_TI1_SetConfig>
 8005544:	6983      	ldr	r3, [r0, #24]
 8005546:	68a2      	ldr	r2, [r4, #8]
 8005548:	f023 030c 	bic.w	r3, r3, #12
 800554c:	6183      	str	r3, [r0, #24]
 800554e:	6983      	ldr	r3, [r0, #24]
 8005550:	4313      	orrs	r3, r2
 8005552:	6183      	str	r3, [r0, #24]
 8005554:	2000      	movs	r0, #0
 8005556:	e7c8      	b.n	80054ea <HAL_TIM_IC_ConfigChannel+0x22>
 8005558:	682b      	ldr	r3, [r5, #0]
 800555a:	68ce      	ldr	r6, [r1, #12]
 800555c:	6a18      	ldr	r0, [r3, #32]
 800555e:	e9d1 2700 	ldrd	r2, r7, [r1]
 8005562:	6a19      	ldr	r1, [r3, #32]
 8005564:	f020 00a0 	bic.w	r0, r0, #160	@ 0xa0
 8005568:	0112      	lsls	r2, r2, #4
 800556a:	f021 0110 	bic.w	r1, r1, #16
 800556e:	f002 02a0 	and.w	r2, r2, #160	@ 0xa0
 8005572:	6219      	str	r1, [r3, #32]
 8005574:	6999      	ldr	r1, [r3, #24]
 8005576:	4302      	orrs	r2, r0
 8005578:	f421 7140 	bic.w	r1, r1, #768	@ 0x300
 800557c:	ea41 2107 	orr.w	r1, r1, r7, lsl #8
 8005580:	f366 310f 	bfi	r1, r6, #12, #4
 8005584:	6199      	str	r1, [r3, #24]
 8005586:	621a      	str	r2, [r3, #32]
 8005588:	699a      	ldr	r2, [r3, #24]
 800558a:	68a1      	ldr	r1, [r4, #8]
 800558c:	f422 6240 	bic.w	r2, r2, #3072	@ 0xc00
 8005590:	619a      	str	r2, [r3, #24]
 8005592:	699a      	ldr	r2, [r3, #24]
 8005594:	ea42 2201 	orr.w	r2, r2, r1, lsl #8
 8005598:	619a      	str	r2, [r3, #24]
 800559a:	e7db      	b.n	8005554 <HAL_TIM_IC_ConfigChannel+0x8c>
 800559c:	682b      	ldr	r3, [r5, #0]
 800559e:	68e7      	ldr	r7, [r4, #12]
 80055a0:	6a18      	ldr	r0, [r3, #32]
 80055a2:	6a1e      	ldr	r6, [r3, #32]
 80055a4:	f420 6020 	bic.w	r0, r0, #2560	@ 0xa00
 80055a8:	f426 7680 	bic.w	r6, r6, #256	@ 0x100
 80055ac:	e9d1 2100 	ldrd	r2, r1, [r1]
 80055b0:	621e      	str	r6, [r3, #32]
 80055b2:	69de      	ldr	r6, [r3, #28]
 80055b4:	0212      	lsls	r2, r2, #8
 80055b6:	f026 0603 	bic.w	r6, r6, #3
 80055ba:	f402 6220 	and.w	r2, r2, #2560	@ 0xa00
 80055be:	4331      	orrs	r1, r6
 80055c0:	4302      	orrs	r2, r0
 80055c2:	f367 1107 	bfi	r1, r7, #4, #4
 80055c6:	61d9      	str	r1, [r3, #28]
 80055c8:	621a      	str	r2, [r3, #32]
 80055ca:	69da      	ldr	r2, [r3, #28]
 80055cc:	68a1      	ldr	r1, [r4, #8]
 80055ce:	f022 020c 	bic.w	r2, r2, #12
 80055d2:	61da      	str	r2, [r3, #28]
 80055d4:	69da      	ldr	r2, [r3, #28]
 80055d6:	430a      	orrs	r2, r1
 80055d8:	61da      	str	r2, [r3, #28]
 80055da:	e7bb      	b.n	8005554 <HAL_TIM_IC_ConfigChannel+0x8c>
 80055dc:	2002      	movs	r0, #2
 80055de:	e787      	b.n	80054f0 <HAL_TIM_IC_ConfigChannel+0x28>

080055e0 <TIM_ETR_SetConfig>:
 80055e0:	b510      	push	{r4, lr}
 80055e2:	430a      	orrs	r2, r1
 80055e4:	6884      	ldr	r4, [r0, #8]
 80055e6:	ea42 2203 	orr.w	r2, r2, r3, lsl #8
 80055ea:	f424 447f 	bic.w	r4, r4, #65280	@ 0xff00
 80055ee:	4322      	orrs	r2, r4
 80055f0:	6082      	str	r2, [r0, #8]
 80055f2:	bd10      	pop	{r4, pc}

080055f4 <HAL_TIM_ConfigClockSource>:
 80055f4:	b538      	push	{r3, r4, r5, lr}
 80055f6:	f890 303c 	ldrb.w	r3, [r0, #60]	@ 0x3c
 80055fa:	4604      	mov	r4, r0
 80055fc:	2002      	movs	r0, #2
 80055fe:	2b01      	cmp	r3, #1
 8005600:	f000 808c 	beq.w	800571c <HAL_TIM_ConfigClockSource+0x128>
 8005604:	f884 003d 	strb.w	r0, [r4, #61]	@ 0x3d
 8005608:	2201      	movs	r2, #1
 800560a:	6820      	ldr	r0, [r4, #0]
 800560c:	f884 203c 	strb.w	r2, [r4, #60]	@ 0x3c
 8005610:	4b43      	ldr	r3, [pc, #268]	@ (8005720 <HAL_TIM_ConfigClockSource+0x12c>)
 8005612:	6885      	ldr	r5, [r0, #8]
 8005614:	402b      	ands	r3, r5
 8005616:	6083      	str	r3, [r0, #8]
 8005618:	680b      	ldr	r3, [r1, #0]
 800561a:	2b60      	cmp	r3, #96	@ 0x60
 800561c:	d04f      	beq.n	80056be <HAL_TIM_ConfigClockSource+0xca>
 800561e:	d832      	bhi.n	8005686 <HAL_TIM_ConfigClockSource+0x92>
 8005620:	2b40      	cmp	r3, #64	@ 0x40
 8005622:	d064      	beq.n	80056ee <HAL_TIM_ConfigClockSource+0xfa>
 8005624:	d816      	bhi.n	8005654 <HAL_TIM_ConfigClockSource+0x60>
 8005626:	2b20      	cmp	r3, #32
 8005628:	d00d      	beq.n	8005646 <HAL_TIM_ConfigClockSource+0x52>
 800562a:	d80a      	bhi.n	8005642 <HAL_TIM_ConfigClockSource+0x4e>
 800562c:	f033 0110 	bics.w	r1, r3, #16
 8005630:	d009      	beq.n	8005646 <HAL_TIM_ConfigClockSource+0x52>
 8005632:	2301      	movs	r3, #1
 8005634:	f884 303d 	strb.w	r3, [r4, #61]	@ 0x3d
 8005638:	2300      	movs	r3, #0
 800563a:	f884 303c 	strb.w	r3, [r4, #60]	@ 0x3c
 800563e:	4610      	mov	r0, r2
 8005640:	bd38      	pop	{r3, r4, r5, pc}
 8005642:	2b30      	cmp	r3, #48	@ 0x30
 8005644:	d1f5      	bne.n	8005632 <HAL_TIM_ConfigClockSource+0x3e>
 8005646:	6882      	ldr	r2, [r0, #8]
 8005648:	f022 0270 	bic.w	r2, r2, #112	@ 0x70
 800564c:	4313      	orrs	r3, r2
 800564e:	f043 0307 	orr.w	r3, r3, #7
 8005652:	e028      	b.n	80056a6 <HAL_TIM_ConfigClockSource+0xb2>
 8005654:	2b50      	cmp	r3, #80	@ 0x50
 8005656:	d1ec      	bne.n	8005632 <HAL_TIM_ConfigClockSource+0x3e>
 8005658:	684a      	ldr	r2, [r1, #4]
 800565a:	68cd      	ldr	r5, [r1, #12]
 800565c:	6a01      	ldr	r1, [r0, #32]
 800565e:	6a03      	ldr	r3, [r0, #32]
 8005660:	f021 010a 	bic.w	r1, r1, #10
 8005664:	f023 0301 	bic.w	r3, r3, #1
 8005668:	430a      	orrs	r2, r1
 800566a:	6203      	str	r3, [r0, #32]
 800566c:	6983      	ldr	r3, [r0, #24]
 800566e:	f023 03f0 	bic.w	r3, r3, #240	@ 0xf0
 8005672:	ea43 1305 	orr.w	r3, r3, r5, lsl #4
 8005676:	6183      	str	r3, [r0, #24]
 8005678:	6202      	str	r2, [r0, #32]
 800567a:	6883      	ldr	r3, [r0, #8]
 800567c:	f023 0370 	bic.w	r3, r3, #112	@ 0x70
 8005680:	f043 0357 	orr.w	r3, r3, #87	@ 0x57
 8005684:	e00f      	b.n	80056a6 <HAL_TIM_ConfigClockSource+0xb2>
 8005686:	f5b3 5f80 	cmp.w	r3, #4096	@ 0x1000
 800568a:	d00d      	beq.n	80056a8 <HAL_TIM_ConfigClockSource+0xb4>
 800568c:	f5b3 5f00 	cmp.w	r3, #8192	@ 0x2000
 8005690:	d00c      	beq.n	80056ac <HAL_TIM_ConfigClockSource+0xb8>
 8005692:	2b70      	cmp	r3, #112	@ 0x70
 8005694:	d1cd      	bne.n	8005632 <HAL_TIM_ConfigClockSource+0x3e>
 8005696:	68cb      	ldr	r3, [r1, #12]
 8005698:	e9d1 2101 	ldrd	r2, r1, [r1, #4]
 800569c:	f7ff ffa0 	bl	80055e0 <TIM_ETR_SetConfig>
 80056a0:	6883      	ldr	r3, [r0, #8]
 80056a2:	f043 0377 	orr.w	r3, r3, #119	@ 0x77
 80056a6:	6083      	str	r3, [r0, #8]
 80056a8:	2200      	movs	r2, #0
 80056aa:	e7c2      	b.n	8005632 <HAL_TIM_ConfigClockSource+0x3e>
 80056ac:	68cb      	ldr	r3, [r1, #12]
 80056ae:	e9d1 2101 	ldrd	r2, r1, [r1, #4]
 80056b2:	f7ff ff95 	bl	80055e0 <TIM_ETR_SetConfig>
 80056b6:	6883      	ldr	r3, [r0, #8]
 80056b8:	f443 4380 	orr.w	r3, r3, #16384	@ 0x4000
 80056bc:	e7f3      	b.n	80056a6 <HAL_TIM_ConfigClockSource+0xb2>
 80056be:	6a03      	ldr	r3, [r0, #32]
 80056c0:	6a02      	ldr	r2, [r0, #32]
 80056c2:	684d      	ldr	r5, [r1, #4]
 80056c4:	f023 03a0 	bic.w	r3, r3, #160	@ 0xa0
 80056c8:	f022 0210 	bic.w	r2, r2, #16
 80056cc:	68c9      	ldr	r1, [r1, #12]
 80056ce:	ea43 1305 	orr.w	r3, r3, r5, lsl #4
 80056d2:	6202      	str	r2, [r0, #32]
 80056d4:	6982      	ldr	r2, [r0, #24]
 80056d6:	f422 4270 	bic.w	r2, r2, #61440	@ 0xf000
 80056da:	ea42 3201 	orr.w	r2, r2, r1, lsl #12
 80056de:	6182      	str	r2, [r0, #24]
 80056e0:	6203      	str	r3, [r0, #32]
 80056e2:	6883      	ldr	r3, [r0, #8]
 80056e4:	f023 0370 	bic.w	r3, r3, #112	@ 0x70
 80056e8:	f043 0367 	orr.w	r3, r3, #103	@ 0x67
 80056ec:	e7db      	b.n	80056a6 <HAL_TIM_ConfigClockSource+0xb2>
 80056ee:	684a      	ldr	r2, [r1, #4]
 80056f0:	68cd      	ldr	r5, [r1, #12]
 80056f2:	6a01      	ldr	r1, [r0, #32]
 80056f4:	6a03      	ldr	r3, [r0, #32]
 80056f6:	f021 010a 	bic.w	r1, r1, #10
 80056fa:	f023 0301 	bic.w	r3, r3, #1
 80056fe:	430a      	orrs	r2, r1
 8005700:	6203      	str	r3, [r0, #32]
 8005702:	6983      	ldr	r3, [r0, #24]
 8005704:	f023 03f0 	bic.w	r3, r3, #240	@ 0xf0
 8005708:	ea43 1305 	orr.w	r3, r3, r5, lsl #4
 800570c:	6183      	str	r3, [r0, #24]
 800570e:	6202      	str	r2, [r0, #32]
 8005710:	6883      	ldr	r3, [r0, #8]
 8005712:	f023 0370 	bic.w	r3, r3, #112	@ 0x70
 8005716:	f043 0347 	orr.w	r3, r3, #71	@ 0x47
 800571a:	e7c4      	b.n	80056a6 <HAL_TIM_ConfigClockSource+0xb2>
 800571c:	4602      	mov	r2, r0
 800571e:	e78e      	b.n	800563e <HAL_TIM_ConfigClockSource+0x4a>
 8005720:	fffe0088 	.word	0xfffe0088

08005724 <TIM_CCxChannelCmd>:
 8005724:	b510      	push	{r4, lr}
 8005726:	f001 011f 	and.w	r1, r1, #31
 800572a:	2401      	movs	r4, #1
 800572c:	6a03      	ldr	r3, [r0, #32]
 800572e:	408c      	lsls	r4, r1
 8005730:	408a      	lsls	r2, r1
 8005732:	ea23 0304 	bic.w	r3, r3, r4
 8005736:	6203      	str	r3, [r0, #32]
 8005738:	6a03      	ldr	r3, [r0, #32]
 800573a:	431a      	orrs	r2, r3
 800573c:	6202      	str	r2, [r0, #32]
 800573e:	bd10      	pop	{r4, pc}

08005740 <HAL_TIM_OC_Start>:
 8005740:	2908      	cmp	r1, #8
 8005742:	b508      	push	{r3, lr}
 8005744:	d028      	beq.n	8005798 <HAL_TIM_OC_Start+0x58>
 8005746:	d812      	bhi.n	800576e <HAL_TIM_OC_Start+0x2e>
 8005748:	b1c1      	cbz	r1, 800577c <HAL_TIM_OC_Start+0x3c>
 800574a:	2904      	cmp	r1, #4
 800574c:	d01c      	beq.n	8005788 <HAL_TIM_OC_Start+0x48>
 800574e:	f890 3043 	ldrb.w	r3, [r0, #67]	@ 0x43
 8005752:	2b01      	cmp	r3, #1
 8005754:	d116      	bne.n	8005784 <HAL_TIM_OC_Start+0x44>
 8005756:	2908      	cmp	r1, #8
 8005758:	d905      	bls.n	8005766 <HAL_TIM_OC_Start+0x26>
 800575a:	290c      	cmp	r1, #12
 800575c:	f04f 0302 	mov.w	r3, #2
 8005760:	d046      	beq.n	80057f0 <HAL_TIM_OC_Start+0xb0>
 8005762:	2910      	cmp	r1, #16
 8005764:	d047      	beq.n	80057f6 <HAL_TIM_OC_Start+0xb6>
 8005766:	2302      	movs	r3, #2
 8005768:	f880 3043 	strb.w	r3, [r0, #67]	@ 0x43
 800576c:	e027      	b.n	80057be <HAL_TIM_OC_Start+0x7e>
 800576e:	290c      	cmp	r1, #12
 8005770:	d01f      	beq.n	80057b2 <HAL_TIM_OC_Start+0x72>
 8005772:	2910      	cmp	r1, #16
 8005774:	d1eb      	bne.n	800574e <HAL_TIM_OC_Start+0xe>
 8005776:	f890 3042 	ldrb.w	r3, [r0, #66]	@ 0x42
 800577a:	e00f      	b.n	800579c <HAL_TIM_OC_Start+0x5c>
 800577c:	f890 303e 	ldrb.w	r3, [r0, #62]	@ 0x3e
 8005780:	2b01      	cmp	r3, #1
 8005782:	d019      	beq.n	80057b8 <HAL_TIM_OC_Start+0x78>
 8005784:	2001      	movs	r0, #1
 8005786:	e032      	b.n	80057ee <HAL_TIM_OC_Start+0xae>
 8005788:	f890 303f 	ldrb.w	r3, [r0, #63]	@ 0x3f
 800578c:	2b01      	cmp	r3, #1
 800578e:	d1f9      	bne.n	8005784 <HAL_TIM_OC_Start+0x44>
 8005790:	2302      	movs	r3, #2
 8005792:	f880 303f 	strb.w	r3, [r0, #63]	@ 0x3f
 8005796:	e012      	b.n	80057be <HAL_TIM_OC_Start+0x7e>
 8005798:	f890 3040 	ldrb.w	r3, [r0, #64]	@ 0x40
 800579c:	3b01      	subs	r3, #1
 800579e:	bf18      	it	ne
 80057a0:	2301      	movne	r3, #1
 80057a2:	2b00      	cmp	r3, #0
 80057a4:	d1ee      	bne.n	8005784 <HAL_TIM_OC_Start+0x44>
 80057a6:	2908      	cmp	r1, #8
 80057a8:	d1d7      	bne.n	800575a <HAL_TIM_OC_Start+0x1a>
 80057aa:	2302      	movs	r3, #2
 80057ac:	f880 3040 	strb.w	r3, [r0, #64]	@ 0x40
 80057b0:	e005      	b.n	80057be <HAL_TIM_OC_Start+0x7e>
 80057b2:	f890 3041 	ldrb.w	r3, [r0, #65]	@ 0x41
 80057b6:	e7f1      	b.n	800579c <HAL_TIM_OC_Start+0x5c>
 80057b8:	2302      	movs	r3, #2
 80057ba:	f880 303e 	strb.w	r3, [r0, #62]	@ 0x3e
 80057be:	6800      	ldr	r0, [r0, #0]
 80057c0:	2201      	movs	r2, #1
 80057c2:	f7ff ffaf 	bl	8005724 <TIM_CCxChannelCmd>
 80057c6:	4b1b      	ldr	r3, [pc, #108]	@ (8005834 <HAL_TIM_OC_Start+0xf4>)
 80057c8:	4298      	cmp	r0, r3
 80057ca:	d003      	beq.n	80057d4 <HAL_TIM_OC_Start+0x94>
 80057cc:	f503 6380 	add.w	r3, r3, #1024	@ 0x400
 80057d0:	4298      	cmp	r0, r3
 80057d2:	d113      	bne.n	80057fc <HAL_TIM_OC_Start+0xbc>
 80057d4:	6c43      	ldr	r3, [r0, #68]	@ 0x44
 80057d6:	f443 4300 	orr.w	r3, r3, #32768	@ 0x8000
 80057da:	6443      	str	r3, [r0, #68]	@ 0x44
 80057dc:	6882      	ldr	r2, [r0, #8]
 80057de:	4b16      	ldr	r3, [pc, #88]	@ (8005838 <HAL_TIM_OC_Start+0xf8>)
 80057e0:	4013      	ands	r3, r2
 80057e2:	2b06      	cmp	r3, #6
 80057e4:	d002      	beq.n	80057ec <HAL_TIM_OC_Start+0xac>
 80057e6:	f5b3 3f80 	cmp.w	r3, #65536	@ 0x10000
 80057ea:	d11d      	bne.n	8005828 <HAL_TIM_OC_Start+0xe8>
 80057ec:	2000      	movs	r0, #0
 80057ee:	bd08      	pop	{r3, pc}
 80057f0:	f880 3041 	strb.w	r3, [r0, #65]	@ 0x41
 80057f4:	e7e3      	b.n	80057be <HAL_TIM_OC_Start+0x7e>
 80057f6:	f880 3042 	strb.w	r3, [r0, #66]	@ 0x42
 80057fa:	e7e0      	b.n	80057be <HAL_TIM_OC_Start+0x7e>
 80057fc:	f1b0 4f80 	cmp.w	r0, #1073741824	@ 0x40000000
 8005800:	d0ec      	beq.n	80057dc <HAL_TIM_OC_Start+0x9c>
 8005802:	4b0e      	ldr	r3, [pc, #56]	@ (800583c <HAL_TIM_OC_Start+0xfc>)
 8005804:	4298      	cmp	r0, r3
 8005806:	d0e9      	beq.n	80057dc <HAL_TIM_OC_Start+0x9c>
 8005808:	f503 6380 	add.w	r3, r3, #1024	@ 0x400
 800580c:	4298      	cmp	r0, r3
 800580e:	d0e5      	beq.n	80057dc <HAL_TIM_OC_Start+0x9c>
 8005810:	f503 6380 	add.w	r3, r3, #1024	@ 0x400
 8005814:	4298      	cmp	r0, r3
 8005816:	d0e1      	beq.n	80057dc <HAL_TIM_OC_Start+0x9c>
 8005818:	f503 339a 	add.w	r3, r3, #78848	@ 0x13400
 800581c:	4298      	cmp	r0, r3
 800581e:	d0dd      	beq.n	80057dc <HAL_TIM_OC_Start+0x9c>
 8005820:	f5a3 3394 	sub.w	r3, r3, #75776	@ 0x12800
 8005824:	4298      	cmp	r0, r3
 8005826:	d0d9      	beq.n	80057dc <HAL_TIM_OC_Start+0x9c>
 8005828:	6803      	ldr	r3, [r0, #0]
 800582a:	f043 0301 	orr.w	r3, r3, #1
 800582e:	6003      	str	r3, [r0, #0]
 8005830:	e7dc      	b.n	80057ec <HAL_TIM_OC_Start+0xac>
 8005832:	bf00      	nop
 8005834:	40010000 	.word	0x40010000
 8005838:	00010007 	.word	0x00010007
 800583c:	40000400 	.word	0x40000400

08005840 <HAL_TIM_PWM_Start>:
 8005840:	f7ff bf7e 	b.w	8005740 <HAL_TIM_OC_Start>

08005844 <HAL_TIM_OC_Stop>:
 8005844:	b538      	push	{r3, r4, r5, lr}
 8005846:	2200      	movs	r2, #0
 8005848:	4604      	mov	r4, r0
 800584a:	6800      	ldr	r0, [r0, #0]
 800584c:	460d      	mov	r5, r1
 800584e:	f7ff ff69 	bl	8005724 <TIM_CCxChannelCmd>
 8005852:	4b22      	ldr	r3, [pc, #136]	@ (80058dc <HAL_TIM_OC_Stop+0x98>)
 8005854:	4298      	cmp	r0, r3
 8005856:	d003      	beq.n	8005860 <HAL_TIM_OC_Stop+0x1c>
 8005858:	f503 6380 	add.w	r3, r3, #1024	@ 0x400
 800585c:	4298      	cmp	r0, r3
 800585e:	d10e      	bne.n	800587e <HAL_TIM_OC_Stop+0x3a>
 8005860:	6a03      	ldr	r3, [r0, #32]
 8005862:	f003 3311 	and.w	r3, r3, #286331153	@ 0x11111111
 8005866:	f023 5388 	bic.w	r3, r3, #285212672	@ 0x11000000
 800586a:	b943      	cbnz	r3, 800587e <HAL_TIM_OC_Stop+0x3a>
 800586c:	6a02      	ldr	r2, [r0, #32]
 800586e:	f240 4344 	movw	r3, #1092	@ 0x444
 8005872:	421a      	tst	r2, r3
 8005874:	d103      	bne.n	800587e <HAL_TIM_OC_Stop+0x3a>
 8005876:	6c43      	ldr	r3, [r0, #68]	@ 0x44
 8005878:	f423 4300 	bic.w	r3, r3, #32768	@ 0x8000
 800587c:	6443      	str	r3, [r0, #68]	@ 0x44
 800587e:	6a03      	ldr	r3, [r0, #32]
 8005880:	f003 3311 	and.w	r3, r3, #286331153	@ 0x11111111
 8005884:	f023 5388 	bic.w	r3, r3, #285212672	@ 0x11000000
 8005888:	b943      	cbnz	r3, 800589c <HAL_TIM_OC_Stop+0x58>
 800588a:	6a02      	ldr	r2, [r0, #32]
 800588c:	f240 4344 	movw	r3, #1092	@ 0x444
 8005890:	421a      	tst	r2, r3
 8005892:	d103      	bne.n	800589c <HAL_TIM_OC_Stop+0x58>
 8005894:	6803      	ldr	r3, [r0, #0]
 8005896:	f023 0301 	bic.w	r3, r3, #1
 800589a:	6003      	str	r3, [r0, #0]
 800589c:	2d08      	cmp	r5, #8
 800589e:	f04f 0301 	mov.w	r3, #1
 80058a2:	d015      	beq.n	80058d0 <HAL_TIM_OC_Stop+0x8c>
 80058a4:	d806      	bhi.n	80058b4 <HAL_TIM_OC_Stop+0x70>
 80058a6:	b165      	cbz	r5, 80058c2 <HAL_TIM_OC_Stop+0x7e>
 80058a8:	2d04      	cmp	r5, #4
 80058aa:	d00e      	beq.n	80058ca <HAL_TIM_OC_Stop+0x86>
 80058ac:	2301      	movs	r3, #1
 80058ae:	f884 3043 	strb.w	r3, [r4, #67]	@ 0x43
 80058b2:	e008      	b.n	80058c6 <HAL_TIM_OC_Stop+0x82>
 80058b4:	2d0c      	cmp	r5, #12
 80058b6:	d00e      	beq.n	80058d6 <HAL_TIM_OC_Stop+0x92>
 80058b8:	2d10      	cmp	r5, #16
 80058ba:	d1f7      	bne.n	80058ac <HAL_TIM_OC_Stop+0x68>
 80058bc:	f884 3042 	strb.w	r3, [r4, #66]	@ 0x42
 80058c0:	e001      	b.n	80058c6 <HAL_TIM_OC_Stop+0x82>
 80058c2:	f884 303e 	strb.w	r3, [r4, #62]	@ 0x3e
 80058c6:	2000      	movs	r0, #0
 80058c8:	bd38      	pop	{r3, r4, r5, pc}
 80058ca:	f884 303f 	strb.w	r3, [r4, #63]	@ 0x3f
 80058ce:	e7fa      	b.n	80058c6 <HAL_TIM_OC_Stop+0x82>
 80058d0:	f884 3040 	strb.w	r3, [r4, #64]	@ 0x40
 80058d4:	e7f7      	b.n	80058c6 <HAL_TIM_OC_Stop+0x82>
 80058d6:	f884 3041 	strb.w	r3, [r4, #65]	@ 0x41
 80058da:	e7f4      	b.n	80058c6 <HAL_TIM_OC_Stop+0x82>
 80058dc:	40010000 	.word	0x40010000

080058e0 <HAL_TIM_PWM_Stop>:
 80058e0:	f7ff bfb0 	b.w	8005844 <HAL_TIM_OC_Stop>

080058e4 <HAL_TIM_IC_Start_IT>:
 80058e4:	2908      	cmp	r1, #8
 80058e6:	b508      	push	{r3, lr}
 80058e8:	d029      	beq.n	800593e <HAL_TIM_IC_Start_IT+0x5a>
 80058ea:	d805      	bhi.n	80058f8 <HAL_TIM_IC_Start_IT+0x14>
 80058ec:	b159      	cbz	r1, 8005906 <HAL_TIM_IC_Start_IT+0x22>
 80058ee:	2904      	cmp	r1, #4
 80058f0:	d01f      	beq.n	8005932 <HAL_TIM_IC_Start_IT+0x4e>
 80058f2:	f890 3043 	ldrb.w	r3, [r0, #67]	@ 0x43
 80058f6:	e02a      	b.n	800594e <HAL_TIM_IC_Start_IT+0x6a>
 80058f8:	290c      	cmp	r1, #12
 80058fa:	d026      	beq.n	800594a <HAL_TIM_IC_Start_IT+0x66>
 80058fc:	2910      	cmp	r1, #16
 80058fe:	d1f8      	bne.n	80058f2 <HAL_TIM_IC_Start_IT+0xe>
 8005900:	f890 3042 	ldrb.w	r3, [r0, #66]	@ 0x42
 8005904:	e023      	b.n	800594e <HAL_TIM_IC_Start_IT+0x6a>
 8005906:	f890 303e 	ldrb.w	r3, [r0, #62]	@ 0x3e
 800590a:	f890 2044 	ldrb.w	r2, [r0, #68]	@ 0x44
 800590e:	b2db      	uxtb	r3, r3
 8005910:	2b01      	cmp	r3, #1
 8005912:	b2d2      	uxtb	r2, r2
 8005914:	d127      	bne.n	8005966 <HAL_TIM_IC_Start_IT+0x82>
 8005916:	2a01      	cmp	r2, #1
 8005918:	d125      	bne.n	8005966 <HAL_TIM_IC_Start_IT+0x82>
 800591a:	2908      	cmp	r1, #8
 800591c:	f04f 0302 	mov.w	r3, #2
 8005920:	d065      	beq.n	80059ee <HAL_TIM_IC_Start_IT+0x10a>
 8005922:	d818      	bhi.n	8005956 <HAL_TIM_IC_Start_IT+0x72>
 8005924:	b309      	cbz	r1, 800596a <HAL_TIM_IC_Start_IT+0x86>
 8005926:	2904      	cmp	r1, #4
 8005928:	d058      	beq.n	80059dc <HAL_TIM_IC_Start_IT+0xf8>
 800592a:	2302      	movs	r3, #2
 800592c:	f880 3043 	strb.w	r3, [r0, #67]	@ 0x43
 8005930:	e017      	b.n	8005962 <HAL_TIM_IC_Start_IT+0x7e>
 8005932:	f890 303f 	ldrb.w	r3, [r0, #63]	@ 0x3f
 8005936:	f890 2045 	ldrb.w	r2, [r0, #69]	@ 0x45
 800593a:	b2db      	uxtb	r3, r3
 800593c:	e7e8      	b.n	8005910 <HAL_TIM_IC_Start_IT+0x2c>
 800593e:	f890 3040 	ldrb.w	r3, [r0, #64]	@ 0x40
 8005942:	f890 2046 	ldrb.w	r2, [r0, #70]	@ 0x46
 8005946:	b2db      	uxtb	r3, r3
 8005948:	e7e2      	b.n	8005910 <HAL_TIM_IC_Start_IT+0x2c>
 800594a:	f890 3041 	ldrb.w	r3, [r0, #65]	@ 0x41
 800594e:	b2db      	uxtb	r3, r3
 8005950:	f890 2047 	ldrb.w	r2, [r0, #71]	@ 0x47
 8005954:	e7dc      	b.n	8005910 <HAL_TIM_IC_Start_IT+0x2c>
 8005956:	290c      	cmp	r1, #12
 8005958:	d052      	beq.n	8005a00 <HAL_TIM_IC_Start_IT+0x11c>
 800595a:	2910      	cmp	r1, #16
 800595c:	d1e5      	bne.n	800592a <HAL_TIM_IC_Start_IT+0x46>
 800595e:	f880 3042 	strb.w	r3, [r0, #66]	@ 0x42
 8005962:	f880 3047 	strb.w	r3, [r0, #71]	@ 0x47
 8005966:	2001      	movs	r0, #1
 8005968:	e037      	b.n	80059da <HAL_TIM_IC_Start_IT+0xf6>
 800596a:	6802      	ldr	r2, [r0, #0]
 800596c:	f880 303e 	strb.w	r3, [r0, #62]	@ 0x3e
 8005970:	f880 3044 	strb.w	r3, [r0, #68]	@ 0x44
 8005974:	68d3      	ldr	r3, [r2, #12]
 8005976:	f043 0302 	orr.w	r3, r3, #2
 800597a:	60d3      	str	r3, [r2, #12]
 800597c:	2201      	movs	r2, #1
 800597e:	6800      	ldr	r0, [r0, #0]
 8005980:	f7ff fed0 	bl	8005724 <TIM_CCxChannelCmd>
 8005984:	4b23      	ldr	r3, [pc, #140]	@ (8005a14 <HAL_TIM_IC_Start_IT+0x130>)
 8005986:	4298      	cmp	r0, r3
 8005988:	d01a      	beq.n	80059c0 <HAL_TIM_IC_Start_IT+0xdc>
 800598a:	f1b0 4f80 	cmp.w	r0, #1073741824	@ 0x40000000
 800598e:	d017      	beq.n	80059c0 <HAL_TIM_IC_Start_IT+0xdc>
 8005990:	f5a3 437c 	sub.w	r3, r3, #64512	@ 0xfc00
 8005994:	4298      	cmp	r0, r3
 8005996:	d013      	beq.n	80059c0 <HAL_TIM_IC_Start_IT+0xdc>
 8005998:	f503 6380 	add.w	r3, r3, #1024	@ 0x400
 800599c:	4298      	cmp	r0, r3
 800599e:	d00f      	beq.n	80059c0 <HAL_TIM_IC_Start_IT+0xdc>
 80059a0:	f503 6380 	add.w	r3, r3, #1024	@ 0x400
 80059a4:	4298      	cmp	r0, r3
 80059a6:	d00b      	beq.n	80059c0 <HAL_TIM_IC_Start_IT+0xdc>
 80059a8:	f503 4378 	add.w	r3, r3, #63488	@ 0xf800
 80059ac:	4298      	cmp	r0, r3
 80059ae:	d007      	beq.n	80059c0 <HAL_TIM_IC_Start_IT+0xdc>
 80059b0:	f503 5370 	add.w	r3, r3, #15360	@ 0x3c00
 80059b4:	4298      	cmp	r0, r3
 80059b6:	d003      	beq.n	80059c0 <HAL_TIM_IC_Start_IT+0xdc>
 80059b8:	f5a3 3394 	sub.w	r3, r3, #75776	@ 0x12800
 80059bc:	4298      	cmp	r0, r3
 80059be:	d107      	bne.n	80059d0 <HAL_TIM_IC_Start_IT+0xec>
 80059c0:	6882      	ldr	r2, [r0, #8]
 80059c2:	4b15      	ldr	r3, [pc, #84]	@ (8005a18 <HAL_TIM_IC_Start_IT+0x134>)
 80059c4:	4013      	ands	r3, r2
 80059c6:	2b06      	cmp	r3, #6
 80059c8:	d006      	beq.n	80059d8 <HAL_TIM_IC_Start_IT+0xf4>
 80059ca:	f5b3 3f80 	cmp.w	r3, #65536	@ 0x10000
 80059ce:	d003      	beq.n	80059d8 <HAL_TIM_IC_Start_IT+0xf4>
 80059d0:	6803      	ldr	r3, [r0, #0]
 80059d2:	f043 0301 	orr.w	r3, r3, #1
 80059d6:	6003      	str	r3, [r0, #0]
 80059d8:	2000      	movs	r0, #0
 80059da:	bd08      	pop	{r3, pc}
 80059dc:	6802      	ldr	r2, [r0, #0]
 80059de:	f880 303f 	strb.w	r3, [r0, #63]	@ 0x3f
 80059e2:	f880 3045 	strb.w	r3, [r0, #69]	@ 0x45
 80059e6:	68d3      	ldr	r3, [r2, #12]
 80059e8:	f043 0304 	orr.w	r3, r3, #4
 80059ec:	e7c5      	b.n	800597a <HAL_TIM_IC_Start_IT+0x96>
 80059ee:	6802      	ldr	r2, [r0, #0]
 80059f0:	f880 3040 	strb.w	r3, [r0, #64]	@ 0x40
 80059f4:	f880 3046 	strb.w	r3, [r0, #70]	@ 0x46
 80059f8:	68d3      	ldr	r3, [r2, #12]
 80059fa:	f043 0308 	orr.w	r3, r3, #8
 80059fe:	e7bc      	b.n	800597a <HAL_TIM_IC_Start_IT+0x96>
 8005a00:	6802      	ldr	r2, [r0, #0]
 8005a02:	f880 3041 	strb.w	r3, [r0, #65]	@ 0x41
 8005a06:	f880 3047 	strb.w	r3, [r0, #71]	@ 0x47
 8005a0a:	68d3      	ldr	r3, [r2, #12]
 8005a0c:	f043 0310 	orr.w	r3, r3, #16
 8005a10:	e7b3      	b.n	800597a <HAL_TIM_IC_Start_IT+0x96>
 8005a12:	bf00      	nop
 8005a14:	40010000 	.word	0x40010000
 8005a18:	00010007 	.word	0x00010007

08005a1c <HAL_TIM_IC_Stop_IT>:
 8005a1c:	2908      	cmp	r1, #8
 8005a1e:	b538      	push	{r3, r4, r5, lr}
 8005a20:	4604      	mov	r4, r0
 8005a22:	460d      	mov	r5, r1
 8005a24:	d032      	beq.n	8005a8c <HAL_TIM_IC_Stop_IT+0x70>
 8005a26:	d804      	bhi.n	8005a32 <HAL_TIM_IC_Stop_IT+0x16>
 8005a28:	b151      	cbz	r1, 8005a40 <HAL_TIM_IC_Stop_IT+0x24>
 8005a2a:	2904      	cmp	r1, #4
 8005a2c:	d029      	beq.n	8005a82 <HAL_TIM_IC_Stop_IT+0x66>
 8005a2e:	2001      	movs	r0, #1
 8005a30:	bd38      	pop	{r3, r4, r5, pc}
 8005a32:	290c      	cmp	r1, #12
 8005a34:	d1fb      	bne.n	8005a2e <HAL_TIM_IC_Stop_IT+0x12>
 8005a36:	6802      	ldr	r2, [r0, #0]
 8005a38:	68d3      	ldr	r3, [r2, #12]
 8005a3a:	f023 0310 	bic.w	r3, r3, #16
 8005a3e:	e003      	b.n	8005a48 <HAL_TIM_IC_Stop_IT+0x2c>
 8005a40:	6802      	ldr	r2, [r0, #0]
 8005a42:	68d3      	ldr	r3, [r2, #12]
 8005a44:	f023 0302 	bic.w	r3, r3, #2
 8005a48:	6820      	ldr	r0, [r4, #0]
 8005a4a:	4629      	mov	r1, r5
 8005a4c:	60d3      	str	r3, [r2, #12]
 8005a4e:	2200      	movs	r2, #0
 8005a50:	f7ff fe68 	bl	8005724 <TIM_CCxChannelCmd>
 8005a54:	6a03      	ldr	r3, [r0, #32]
 8005a56:	f003 3311 	and.w	r3, r3, #286331153	@ 0x11111111
 8005a5a:	f023 5388 	bic.w	r3, r3, #285212672	@ 0x11000000
 8005a5e:	b943      	cbnz	r3, 8005a72 <HAL_TIM_IC_Stop_IT+0x56>
 8005a60:	6a02      	ldr	r2, [r0, #32]
 8005a62:	f240 4344 	movw	r3, #1092	@ 0x444
 8005a66:	421a      	tst	r2, r3
 8005a68:	d103      	bne.n	8005a72 <HAL_TIM_IC_Stop_IT+0x56>
 8005a6a:	6803      	ldr	r3, [r0, #0]
 8005a6c:	f023 0301 	bic.w	r3, r3, #1
 8005a70:	6003      	str	r3, [r0, #0]
 8005a72:	2301      	movs	r3, #1
 8005a74:	b97d      	cbnz	r5, 8005a96 <HAL_TIM_IC_Stop_IT+0x7a>
 8005a76:	f884 303e 	strb.w	r3, [r4, #62]	@ 0x3e
 8005a7a:	f884 3044 	strb.w	r3, [r4, #68]	@ 0x44
 8005a7e:	2000      	movs	r0, #0
 8005a80:	e7d6      	b.n	8005a30 <HAL_TIM_IC_Stop_IT+0x14>
 8005a82:	6802      	ldr	r2, [r0, #0]
 8005a84:	68d3      	ldr	r3, [r2, #12]
 8005a86:	f023 0304 	bic.w	r3, r3, #4
 8005a8a:	e7dd      	b.n	8005a48 <HAL_TIM_IC_Stop_IT+0x2c>
 8005a8c:	6802      	ldr	r2, [r0, #0]
 8005a8e:	68d3      	ldr	r3, [r2, #12]
 8005a90:	f023 0308 	bic.w	r3, r3, #8
 8005a94:	e7d8      	b.n	8005a48 <HAL_TIM_IC_Stop_IT+0x2c>
 8005a96:	2d04      	cmp	r5, #4
 8005a98:	d104      	bne.n	8005aa4 <HAL_TIM_IC_Stop_IT+0x88>
 8005a9a:	f884 303f 	strb.w	r3, [r4, #63]	@ 0x3f
 8005a9e:	f884 3045 	strb.w	r3, [r4, #69]	@ 0x45
 8005aa2:	e7ec      	b.n	8005a7e <HAL_TIM_IC_Stop_IT+0x62>
 8005aa4:	2d08      	cmp	r5, #8
 8005aa6:	d104      	bne.n	8005ab2 <HAL_TIM_IC_Stop_IT+0x96>
 8005aa8:	f884 3040 	strb.w	r3, [r4, #64]	@ 0x40
 8005aac:	f884 3046 	strb.w	r3, [r4, #70]	@ 0x46
 8005ab0:	e7e5      	b.n	8005a7e <HAL_TIM_IC_Stop_IT+0x62>
 8005ab2:	f884 3041 	strb.w	r3, [r4, #65]	@ 0x41
 8005ab6:	f884 3047 	strb.w	r3, [r4, #71]	@ 0x47
 8005aba:	e7e0      	b.n	8005a7e <HAL_TIM_IC_Stop_IT+0x62>

08005abc <HAL_TIMEx_MasterConfigSynchronization>:
 8005abc:	b570      	push	{r4, r5, r6, lr}
 8005abe:	f890 303c 	ldrb.w	r3, [r0, #60]	@ 0x3c
 8005ac2:	4604      	mov	r4, r0
 8005ac4:	2002      	movs	r0, #2
 8005ac6:	2b01      	cmp	r3, #1
 8005ac8:	d03b      	beq.n	8005b42 <HAL_TIMEx_MasterConfigSynchronization+0x86>
 8005aca:	6823      	ldr	r3, [r4, #0]
 8005acc:	4d1d      	ldr	r5, [pc, #116]	@ (8005b44 <HAL_TIMEx_MasterConfigSynchronization+0x88>)
 8005ace:	f884 003d 	strb.w	r0, [r4, #61]	@ 0x3d
 8005ad2:	42ab      	cmp	r3, r5
 8005ad4:	685a      	ldr	r2, [r3, #4]
 8005ad6:	6898      	ldr	r0, [r3, #8]
 8005ad8:	d002      	beq.n	8005ae0 <HAL_TIMEx_MasterConfigSynchronization+0x24>
 8005ada:	4e1b      	ldr	r6, [pc, #108]	@ (8005b48 <HAL_TIMEx_MasterConfigSynchronization+0x8c>)
 8005adc:	42b3      	cmp	r3, r6
 8005ade:	d103      	bne.n	8005ae8 <HAL_TIMEx_MasterConfigSynchronization+0x2c>
 8005ae0:	f422 0270 	bic.w	r2, r2, #15728640	@ 0xf00000
 8005ae4:	684e      	ldr	r6, [r1, #4]
 8005ae6:	4332      	orrs	r2, r6
 8005ae8:	680e      	ldr	r6, [r1, #0]
 8005aea:	f022 0270 	bic.w	r2, r2, #112	@ 0x70
 8005aee:	42ab      	cmp	r3, r5
 8005af0:	ea42 0206 	orr.w	r2, r2, r6
 8005af4:	605a      	str	r2, [r3, #4]
 8005af6:	d019      	beq.n	8005b2c <HAL_TIMEx_MasterConfigSynchronization+0x70>
 8005af8:	f1b3 4f80 	cmp.w	r3, #1073741824	@ 0x40000000
 8005afc:	d016      	beq.n	8005b2c <HAL_TIMEx_MasterConfigSynchronization+0x70>
 8005afe:	4a13      	ldr	r2, [pc, #76]	@ (8005b4c <HAL_TIMEx_MasterConfigSynchronization+0x90>)
 8005b00:	4293      	cmp	r3, r2
 8005b02:	d013      	beq.n	8005b2c <HAL_TIMEx_MasterConfigSynchronization+0x70>
 8005b04:	f502 6280 	add.w	r2, r2, #1024	@ 0x400
 8005b08:	4293      	cmp	r3, r2
 8005b0a:	d00f      	beq.n	8005b2c <HAL_TIMEx_MasterConfigSynchronization+0x70>
 8005b0c:	f502 6280 	add.w	r2, r2, #1024	@ 0x400
 8005b10:	4293      	cmp	r3, r2
 8005b12:	d00b      	beq.n	8005b2c <HAL_TIMEx_MasterConfigSynchronization+0x70>
 8005b14:	f502 4278 	add.w	r2, r2, #63488	@ 0xf800
 8005b18:	4293      	cmp	r3, r2
 8005b1a:	d007      	beq.n	8005b2c <HAL_TIMEx_MasterConfigSynchronization+0x70>
 8005b1c:	f502 5270 	add.w	r2, r2, #15360	@ 0x3c00
 8005b20:	4293      	cmp	r3, r2
 8005b22:	d003      	beq.n	8005b2c <HAL_TIMEx_MasterConfigSynchronization+0x70>
 8005b24:	f5a2 3294 	sub.w	r2, r2, #75776	@ 0x12800
 8005b28:	4293      	cmp	r3, r2
 8005b2a:	d104      	bne.n	8005b36 <HAL_TIMEx_MasterConfigSynchronization+0x7a>
 8005b2c:	6889      	ldr	r1, [r1, #8]
 8005b2e:	f020 0280 	bic.w	r2, r0, #128	@ 0x80
 8005b32:	430a      	orrs	r2, r1
 8005b34:	609a      	str	r2, [r3, #8]
 8005b36:	2301      	movs	r3, #1
 8005b38:	2000      	movs	r0, #0
 8005b3a:	f884 303d 	strb.w	r3, [r4, #61]	@ 0x3d
 8005b3e:	f884 003c 	strb.w	r0, [r4, #60]	@ 0x3c
 8005b42:	bd70      	pop	{r4, r5, r6, pc}
 8005b44:	40010000 	.word	0x40010000
 8005b48:	40010400 	.word	0x40010400
 8005b4c:	40000400 	.word	0x40000400

08005b50 <FMC_SDRAM_Init>:
 8005b50:	e92d 41f0 	stmdb	sp!, {r4, r5, r6, r7, r8, lr}
 8005b54:	e9d1 2c01 	ldrd	r2, ip, [r1, #4]
 8005b58:	e9d1 3807 	ldrd	r3, r8, [r1, #28]
 8005b5c:	f8d1 e024 	ldr.w	lr, [r1, #36]	@ 0x24
 8005b60:	ea43 0308 	orr.w	r3, r3, r8
 8005b64:	e9d1 7603 	ldrd	r7, r6, [r1, #12]
 8005b68:	e9d1 5405 	ldrd	r5, r4, [r1, #20]
 8005b6c:	6809      	ldr	r1, [r1, #0]
 8005b6e:	b981      	cbnz	r1, 8005b92 <FMC_SDRAM_Init+0x42>
 8005b70:	ea43 030e 	orr.w	r3, r3, lr
 8005b74:	6801      	ldr	r1, [r0, #0]
 8005b76:	4313      	orrs	r3, r2
 8005b78:	f36f 010e 	bfc	r1, #0, #15
 8005b7c:	ea43 030c 	orr.w	r3, r3, ip
 8005b80:	433b      	orrs	r3, r7
 8005b82:	4333      	orrs	r3, r6
 8005b84:	432b      	orrs	r3, r5
 8005b86:	4323      	orrs	r3, r4
 8005b88:	430b      	orrs	r3, r1
 8005b8a:	6003      	str	r3, [r0, #0]
 8005b8c:	2000      	movs	r0, #0
 8005b8e:	e8bd 81f0 	ldmia.w	sp!, {r4, r5, r6, r7, r8, pc}
 8005b92:	6801      	ldr	r1, [r0, #0]
 8005b94:	ea43 030e 	orr.w	r3, r3, lr
 8005b98:	f421 41f8 	bic.w	r1, r1, #31744	@ 0x7c00
 8005b9c:	430b      	orrs	r3, r1
 8005b9e:	6003      	str	r3, [r0, #0]
 8005ba0:	ea42 030c 	orr.w	r3, r2, ip
 8005ba4:	6841      	ldr	r1, [r0, #4]
 8005ba6:	433b      	orrs	r3, r7
 8005ba8:	f421 42ff 	bic.w	r2, r1, #32640	@ 0x7f80
 8005bac:	4333      	orrs	r3, r6
 8005bae:	f022 027f 	bic.w	r2, r2, #127	@ 0x7f
 8005bb2:	432b      	orrs	r3, r5
 8005bb4:	4323      	orrs	r3, r4
 8005bb6:	4313      	orrs	r3, r2
 8005bb8:	6043      	str	r3, [r0, #4]
 8005bba:	e7e7      	b.n	8005b8c <FMC_SDRAM_Init+0x3c>

08005bbc <FMC_SDRAM_Timing_Init>:
 8005bbc:	68cb      	ldr	r3, [r1, #12]
 8005bbe:	f103 3cff 	add.w	ip, r3, #4294967295	@ 0xffffffff
 8005bc2:	694b      	ldr	r3, [r1, #20]
 8005bc4:	b5f0      	push	{r4, r5, r6, r7, lr}
 8005bc6:	3b01      	subs	r3, #1
 8005bc8:	684c      	ldr	r4, [r1, #4]
 8005bca:	688f      	ldr	r7, [r1, #8]
 8005bcc:	690e      	ldr	r6, [r1, #16]
 8005bce:	051b      	lsls	r3, r3, #20
 8005bd0:	698d      	ldr	r5, [r1, #24]
 8005bd2:	3c01      	subs	r4, #1
 8005bd4:	3f01      	subs	r7, #1
 8005bd6:	3e01      	subs	r6, #1
 8005bd8:	3d01      	subs	r5, #1
 8005bda:	6809      	ldr	r1, [r1, #0]
 8005bdc:	0124      	lsls	r4, r4, #4
 8005bde:	023f      	lsls	r7, r7, #8
 8005be0:	3901      	subs	r1, #1
 8005be2:	0436      	lsls	r6, r6, #16
 8005be4:	062d      	lsls	r5, r5, #24
 8005be6:	ea43 330c 	orr.w	r3, r3, ip, lsl #12
 8005bea:	b95a      	cbnz	r2, 8005c04 <FMC_SDRAM_Timing_Init+0x48>
 8005bec:	430b      	orrs	r3, r1
 8005bee:	6882      	ldr	r2, [r0, #8]
 8005bf0:	4323      	orrs	r3, r4
 8005bf2:	f002 4270 	and.w	r2, r2, #4026531840	@ 0xf0000000
 8005bf6:	433b      	orrs	r3, r7
 8005bf8:	4333      	orrs	r3, r6
 8005bfa:	432b      	orrs	r3, r5
 8005bfc:	4313      	orrs	r3, r2
 8005bfe:	6083      	str	r3, [r0, #8]
 8005c00:	2000      	movs	r0, #0
 8005c02:	bdf0      	pop	{r4, r5, r6, r7, pc}
 8005c04:	6882      	ldr	r2, [r0, #8]
 8005c06:	f422 0270 	bic.w	r2, r2, #15728640	@ 0xf00000
 8005c0a:	f422 4270 	bic.w	r2, r2, #61440	@ 0xf000
 8005c0e:	4313      	orrs	r3, r2
 8005c10:	6083      	str	r3, [r0, #8]
 8005c12:	ea44 0307 	orr.w	r3, r4, r7
 8005c16:	68c2      	ldr	r2, [r0, #12]
 8005c18:	430b      	orrs	r3, r1
 8005c1a:	f002 4270 	and.w	r2, r2, #4026531840	@ 0xf0000000
 8005c1e:	4333      	orrs	r3, r6
 8005c20:	432b      	orrs	r3, r5
 8005c22:	4313      	orrs	r3, r2
 8005c24:	60c3      	str	r3, [r0, #12]
 8005c26:	e7eb      	b.n	8005c00 <FMC_SDRAM_Timing_Init+0x44>

08005c28 <FMC_SDRAM_SendCommand>:
 8005c28:	b510      	push	{r4, lr}
 8005c2a:	e9d1 3400 	ldrd	r3, r4, [r1]
 8005c2e:	6902      	ldr	r2, [r0, #16]
 8005c30:	4323      	orrs	r3, r4
 8005c32:	68cc      	ldr	r4, [r1, #12]
 8005c34:	f36f 0215 	bfc	r2, #0, #22
 8005c38:	ea43 2344 	orr.w	r3, r3, r4, lsl #9
 8005c3c:	4313      	orrs	r3, r2
 8005c3e:	688a      	ldr	r2, [r1, #8]
 8005c40:	3a01      	subs	r2, #1
 8005c42:	ea43 1342 	orr.w	r3, r3, r2, lsl #5
 8005c46:	6103      	str	r3, [r0, #16]
 8005c48:	2000      	movs	r0, #0
 8005c4a:	bd10      	pop	{r4, pc}

08005c4c <FMC_SDRAM_ProgramRefreshRate>:
 8005c4c:	6943      	ldr	r3, [r0, #20]
 8005c4e:	f36f 034d 	bfc	r3, #1, #13
 8005c52:	ea43 0341 	orr.w	r3, r3, r1, lsl #1
 8005c56:	6143      	str	r3, [r0, #20]
 8005c58:	2000      	movs	r0, #0
 8005c5a:	4770      	bx	lr

08005c5c <USB_CoreReset>:
 8005c5c:	b082      	sub	sp, #8
 8005c5e:	2300      	movs	r3, #0
 8005c60:	4602      	mov	r2, r0
 8005c62:	9301      	str	r3, [sp, #4]
 8005c64:	9b01      	ldr	r3, [sp, #4]
 8005c66:	3301      	adds	r3, #1
 8005c68:	9301      	str	r3, [sp, #4]
 8005c6a:	9b01      	ldr	r3, [sp, #4]
 8005c6c:	f1b3 6f70 	cmp.w	r3, #251658240	@ 0xf000000
 8005c70:	d81a      	bhi.n	8005ca8 <USB_CoreReset+0x4c>
 8005c72:	6913      	ldr	r3, [r2, #16]
 8005c74:	2b00      	cmp	r3, #0
 8005c76:	daf5      	bge.n	8005c64 <USB_CoreReset+0x8>
 8005c78:	230a      	movs	r3, #10
 8005c7a:	9301      	str	r3, [sp, #4]
 8005c7c:	9b01      	ldr	r3, [sp, #4]
 8005c7e:	b983      	cbnz	r3, 8005ca2 <USB_CoreReset+0x46>
 8005c80:	6913      	ldr	r3, [r2, #16]
 8005c82:	f043 0301 	orr.w	r3, r3, #1
 8005c86:	6113      	str	r3, [r2, #16]
 8005c88:	9b01      	ldr	r3, [sp, #4]
 8005c8a:	3301      	adds	r3, #1
 8005c8c:	9301      	str	r3, [sp, #4]
 8005c8e:	9b01      	ldr	r3, [sp, #4]
 8005c90:	f1b3 6f70 	cmp.w	r3, #251658240	@ 0xf000000
 8005c94:	d808      	bhi.n	8005ca8 <USB_CoreReset+0x4c>
 8005c96:	6910      	ldr	r0, [r2, #16]
 8005c98:	f010 0001 	ands.w	r0, r0, #1
 8005c9c:	d1f4      	bne.n	8005c88 <USB_CoreReset+0x2c>
 8005c9e:	b002      	add	sp, #8
 8005ca0:	4770      	bx	lr
 8005ca2:	9b01      	ldr	r3, [sp, #4]
 8005ca4:	3b01      	subs	r3, #1
 8005ca6:	e7e8      	b.n	8005c7a <USB_CoreReset+0x1e>
 8005ca8:	2003      	movs	r0, #3
 8005caa:	e7f8      	b.n	8005c9e <USB_CoreReset+0x42>

08005cac <USB_CoreInit>:
 8005cac:	b084      	sub	sp, #16
 8005cae:	b537      	push	{r0, r1, r2, r4, r5, lr}
 8005cb0:	ad07      	add	r5, sp, #28
 8005cb2:	4604      	mov	r4, r0
 8005cb4:	e885 000e 	stmia.w	r5, {r1, r2, r3}
 8005cb8:	f89d 3021 	ldrb.w	r3, [sp, #33]	@ 0x21
 8005cbc:	f89d 5028 	ldrb.w	r5, [sp, #40]	@ 0x28
 8005cc0:	2b01      	cmp	r3, #1
 8005cc2:	d12b      	bne.n	8005d1c <USB_CoreInit+0x70>
 8005cc4:	6b83      	ldr	r3, [r0, #56]	@ 0x38
 8005cc6:	f423 3380 	bic.w	r3, r3, #65536	@ 0x10000
 8005cca:	6383      	str	r3, [r0, #56]	@ 0x38
 8005ccc:	68c3      	ldr	r3, [r0, #12]
 8005cce:	f423 0384 	bic.w	r3, r3, #4325376	@ 0x420000
 8005cd2:	f023 0340 	bic.w	r3, r3, #64	@ 0x40
 8005cd6:	60c3      	str	r3, [r0, #12]
 8005cd8:	68c3      	ldr	r3, [r0, #12]
 8005cda:	f043 0310 	orr.w	r3, r3, #16
 8005cde:	60c3      	str	r3, [r0, #12]
 8005ce0:	68c3      	ldr	r3, [r0, #12]
 8005ce2:	f423 1340 	bic.w	r3, r3, #3145728	@ 0x300000
 8005ce6:	60c3      	str	r3, [r0, #12]
 8005ce8:	2d01      	cmp	r5, #1
 8005cea:	d103      	bne.n	8005cf4 <USB_CoreInit+0x48>
 8005cec:	68e3      	ldr	r3, [r4, #12]
 8005cee:	f443 1380 	orr.w	r3, r3, #1048576	@ 0x100000
 8005cf2:	60e3      	str	r3, [r4, #12]
 8005cf4:	4620      	mov	r0, r4
 8005cf6:	f7ff ffb1 	bl	8005c5c <USB_CoreReset>
 8005cfa:	f89d 301e 	ldrb.w	r3, [sp, #30]
 8005cfe:	2b01      	cmp	r3, #1
 8005d00:	d107      	bne.n	8005d12 <USB_CoreInit+0x66>
 8005d02:	68a3      	ldr	r3, [r4, #8]
 8005d04:	f043 0306 	orr.w	r3, r3, #6
 8005d08:	60a3      	str	r3, [r4, #8]
 8005d0a:	68a3      	ldr	r3, [r4, #8]
 8005d0c:	f043 0320 	orr.w	r3, r3, #32
 8005d10:	60a3      	str	r3, [r4, #8]
 8005d12:	b003      	add	sp, #12
 8005d14:	e8bd 4030 	ldmia.w	sp!, {r4, r5, lr}
 8005d18:	b004      	add	sp, #16
 8005d1a:	4770      	bx	lr
 8005d1c:	2b03      	cmp	r3, #3
 8005d1e:	d138      	bne.n	8005d92 <USB_CoreInit+0xe6>
 8005d20:	6b83      	ldr	r3, [r0, #56]	@ 0x38
 8005d22:	f423 3380 	bic.w	r3, r3, #65536	@ 0x10000
 8005d26:	6383      	str	r3, [r0, #56]	@ 0x38
 8005d28:	68c3      	ldr	r3, [r0, #12]
 8005d2a:	f423 0384 	bic.w	r3, r3, #4325376	@ 0x420000
 8005d2e:	f023 0340 	bic.w	r3, r3, #64	@ 0x40
 8005d32:	60c3      	str	r3, [r0, #12]
 8005d34:	68c3      	ldr	r3, [r0, #12]
 8005d36:	f423 1340 	bic.w	r3, r3, #3145728	@ 0x300000
 8005d3a:	60c3      	str	r3, [r0, #12]
 8005d3c:	68c3      	ldr	r3, [r0, #12]
 8005d3e:	f023 0310 	bic.w	r3, r3, #16
 8005d42:	60c3      	str	r3, [r0, #12]
 8005d44:	6b83      	ldr	r3, [r0, #56]	@ 0x38
 8005d46:	f443 0300 	orr.w	r3, r3, #8388608	@ 0x800000
 8005d4a:	6383      	str	r3, [r0, #56]	@ 0x38
 8005d4c:	2300      	movs	r3, #0
 8005d4e:	9301      	str	r3, [sp, #4]
 8005d50:	4b15      	ldr	r3, [pc, #84]	@ (8005da8 <USB_CoreInit+0xfc>)
 8005d52:	699a      	ldr	r2, [r3, #24]
 8005d54:	f042 0204 	orr.w	r2, r2, #4
 8005d58:	619a      	str	r2, [r3, #24]
 8005d5a:	699a      	ldr	r2, [r3, #24]
 8005d5c:	0792      	lsls	r2, r2, #30
 8005d5e:	d50f      	bpl.n	8005d80 <USB_CoreInit+0xd4>
 8005d60:	220a      	movs	r2, #10
 8005d62:	2002      	movs	r0, #2
 8005d64:	601a      	str	r2, [r3, #0]
 8005d66:	68da      	ldr	r2, [r3, #12]
 8005d68:	f442 6271 	orr.w	r2, r2, #3856	@ 0xf10
 8005d6c:	f042 0203 	orr.w	r2, r2, #3
 8005d70:	60da      	str	r2, [r3, #12]
 8005d72:	681a      	ldr	r2, [r3, #0]
 8005d74:	f042 0201 	orr.w	r2, r2, #1
 8005d78:	601a      	str	r2, [r3, #0]
 8005d7a:	f7fc fb45 	bl	8002408 <HAL_Delay>
 8005d7e:	e7b3      	b.n	8005ce8 <USB_CoreInit+0x3c>
 8005d80:	9a01      	ldr	r2, [sp, #4]
 8005d82:	3201      	adds	r2, #1
 8005d84:	9201      	str	r2, [sp, #4]
 8005d86:	9a01      	ldr	r2, [sp, #4]
 8005d88:	f1b2 6f70 	cmp.w	r2, #251658240	@ 0xf000000
 8005d8c:	d9e5      	bls.n	8005d5a <USB_CoreInit+0xae>
 8005d8e:	2001      	movs	r0, #1
 8005d90:	e7bf      	b.n	8005d12 <USB_CoreInit+0x66>
 8005d92:	68c3      	ldr	r3, [r0, #12]
 8005d94:	f043 0340 	orr.w	r3, r3, #64	@ 0x40
 8005d98:	60c3      	str	r3, [r0, #12]
 8005d9a:	f7ff ff5f 	bl	8005c5c <USB_CoreReset>
 8005d9e:	6ba3      	ldr	r3, [r4, #56]	@ 0x38
 8005da0:	f443 3380 	orr.w	r3, r3, #65536	@ 0x10000
 8005da4:	63a3      	str	r3, [r4, #56]	@ 0x38
 8005da6:	e7a8      	b.n	8005cfa <USB_CoreInit+0x4e>
 8005da8:	40017c00 	.word	0x40017c00

08005dac <USB_SetTurnaroundTime>:
 8005dac:	2a02      	cmp	r2, #2
 8005dae:	d14a      	bne.n	8005e46 <USB_SetTurnaroundTime+0x9a>
 8005db0:	4b27      	ldr	r3, [pc, #156]	@ (8005e50 <USB_SetTurnaroundTime+0xa4>)
 8005db2:	4a28      	ldr	r2, [pc, #160]	@ (8005e54 <USB_SetTurnaroundTime+0xa8>)
 8005db4:	440b      	add	r3, r1
 8005db6:	4293      	cmp	r3, r2
 8005db8:	d939      	bls.n	8005e2e <USB_SetTurnaroundTime+0x82>
 8005dba:	4b27      	ldr	r3, [pc, #156]	@ (8005e58 <USB_SetTurnaroundTime+0xac>)
 8005dbc:	4a27      	ldr	r2, [pc, #156]	@ (8005e5c <USB_SetTurnaroundTime+0xb0>)
 8005dbe:	440b      	add	r3, r1
 8005dc0:	4293      	cmp	r3, r2
 8005dc2:	d936      	bls.n	8005e32 <USB_SetTurnaroundTime+0x86>
 8005dc4:	f5a1 0374 	sub.w	r3, r1, #15990784	@ 0xf40000
 8005dc8:	4a25      	ldr	r2, [pc, #148]	@ (8005e60 <USB_SetTurnaroundTime+0xb4>)
 8005dca:	f5a3 5310 	sub.w	r3, r3, #9216	@ 0x2400
 8005dce:	4293      	cmp	r3, r2
 8005dd0:	d931      	bls.n	8005e36 <USB_SetTurnaroundTime+0x8a>
 8005dd2:	f1a1 7383 	sub.w	r3, r1, #17170432	@ 0x1060000
 8005dd6:	4a23      	ldr	r2, [pc, #140]	@ (8005e64 <USB_SetTurnaroundTime+0xb8>)
 8005dd8:	f5a3 43e7 	sub.w	r3, r3, #29568	@ 0x7380
 8005ddc:	4293      	cmp	r3, r2
 8005dde:	d32c      	bcc.n	8005e3a <USB_SetTurnaroundTime+0x8e>
 8005de0:	4b21      	ldr	r3, [pc, #132]	@ (8005e68 <USB_SetTurnaroundTime+0xbc>)
 8005de2:	4a22      	ldr	r2, [pc, #136]	@ (8005e6c <USB_SetTurnaroundTime+0xc0>)
 8005de4:	440b      	add	r3, r1
 8005de6:	4293      	cmp	r3, r2
 8005de8:	d929      	bls.n	8005e3e <USB_SetTurnaroundTime+0x92>
 8005dea:	4b21      	ldr	r3, [pc, #132]	@ (8005e70 <USB_SetTurnaroundTime+0xc4>)
 8005dec:	4a21      	ldr	r2, [pc, #132]	@ (8005e74 <USB_SetTurnaroundTime+0xc8>)
 8005dee:	440b      	add	r3, r1
 8005df0:	4293      	cmp	r3, r2
 8005df2:	d326      	bcc.n	8005e42 <USB_SetTurnaroundTime+0x96>
 8005df4:	4b20      	ldr	r3, [pc, #128]	@ (8005e78 <USB_SetTurnaroundTime+0xcc>)
 8005df6:	4a21      	ldr	r2, [pc, #132]	@ (8005e7c <USB_SetTurnaroundTime+0xd0>)
 8005df8:	440b      	add	r3, r1
 8005dfa:	4293      	cmp	r3, r2
 8005dfc:	d323      	bcc.n	8005e46 <USB_SetTurnaroundTime+0x9a>
 8005dfe:	f1a1 73b7 	sub.w	r3, r1, #23986176	@ 0x16e0000
 8005e02:	4a1f      	ldr	r2, [pc, #124]	@ (8005e80 <USB_SetTurnaroundTime+0xd4>)
 8005e04:	f5a3 5358 	sub.w	r3, r3, #13824	@ 0x3600
 8005e08:	4293      	cmp	r3, r2
 8005e0a:	d31e      	bcc.n	8005e4a <USB_SetTurnaroundTime+0x9e>
 8005e0c:	4b1d      	ldr	r3, [pc, #116]	@ (8005e84 <USB_SetTurnaroundTime+0xd8>)
 8005e0e:	4a1e      	ldr	r2, [pc, #120]	@ (8005e88 <USB_SetTurnaroundTime+0xdc>)
 8005e10:	440b      	add	r3, r1
 8005e12:	4293      	cmp	r3, r2
 8005e14:	bf2c      	ite	cs
 8005e16:	2306      	movcs	r3, #6
 8005e18:	2307      	movcc	r3, #7
 8005e1a:	68c2      	ldr	r2, [r0, #12]
 8005e1c:	f422 5270 	bic.w	r2, r2, #15360	@ 0x3c00
 8005e20:	60c2      	str	r2, [r0, #12]
 8005e22:	68c2      	ldr	r2, [r0, #12]
 8005e24:	ea42 2383 	orr.w	r3, r2, r3, lsl #10
 8005e28:	60c3      	str	r3, [r0, #12]
 8005e2a:	2000      	movs	r0, #0
 8005e2c:	4770      	bx	lr
 8005e2e:	230f      	movs	r3, #15
 8005e30:	e7f3      	b.n	8005e1a <USB_SetTurnaroundTime+0x6e>
 8005e32:	230e      	movs	r3, #14
 8005e34:	e7f1      	b.n	8005e1a <USB_SetTurnaroundTime+0x6e>
 8005e36:	230d      	movs	r3, #13
 8005e38:	e7ef      	b.n	8005e1a <USB_SetTurnaroundTime+0x6e>
 8005e3a:	230c      	movs	r3, #12
 8005e3c:	e7ed      	b.n	8005e1a <USB_SetTurnaroundTime+0x6e>
 8005e3e:	230b      	movs	r3, #11
 8005e40:	e7eb      	b.n	8005e1a <USB_SetTurnaroundTime+0x6e>
 8005e42:	230a      	movs	r3, #10
 8005e44:	e7e9      	b.n	8005e1a <USB_SetTurnaroundTime+0x6e>
 8005e46:	2309      	movs	r3, #9
 8005e48:	e7e7      	b.n	8005e1a <USB_SetTurnaroundTime+0x6e>
 8005e4a:	2308      	movs	r3, #8
 8005e4c:	e7e5      	b.n	8005e1a <USB_SetTurnaroundTime+0x6e>
 8005e4e:	bf00      	nop
 8005e50:	ff275340 	.word	0xff275340
 8005e54:	000c34ff 	.word	0x000c34ff
 8005e58:	ff1b1e40 	.word	0xff1b1e40
 8005e5c:	000f423f 	.word	0x000f423f
 8005e60:	00124f7f 	.word	0x00124f7f
 8005e64:	0013d620 	.word	0x0013d620
 8005e68:	fee5b660 	.word	0xfee5b660
 8005e6c:	0016e35f 	.word	0x0016e35f
 8005e70:	feced300 	.word	0xfeced300
 8005e74:	001b7740 	.word	0x001b7740
 8005e78:	feb35bc0 	.word	0xfeb35bc0
 8005e7c:	002191c0 	.word	0x002191c0
 8005e80:	00387520 	.word	0x00387520
 8005e84:	fe5954e0 	.word	0xfe5954e0
 8005e88:	00419ce0 	.word	0x00419ce0

08005e8c <USB_EnableGlobalInt>:
 8005e8c:	6883      	ldr	r3, [r0, #8]
 8005e8e:	f043 0301 	orr.w	r3, r3, #1
 8005e92:	6083      	str	r3, [r0, #8]
 8005e94:	2000      	movs	r0, #0
 8005e96:	4770      	bx	lr

08005e98 <USB_DisableGlobalInt>:
 8005e98:	6883      	ldr	r3, [r0, #8]
 8005e9a:	f023 0301 	bic.w	r3, r3, #1
 8005e9e:	6083      	str	r3, [r0, #8]
 8005ea0:	2000      	movs	r0, #0
 8005ea2:	4770      	bx	lr

08005ea4 <USB_SetCurrentMode>:
 8005ea4:	b538      	push	{r3, r4, r5, lr}
 8005ea6:	68c3      	ldr	r3, [r0, #12]
 8005ea8:	2901      	cmp	r1, #1
 8005eaa:	4605      	mov	r5, r0
 8005eac:	460c      	mov	r4, r1
 8005eae:	f023 43c0 	bic.w	r3, r3, #1610612736	@ 0x60000000
 8005eb2:	60c3      	str	r3, [r0, #12]
 8005eb4:	d113      	bne.n	8005ede <USB_SetCurrentMode+0x3a>
 8005eb6:	68c3      	ldr	r3, [r0, #12]
 8005eb8:	2400      	movs	r4, #0
 8005eba:	f043 5300 	orr.w	r3, r3, #536870912	@ 0x20000000
 8005ebe:	60c3      	str	r3, [r0, #12]
 8005ec0:	200a      	movs	r0, #10
 8005ec2:	340a      	adds	r4, #10
 8005ec4:	f7fc faa0 	bl	8002408 <HAL_Delay>
 8005ec8:	696b      	ldr	r3, [r5, #20]
 8005eca:	07d9      	lsls	r1, r3, #31
 8005ecc:	d402      	bmi.n	8005ed4 <USB_SetCurrentMode+0x30>
 8005ece:	2cc8      	cmp	r4, #200	@ 0xc8
 8005ed0:	d1f6      	bne.n	8005ec0 <USB_SetCurrentMode+0x1c>
 8005ed2:	24c8      	movs	r4, #200	@ 0xc8
 8005ed4:	f1a4 03c8 	sub.w	r3, r4, #200	@ 0xc8
 8005ed8:	4258      	negs	r0, r3
 8005eda:	4158      	adcs	r0, r3
 8005edc:	bd38      	pop	{r3, r4, r5, pc}
 8005ede:	b969      	cbnz	r1, 8005efc <USB_SetCurrentMode+0x58>
 8005ee0:	68c3      	ldr	r3, [r0, #12]
 8005ee2:	f043 4380 	orr.w	r3, r3, #1073741824	@ 0x40000000
 8005ee6:	60c3      	str	r3, [r0, #12]
 8005ee8:	200a      	movs	r0, #10
 8005eea:	340a      	adds	r4, #10
 8005eec:	f7fc fa8c 	bl	8002408 <HAL_Delay>
 8005ef0:	696b      	ldr	r3, [r5, #20]
 8005ef2:	07da      	lsls	r2, r3, #31
 8005ef4:	d5ee      	bpl.n	8005ed4 <USB_SetCurrentMode+0x30>
 8005ef6:	2cc8      	cmp	r4, #200	@ 0xc8
 8005ef8:	d1f6      	bne.n	8005ee8 <USB_SetCurrentMode+0x44>
 8005efa:	e7ea      	b.n	8005ed2 <USB_SetCurrentMode+0x2e>
 8005efc:	2001      	movs	r0, #1
 8005efe:	e7ed      	b.n	8005edc <USB_SetCurrentMode+0x38>

08005f00 <USB_FlushTxFifo>:
 8005f00:	b082      	sub	sp, #8
 8005f02:	2300      	movs	r3, #0
 8005f04:	4602      	mov	r2, r0
 8005f06:	9301      	str	r3, [sp, #4]
 8005f08:	9b01      	ldr	r3, [sp, #4]
 8005f0a:	3301      	adds	r3, #1
 8005f0c:	9301      	str	r3, [sp, #4]
 8005f0e:	9b01      	ldr	r3, [sp, #4]
 8005f10:	f1b3 6f70 	cmp.w	r3, #251658240	@ 0xf000000
 8005f14:	d815      	bhi.n	8005f42 <USB_FlushTxFifo+0x42>
 8005f16:	6913      	ldr	r3, [r2, #16]
 8005f18:	2b00      	cmp	r3, #0
 8005f1a:	daf5      	bge.n	8005f08 <USB_FlushTxFifo+0x8>
 8005f1c:	0189      	lsls	r1, r1, #6
 8005f1e:	2300      	movs	r3, #0
 8005f20:	f041 0120 	orr.w	r1, r1, #32
 8005f24:	9301      	str	r3, [sp, #4]
 8005f26:	6111      	str	r1, [r2, #16]
 8005f28:	9b01      	ldr	r3, [sp, #4]
 8005f2a:	3301      	adds	r3, #1
 8005f2c:	9301      	str	r3, [sp, #4]
 8005f2e:	9b01      	ldr	r3, [sp, #4]
 8005f30:	f1b3 6f70 	cmp.w	r3, #251658240	@ 0xf000000
 8005f34:	d805      	bhi.n	8005f42 <USB_FlushTxFifo+0x42>
 8005f36:	6910      	ldr	r0, [r2, #16]
 8005f38:	f010 0020 	ands.w	r0, r0, #32
 8005f3c:	d1f4      	bne.n	8005f28 <USB_FlushTxFifo+0x28>
 8005f3e:	b002      	add	sp, #8
 8005f40:	4770      	bx	lr
 8005f42:	2003      	movs	r0, #3
 8005f44:	e7fb      	b.n	8005f3e <USB_FlushTxFifo+0x3e>

08005f46 <USB_FlushRxFifo>:
 8005f46:	b082      	sub	sp, #8
 8005f48:	2300      	movs	r3, #0
 8005f4a:	4602      	mov	r2, r0
 8005f4c:	9301      	str	r3, [sp, #4]
 8005f4e:	9b01      	ldr	r3, [sp, #4]
 8005f50:	3301      	adds	r3, #1
 8005f52:	9301      	str	r3, [sp, #4]
 8005f54:	9b01      	ldr	r3, [sp, #4]
 8005f56:	f1b3 6f70 	cmp.w	r3, #251658240	@ 0xf000000
 8005f5a:	d813      	bhi.n	8005f84 <USB_FlushRxFifo+0x3e>
 8005f5c:	6913      	ldr	r3, [r2, #16]
 8005f5e:	2b00      	cmp	r3, #0
 8005f60:	daf5      	bge.n	8005f4e <USB_FlushRxFifo+0x8>
 8005f62:	2300      	movs	r3, #0
 8005f64:	9301      	str	r3, [sp, #4]
 8005f66:	2310      	movs	r3, #16
 8005f68:	6113      	str	r3, [r2, #16]
 8005f6a:	9b01      	ldr	r3, [sp, #4]
 8005f6c:	3301      	adds	r3, #1
 8005f6e:	9301      	str	r3, [sp, #4]
 8005f70:	9b01      	ldr	r3, [sp, #4]
 8005f72:	f1b3 6f70 	cmp.w	r3, #251658240	@ 0xf000000
 8005f76:	d805      	bhi.n	8005f84 <USB_FlushRxFifo+0x3e>
 8005f78:	6910      	ldr	r0, [r2, #16]
 8005f7a:	f010 0010 	ands.w	r0, r0, #16
 8005f7e:	d1f4      	bne.n	8005f6a <USB_FlushRxFifo+0x24>
 8005f80:	b002      	add	sp, #8
 8005f82:	4770      	bx	lr
 8005f84:	2003      	movs	r0, #3
 8005f86:	e7fb      	b.n	8005f80 <USB_FlushRxFifo+0x3a>

08005f88 <USB_SetDevSpeed>:
 8005f88:	f8d0 3800 	ldr.w	r3, [r0, #2048]	@ 0x800
 8005f8c:	4319      	orrs	r1, r3
 8005f8e:	f8c0 1800 	str.w	r1, [r0, #2048]	@ 0x800
 8005f92:	2000      	movs	r0, #0
 8005f94:	4770      	bx	lr
	...

08005f98 <USB_DevInit>:
 8005f98:	b084      	sub	sp, #16
 8005f9a:	e92d 43f8 	stmdb	sp!, {r3, r4, r5, r6, r7, r8, r9, lr}
 8005f9e:	4604      	mov	r4, r0
 8005fa0:	a809      	add	r0, sp, #36	@ 0x24
 8005fa2:	e880 000e 	stmia.w	r0, {r1, r2, r3}
 8005fa6:	2300      	movs	r3, #0
 8005fa8:	f89d 6024 	ldrb.w	r6, [sp, #36]	@ 0x24
 8005fac:	f89d 2027 	ldrb.w	r2, [sp, #39]	@ 0x27
 8005fb0:	f89d 1029 	ldrb.w	r1, [sp, #41]	@ 0x29
 8005fb4:	461f      	mov	r7, r3
 8005fb6:	f89d 502e 	ldrb.w	r5, [sp, #46]	@ 0x2e
 8005fba:	f103 0040 	add.w	r0, r3, #64	@ 0x40
 8005fbe:	3301      	adds	r3, #1
 8005fc0:	eb04 0080 	add.w	r0, r4, r0, lsl #2
 8005fc4:	2b0f      	cmp	r3, #15
 8005fc6:	6047      	str	r7, [r0, #4]
 8005fc8:	d1f7      	bne.n	8005fba <USB_DevInit+0x22>
 8005fca:	f504 6700 	add.w	r7, r4, #2048	@ 0x800
 8005fce:	2d00      	cmp	r5, #0
 8005fd0:	d169      	bne.n	80060a6 <USB_DevInit+0x10e>
 8005fd2:	687b      	ldr	r3, [r7, #4]
 8005fd4:	f043 0302 	orr.w	r3, r3, #2
 8005fd8:	607b      	str	r3, [r7, #4]
 8005fda:	6ba3      	ldr	r3, [r4, #56]	@ 0x38
 8005fdc:	f423 1300 	bic.w	r3, r3, #2097152	@ 0x200000
 8005fe0:	63a3      	str	r3, [r4, #56]	@ 0x38
 8005fe2:	6823      	ldr	r3, [r4, #0]
 8005fe4:	f043 0340 	orr.w	r3, r3, #64	@ 0x40
 8005fe8:	6023      	str	r3, [r4, #0]
 8005fea:	6823      	ldr	r3, [r4, #0]
 8005fec:	f043 0380 	orr.w	r3, r3, #128	@ 0x80
 8005ff0:	6023      	str	r3, [r4, #0]
 8005ff2:	2300      	movs	r3, #0
 8005ff4:	2901      	cmp	r1, #1
 8005ff6:	f8c4 3e00 	str.w	r3, [r4, #3584]	@ 0xe00
 8005ffa:	d15b      	bne.n	80060b4 <USB_DevInit+0x11c>
 8005ffc:	2a00      	cmp	r2, #0
 8005ffe:	d157      	bne.n	80060b0 <USB_DevInit+0x118>
 8006000:	2100      	movs	r1, #0
 8006002:	4620      	mov	r0, r4
 8006004:	f64f 387f 	movw	r8, #64383	@ 0xfb7f
 8006008:	f7ff ffbe 	bl	8005f88 <USB_SetDevSpeed>
 800600c:	2110      	movs	r1, #16
 800600e:	4620      	mov	r0, r4
 8006010:	f7ff ff76 	bl	8005f00 <USB_FlushTxFifo>
 8006014:	4601      	mov	r1, r0
 8006016:	4620      	mov	r0, r4
 8006018:	f7ff ff95 	bl	8005f46 <USB_FlushRxFifo>
 800601c:	4308      	orrs	r0, r1
 800601e:	2300      	movs	r3, #0
 8006020:	f504 6210 	add.w	r2, r4, #2304	@ 0x900
 8006024:	b2c0      	uxtb	r0, r0
 8006026:	f04f 4c90 	mov.w	ip, #1207959552	@ 0x48000000
 800602a:	4619      	mov	r1, r3
 800602c:	f04f 6e00 	mov.w	lr, #134217728	@ 0x8000000
 8006030:	3800      	subs	r0, #0
 8006032:	613b      	str	r3, [r7, #16]
 8006034:	617b      	str	r3, [r7, #20]
 8006036:	bf18      	it	ne
 8006038:	2001      	movne	r0, #1
 800603a:	61fb      	str	r3, [r7, #28]
 800603c:	429e      	cmp	r6, r3
 800603e:	d83d      	bhi.n	80060bc <USB_DevInit+0x124>
 8006040:	2200      	movs	r2, #0
 8006042:	f504 6330 	add.w	r3, r4, #2816	@ 0xb00
 8006046:	f04f 4c90 	mov.w	ip, #1207959552	@ 0x48000000
 800604a:	f04f 6e00 	mov.w	lr, #134217728	@ 0x8000000
 800604e:	4611      	mov	r1, r2
 8006050:	f64f 387f 	movw	r8, #64383	@ 0xfb7f
 8006054:	4296      	cmp	r6, r2
 8006056:	d844      	bhi.n	80060e2 <USB_DevInit+0x14a>
 8006058:	693b      	ldr	r3, [r7, #16]
 800605a:	f423 7380 	bic.w	r3, r3, #256	@ 0x100
 800605e:	613b      	str	r3, [r7, #16]
 8006060:	2300      	movs	r3, #0
 8006062:	61a3      	str	r3, [r4, #24]
 8006064:	f06f 4380 	mvn.w	r3, #1073741824	@ 0x40000000
 8006068:	6163      	str	r3, [r4, #20]
 800606a:	f89d 3026 	ldrb.w	r3, [sp, #38]	@ 0x26
 800606e:	b91b      	cbnz	r3, 8006078 <USB_DevInit+0xe0>
 8006070:	69a3      	ldr	r3, [r4, #24]
 8006072:	f043 0310 	orr.w	r3, r3, #16
 8006076:	61a3      	str	r3, [r4, #24]
 8006078:	69a2      	ldr	r2, [r4, #24]
 800607a:	4b23      	ldr	r3, [pc, #140]	@ (8006108 <USB_DevInit+0x170>)
 800607c:	4313      	orrs	r3, r2
 800607e:	61a3      	str	r3, [r4, #24]
 8006080:	f89d 302a 	ldrb.w	r3, [sp, #42]	@ 0x2a
 8006084:	b11b      	cbz	r3, 800608e <USB_DevInit+0xf6>
 8006086:	69a3      	ldr	r3, [r4, #24]
 8006088:	f043 0308 	orr.w	r3, r3, #8
 800608c:	61a3      	str	r3, [r4, #24]
 800608e:	2d01      	cmp	r5, #1
 8006090:	d105      	bne.n	800609e <USB_DevInit+0x106>
 8006092:	69a3      	ldr	r3, [r4, #24]
 8006094:	f043 4380 	orr.w	r3, r3, #1073741824	@ 0x40000000
 8006098:	f043 0304 	orr.w	r3, r3, #4
 800609c:	61a3      	str	r3, [r4, #24]
 800609e:	e8bd 43f8 	ldmia.w	sp!, {r3, r4, r5, r6, r7, r8, r9, lr}
 80060a2:	b004      	add	sp, #16
 80060a4:	4770      	bx	lr
 80060a6:	6ba3      	ldr	r3, [r4, #56]	@ 0x38
 80060a8:	f443 1300 	orr.w	r3, r3, #2097152	@ 0x200000
 80060ac:	63a3      	str	r3, [r4, #56]	@ 0x38
 80060ae:	e7a0      	b.n	8005ff2 <USB_DevInit+0x5a>
 80060b0:	2101      	movs	r1, #1
 80060b2:	e7a6      	b.n	8006002 <USB_DevInit+0x6a>
 80060b4:	2903      	cmp	r1, #3
 80060b6:	d0a1      	beq.n	8005ffc <USB_DevInit+0x64>
 80060b8:	2103      	movs	r1, #3
 80060ba:	e7a2      	b.n	8006002 <USB_DevInit+0x6a>
 80060bc:	f8d2 9000 	ldr.w	r9, [r2]
 80060c0:	f1b9 0f00 	cmp.w	r9, #0
 80060c4:	da0b      	bge.n	80060de <USB_DevInit+0x146>
 80060c6:	b93b      	cbnz	r3, 80060d8 <USB_DevInit+0x140>
 80060c8:	f8c2 e000 	str.w	lr, [r2]
 80060cc:	6111      	str	r1, [r2, #16]
 80060ce:	3301      	adds	r3, #1
 80060d0:	f8c2 8008 	str.w	r8, [r2, #8]
 80060d4:	3220      	adds	r2, #32
 80060d6:	e7b1      	b.n	800603c <USB_DevInit+0xa4>
 80060d8:	f8c2 c000 	str.w	ip, [r2]
 80060dc:	e7f6      	b.n	80060cc <USB_DevInit+0x134>
 80060de:	6011      	str	r1, [r2, #0]
 80060e0:	e7f4      	b.n	80060cc <USB_DevInit+0x134>
 80060e2:	f8d3 9000 	ldr.w	r9, [r3]
 80060e6:	f1b9 0f00 	cmp.w	r9, #0
 80060ea:	da0b      	bge.n	8006104 <USB_DevInit+0x16c>
 80060ec:	b93a      	cbnz	r2, 80060fe <USB_DevInit+0x166>
 80060ee:	f8c3 e000 	str.w	lr, [r3]
 80060f2:	6119      	str	r1, [r3, #16]
 80060f4:	3201      	adds	r2, #1
 80060f6:	f8c3 8008 	str.w	r8, [r3, #8]
 80060fa:	3320      	adds	r3, #32
 80060fc:	e7aa      	b.n	8006054 <USB_DevInit+0xbc>
 80060fe:	f8c3 c000 	str.w	ip, [r3]
 8006102:	e7f6      	b.n	80060f2 <USB_DevInit+0x15a>
 8006104:	6019      	str	r1, [r3, #0]
 8006106:	e7f4      	b.n	80060f2 <USB_DevInit+0x15a>
 8006108:	803c3800 	.word	0x803c3800

0800610c <USB_GetDevSpeed>:
 800610c:	f8d0 3808 	ldr.w	r3, [r0, #2056]	@ 0x808
 8006110:	f013 0006 	ands.w	r0, r3, #6
 8006114:	d004      	beq.n	8006120 <USB_GetDevSpeed+0x14>
 8006116:	f013 0f02 	tst.w	r3, #2
 800611a:	bf14      	ite	ne
 800611c:	2002      	movne	r0, #2
 800611e:	200f      	moveq	r0, #15
 8006120:	4770      	bx	lr

08006122 <USB_ActivateEndpoint>:
 8006122:	b530      	push	{r4, r5, lr}
 8006124:	780c      	ldrb	r4, [r1, #0]
 8006126:	2201      	movs	r2, #1
 8006128:	f500 6300 	add.w	r3, r0, #2048	@ 0x800
 800612c:	f004 050f 	and.w	r5, r4, #15
 8006130:	eb00 1044 	add.w	r0, r0, r4, lsl #5
 8006134:	40aa      	lsls	r2, r5
 8006136:	784d      	ldrb	r5, [r1, #1]
 8006138:	2d01      	cmp	r5, #1
 800613a:	d119      	bne.n	8006170 <USB_ActivateEndpoint+0x4e>
 800613c:	69dd      	ldr	r5, [r3, #28]
 800613e:	432a      	orrs	r2, r5
 8006140:	61da      	str	r2, [r3, #28]
 8006142:	f8d0 3900 	ldr.w	r3, [r0, #2304]	@ 0x900
 8006146:	041a      	lsls	r2, r3, #16
 8006148:	d410      	bmi.n	800616c <USB_ActivateEndpoint+0x4a>
 800614a:	688a      	ldr	r2, [r1, #8]
 800614c:	f8d0 5900 	ldr.w	r5, [r0, #2304]	@ 0x900
 8006150:	f3c2 030a 	ubfx	r3, r2, #0, #11
 8006154:	790a      	ldrb	r2, [r1, #4]
 8006156:	432b      	orrs	r3, r5
 8006158:	ea43 4382 	orr.w	r3, r3, r2, lsl #18
 800615c:	ea43 5384 	orr.w	r3, r3, r4, lsl #22
 8006160:	f043 5380 	orr.w	r3, r3, #268435456	@ 0x10000000
 8006164:	f443 4300 	orr.w	r3, r3, #32768	@ 0x8000
 8006168:	f8c0 3900 	str.w	r3, [r0, #2304]	@ 0x900
 800616c:	2000      	movs	r0, #0
 800616e:	bd30      	pop	{r4, r5, pc}
 8006170:	69dc      	ldr	r4, [r3, #28]
 8006172:	ea44 4202 	orr.w	r2, r4, r2, lsl #16
 8006176:	61da      	str	r2, [r3, #28]
 8006178:	f8d0 3b00 	ldr.w	r3, [r0, #2816]	@ 0xb00
 800617c:	041b      	lsls	r3, r3, #16
 800617e:	d4f5      	bmi.n	800616c <USB_ActivateEndpoint+0x4a>
 8006180:	688b      	ldr	r3, [r1, #8]
 8006182:	f8d0 2b00 	ldr.w	r2, [r0, #2816]	@ 0xb00
 8006186:	f3c3 030a 	ubfx	r3, r3, #0, #11
 800618a:	4313      	orrs	r3, r2
 800618c:	790a      	ldrb	r2, [r1, #4]
 800618e:	ea43 4382 	orr.w	r3, r3, r2, lsl #18
 8006192:	f043 5380 	orr.w	r3, r3, #268435456	@ 0x10000000
 8006196:	f443 4300 	orr.w	r3, r3, #32768	@ 0x8000
 800619a:	f8c0 3b00 	str.w	r3, [r0, #2816]	@ 0xb00
 800619e:	e7e5      	b.n	800616c <USB_ActivateEndpoint+0x4a>

080061a0 <USB_DeactivateEndpoint>:
 80061a0:	b510      	push	{r4, lr}
 80061a2:	780a      	ldrb	r2, [r1, #0]
 80061a4:	7849      	ldrb	r1, [r1, #1]
 80061a6:	eb00 1342 	add.w	r3, r0, r2, lsl #5
 80061aa:	f500 6000 	add.w	r0, r0, #2048	@ 0x800
 80061ae:	2901      	cmp	r1, #1
 80061b0:	f002 020f 	and.w	r2, r2, #15
 80061b4:	d122      	bne.n	80061fc <USB_DeactivateEndpoint+0x5c>
 80061b6:	f8d3 1900 	ldr.w	r1, [r3, #2304]	@ 0x900
 80061ba:	2900      	cmp	r1, #0
 80061bc:	da0b      	bge.n	80061d6 <USB_DeactivateEndpoint+0x36>
 80061be:	f8d3 1900 	ldr.w	r1, [r3, #2304]	@ 0x900
 80061c2:	f041 6100 	orr.w	r1, r1, #134217728	@ 0x8000000
 80061c6:	f8c3 1900 	str.w	r1, [r3, #2304]	@ 0x900
 80061ca:	f8d3 1900 	ldr.w	r1, [r3, #2304]	@ 0x900
 80061ce:	f041 4180 	orr.w	r1, r1, #1073741824	@ 0x40000000
 80061d2:	f8c3 1900 	str.w	r1, [r3, #2304]	@ 0x900
 80061d6:	2101      	movs	r1, #1
 80061d8:	6bc4      	ldr	r4, [r0, #60]	@ 0x3c
 80061da:	fa01 f202 	lsl.w	r2, r1, r2
 80061de:	ea24 0402 	bic.w	r4, r4, r2
 80061e2:	63c4      	str	r4, [r0, #60]	@ 0x3c
 80061e4:	69c1      	ldr	r1, [r0, #28]
 80061e6:	ea21 0202 	bic.w	r2, r1, r2
 80061ea:	61c2      	str	r2, [r0, #28]
 80061ec:	4a15      	ldr	r2, [pc, #84]	@ (8006244 <USB_DeactivateEndpoint+0xa4>)
 80061ee:	f8d3 1900 	ldr.w	r1, [r3, #2304]	@ 0x900
 80061f2:	400a      	ands	r2, r1
 80061f4:	f8c3 2900 	str.w	r2, [r3, #2304]	@ 0x900
 80061f8:	2000      	movs	r0, #0
 80061fa:	bd10      	pop	{r4, pc}
 80061fc:	f8d3 1b00 	ldr.w	r1, [r3, #2816]	@ 0xb00
 8006200:	2900      	cmp	r1, #0
 8006202:	da0b      	bge.n	800621c <USB_DeactivateEndpoint+0x7c>
 8006204:	f8d3 1b00 	ldr.w	r1, [r3, #2816]	@ 0xb00
 8006208:	f041 6100 	orr.w	r1, r1, #134217728	@ 0x8000000
 800620c:	f8c3 1b00 	str.w	r1, [r3, #2816]	@ 0xb00
 8006210:	f8d3 1b00 	ldr.w	r1, [r3, #2816]	@ 0xb00
 8006214:	f041 4180 	orr.w	r1, r1, #1073741824	@ 0x40000000
 8006218:	f8c3 1b00 	str.w	r1, [r3, #2816]	@ 0xb00
 800621c:	f44f 3180 	mov.w	r1, #65536	@ 0x10000
 8006220:	6bc4      	ldr	r4, [r0, #60]	@ 0x3c
 8006222:	fa01 f202 	lsl.w	r2, r1, r2
 8006226:	ea24 0402 	bic.w	r4, r4, r2
 800622a:	63c4      	str	r4, [r0, #60]	@ 0x3c
 800622c:	69c1      	ldr	r1, [r0, #28]
 800622e:	ea21 0202 	bic.w	r2, r1, r2
 8006232:	61c2      	str	r2, [r0, #28]
 8006234:	4a04      	ldr	r2, [pc, #16]	@ (8006248 <USB_DeactivateEndpoint+0xa8>)
 8006236:	f8d3 1b00 	ldr.w	r1, [r3, #2816]	@ 0xb00
 800623a:	400a      	ands	r2, r1
 800623c:	f8c3 2b00 	str.w	r2, [r3, #2816]	@ 0xb00
 8006240:	e7da      	b.n	80061f8 <USB_DeactivateEndpoint+0x58>
 8006242:	bf00      	nop
 8006244:	ec337800 	.word	0xec337800
 8006248:	eff37800 	.word	0xeff37800

0800624c <USB_EPStopXfer>:
 800624c:	2300      	movs	r3, #0
 800624e:	b082      	sub	sp, #8
 8006250:	784a      	ldrb	r2, [r1, #1]
 8006252:	9301      	str	r3, [sp, #4]
 8006254:	2a01      	cmp	r2, #1
 8006256:	780b      	ldrb	r3, [r1, #0]
 8006258:	ea4f 1343 	mov.w	r3, r3, lsl #5
 800625c:	d11e      	bne.n	800629c <USB_EPStopXfer+0x50>
 800625e:	f500 6010 	add.w	r0, r0, #2304	@ 0x900
 8006262:	58c2      	ldr	r2, [r0, r3]
 8006264:	18c1      	adds	r1, r0, r3
 8006266:	2a00      	cmp	r2, #0
 8006268:	db02      	blt.n	8006270 <USB_EPStopXfer+0x24>
 800626a:	2000      	movs	r0, #0
 800626c:	b002      	add	sp, #8
 800626e:	4770      	bx	lr
 8006270:	58c2      	ldr	r2, [r0, r3]
 8006272:	f042 6200 	orr.w	r2, r2, #134217728	@ 0x8000000
 8006276:	50c2      	str	r2, [r0, r3]
 8006278:	58c2      	ldr	r2, [r0, r3]
 800627a:	f042 4280 	orr.w	r2, r2, #1073741824	@ 0x40000000
 800627e:	50c2      	str	r2, [r0, r3]
 8006280:	f242 7210 	movw	r2, #10000	@ 0x2710
 8006284:	9b01      	ldr	r3, [sp, #4]
 8006286:	3301      	adds	r3, #1
 8006288:	9301      	str	r3, [sp, #4]
 800628a:	9b01      	ldr	r3, [sp, #4]
 800628c:	4293      	cmp	r3, r2
 800628e:	d901      	bls.n	8006294 <USB_EPStopXfer+0x48>
 8006290:	2001      	movs	r0, #1
 8006292:	e7eb      	b.n	800626c <USB_EPStopXfer+0x20>
 8006294:	680b      	ldr	r3, [r1, #0]
 8006296:	2b00      	cmp	r3, #0
 8006298:	dbf4      	blt.n	8006284 <USB_EPStopXfer+0x38>
 800629a:	e7e6      	b.n	800626a <USB_EPStopXfer+0x1e>
 800629c:	f500 6030 	add.w	r0, r0, #2816	@ 0xb00
 80062a0:	58c2      	ldr	r2, [r0, r3]
 80062a2:	18c1      	adds	r1, r0, r3
 80062a4:	2a00      	cmp	r2, #0
 80062a6:	dae0      	bge.n	800626a <USB_EPStopXfer+0x1e>
 80062a8:	58c2      	ldr	r2, [r0, r3]
 80062aa:	f042 6200 	orr.w	r2, r2, #134217728	@ 0x8000000
 80062ae:	50c2      	str	r2, [r0, r3]
 80062b0:	58c2      	ldr	r2, [r0, r3]
 80062b2:	f042 4280 	orr.w	r2, r2, #1073741824	@ 0x40000000
 80062b6:	50c2      	str	r2, [r0, r3]
 80062b8:	f242 7210 	movw	r2, #10000	@ 0x2710
 80062bc:	9b01      	ldr	r3, [sp, #4]
 80062be:	3301      	adds	r3, #1
 80062c0:	9301      	str	r3, [sp, #4]
 80062c2:	9b01      	ldr	r3, [sp, #4]
 80062c4:	4293      	cmp	r3, r2
 80062c6:	d8e3      	bhi.n	8006290 <USB_EPStopXfer+0x44>
 80062c8:	680b      	ldr	r3, [r1, #0]
 80062ca:	2b00      	cmp	r3, #0
 80062cc:	dbf6      	blt.n	80062bc <USB_EPStopXfer+0x70>
 80062ce:	e7cc      	b.n	800626a <USB_EPStopXfer+0x1e>

080062d0 <USB_WritePacket>:
 80062d0:	b510      	push	{r4, lr}
 80062d2:	f89d 4008 	ldrb.w	r4, [sp, #8]
 80062d6:	b944      	cbnz	r4, 80062ea <USB_WritePacket+0x1a>
 80062d8:	3303      	adds	r3, #3
 80062da:	3201      	adds	r2, #1
 80062dc:	089b      	lsrs	r3, r3, #2
 80062de:	eb00 3002 	add.w	r0, r0, r2, lsl #12
 80062e2:	eb01 0383 	add.w	r3, r1, r3, lsl #2
 80062e6:	4299      	cmp	r1, r3
 80062e8:	d101      	bne.n	80062ee <USB_WritePacket+0x1e>
 80062ea:	2000      	movs	r0, #0
 80062ec:	bd10      	pop	{r4, pc}
 80062ee:	f851 2b04 	ldr.w	r2, [r1], #4
 80062f2:	6002      	str	r2, [r0, #0]
 80062f4:	e7f7      	b.n	80062e6 <USB_WritePacket+0x16>
	...

080062f8 <USB_EPStartXfer>:
 80062f8:	e92d 41f3 	stmdb	sp!, {r0, r1, r4, r5, r6, r7, r8, lr}
 80062fc:	784b      	ldrb	r3, [r1, #1]
 80062fe:	4616      	mov	r6, r2
 8006300:	780a      	ldrb	r2, [r1, #0]
 8006302:	2b01      	cmp	r3, #1
 8006304:	690c      	ldr	r4, [r1, #16]
 8006306:	eb00 1542 	add.w	r5, r0, r2, lsl #5
 800630a:	790f      	ldrb	r7, [r1, #4]
 800630c:	f8df e1e4 	ldr.w	lr, [pc, #484]	@ 80064f4 <USB_EPStartXfer+0x1fc>
 8006310:	f8df 81e4 	ldr.w	r8, [pc, #484]	@ 80064f8 <USB_EPStartXfer+0x200>
 8006314:	f040 8098 	bne.w	8006448 <USB_EPStartXfer+0x150>
 8006318:	f505 6c10 	add.w	ip, r5, #2304	@ 0x900
 800631c:	f8dc 3010 	ldr.w	r3, [ip, #16]
 8006320:	bb74      	cbnz	r4, 8006380 <USB_EPStartXfer+0x88>
 8006322:	ea03 030e 	and.w	r3, r3, lr
 8006326:	f8cc 3010 	str.w	r3, [ip, #16]
 800632a:	f8dc 3010 	ldr.w	r3, [ip, #16]
 800632e:	f443 2300 	orr.w	r3, r3, #524288	@ 0x80000
 8006332:	f8cc 3010 	str.w	r3, [ip, #16]
 8006336:	f8dc 3010 	ldr.w	r3, [ip, #16]
 800633a:	ea03 0308 	and.w	r3, r3, r8
 800633e:	2e01      	cmp	r6, #1
 8006340:	f8cc 3010 	str.w	r3, [ip, #16]
 8006344:	d158      	bne.n	80063f8 <USB_EPStartXfer+0x100>
 8006346:	69cb      	ldr	r3, [r1, #28]
 8006348:	b10b      	cbz	r3, 800634e <USB_EPStartXfer+0x56>
 800634a:	f8cc 3014 	str.w	r3, [ip, #20]
 800634e:	2f01      	cmp	r7, #1
 8006350:	d10c      	bne.n	800636c <USB_EPStartXfer+0x74>
 8006352:	f8d0 3808 	ldr.w	r3, [r0, #2056]	@ 0x808
 8006356:	f413 7f80 	tst.w	r3, #256	@ 0x100
 800635a:	f8d5 3900 	ldr.w	r3, [r5, #2304]	@ 0x900
 800635e:	bf0c      	ite	eq
 8006360:	f043 5300 	orreq.w	r3, r3, #536870912	@ 0x20000000
 8006364:	f043 5380 	orrne.w	r3, r3, #268435456	@ 0x10000000
 8006368:	f8c5 3900 	str.w	r3, [r5, #2304]	@ 0x900
 800636c:	f8d5 3900 	ldr.w	r3, [r5, #2304]	@ 0x900
 8006370:	f043 4304 	orr.w	r3, r3, #2214592512	@ 0x84000000
 8006374:	f8c5 3900 	str.w	r3, [r5, #2304]	@ 0x900
 8006378:	2000      	movs	r0, #0
 800637a:	b002      	add	sp, #8
 800637c:	e8bd 81f0 	ldmia.w	sp!, {r4, r5, r6, r7, r8, pc}
 8006380:	ea03 0308 	and.w	r3, r3, r8
 8006384:	f8cc 3010 	str.w	r3, [ip, #16]
 8006388:	f8dc 3010 	ldr.w	r3, [ip, #16]
 800638c:	ea03 030e 	and.w	r3, r3, lr
 8006390:	f8cc 3010 	str.w	r3, [ip, #16]
 8006394:	688b      	ldr	r3, [r1, #8]
 8006396:	b97a      	cbnz	r2, 80063b8 <USB_EPStartXfer+0xc0>
 8006398:	42a3      	cmp	r3, r4
 800639a:	bf38      	it	cc
 800639c:	610b      	strcc	r3, [r1, #16]
 800639e:	f8dc 3010 	ldr.w	r3, [ip, #16]
 80063a2:	f443 2300 	orr.w	r3, r3, #524288	@ 0x80000
 80063a6:	f8cc 3010 	str.w	r3, [ip, #16]
 80063aa:	690b      	ldr	r3, [r1, #16]
 80063ac:	f8dc 4010 	ldr.w	r4, [ip, #16]
 80063b0:	f3c3 0312 	ubfx	r3, r3, #0, #19
 80063b4:	4323      	orrs	r3, r4
 80063b6:	e7c2      	b.n	800633e <USB_EPStartXfer+0x46>
 80063b8:	441c      	add	r4, r3
 80063ba:	f8dc e010 	ldr.w	lr, [ip, #16]
 80063be:	2f01      	cmp	r7, #1
 80063c0:	f104 34ff 	add.w	r4, r4, #4294967295	@ 0xffffffff
 80063c4:	fbb4 f4f3 	udiv	r4, r4, r3
 80063c8:	4b49      	ldr	r3, [pc, #292]	@ (80064f0 <USB_EPStartXfer+0x1f8>)
 80063ca:	fa1f f884 	uxth.w	r8, r4
 80063ce:	ea03 44c4 	and.w	r4, r3, r4, lsl #19
 80063d2:	ea44 040e 	orr.w	r4, r4, lr
 80063d6:	f8cc 4010 	str.w	r4, [ip, #16]
 80063da:	d1e6      	bne.n	80063aa <USB_EPStartXfer+0xb2>
 80063dc:	f8dc 3010 	ldr.w	r3, [ip, #16]
 80063e0:	f023 43c0 	bic.w	r3, r3, #1610612736	@ 0x60000000
 80063e4:	f8cc 3010 	str.w	r3, [ip, #16]
 80063e8:	ea4f 7348 	mov.w	r3, r8, lsl #29
 80063ec:	f8dc 4010 	ldr.w	r4, [ip, #16]
 80063f0:	f003 43c0 	and.w	r3, r3, #1610612736	@ 0x60000000
 80063f4:	4323      	orrs	r3, r4
 80063f6:	e7d6      	b.n	80063a6 <USB_EPStartXfer+0xae>
 80063f8:	f8d5 3900 	ldr.w	r3, [r5, #2304]	@ 0x900
 80063fc:	2f01      	cmp	r7, #1
 80063fe:	f043 4304 	orr.w	r3, r3, #2214592512	@ 0x84000000
 8006402:	f8c5 3900 	str.w	r3, [r5, #2304]	@ 0x900
 8006406:	690b      	ldr	r3, [r1, #16]
 8006408:	d00b      	beq.n	8006422 <USB_EPStartXfer+0x12a>
 800640a:	2b00      	cmp	r3, #0
 800640c:	d0b4      	beq.n	8006378 <USB_EPStartXfer+0x80>
 800640e:	f002 020f 	and.w	r2, r2, #15
 8006412:	2301      	movs	r3, #1
 8006414:	f8d0 1834 	ldr.w	r1, [r0, #2100]	@ 0x834
 8006418:	4093      	lsls	r3, r2
 800641a:	430b      	orrs	r3, r1
 800641c:	f8c0 3834 	str.w	r3, [r0, #2100]	@ 0x834
 8006420:	e7aa      	b.n	8006378 <USB_EPStartXfer+0x80>
 8006422:	f8d0 4808 	ldr.w	r4, [r0, #2056]	@ 0x808
 8006426:	b29b      	uxth	r3, r3
 8006428:	f414 7f80 	tst.w	r4, #256	@ 0x100
 800642c:	f8d5 4900 	ldr.w	r4, [r5, #2304]	@ 0x900
 8006430:	bf0c      	ite	eq
 8006432:	f044 5400 	orreq.w	r4, r4, #536870912	@ 0x20000000
 8006436:	f044 5480 	orrne.w	r4, r4, #268435456	@ 0x10000000
 800643a:	f8c5 4900 	str.w	r4, [r5, #2304]	@ 0x900
 800643e:	9600      	str	r6, [sp, #0]
 8006440:	68c9      	ldr	r1, [r1, #12]
 8006442:	f7ff ff45 	bl	80062d0 <USB_WritePacket>
 8006446:	e797      	b.n	8006378 <USB_EPStartXfer+0x80>
 8006448:	f8d5 3b10 	ldr.w	r3, [r5, #2832]	@ 0xb10
 800644c:	f505 6c30 	add.w	ip, r5, #2816	@ 0xb00
 8006450:	ea03 0308 	and.w	r3, r3, r8
 8006454:	f8cc 3010 	str.w	r3, [ip, #16]
 8006458:	f8dc 3010 	ldr.w	r3, [ip, #16]
 800645c:	ea03 030e 	and.w	r3, r3, lr
 8006460:	f8cc 3010 	str.w	r3, [ip, #16]
 8006464:	688b      	ldr	r3, [r1, #8]
 8006466:	bb5a      	cbnz	r2, 80064c0 <USB_EPStartXfer+0x1c8>
 8006468:	b104      	cbz	r4, 800646c <USB_EPStartXfer+0x174>
 800646a:	610b      	str	r3, [r1, #16]
 800646c:	620b      	str	r3, [r1, #32]
 800646e:	f8dc 2010 	ldr.w	r2, [ip, #16]
 8006472:	f3c3 0312 	ubfx	r3, r3, #0, #19
 8006476:	4313      	orrs	r3, r2
 8006478:	f8cc 3010 	str.w	r3, [ip, #16]
 800647c:	f8dc 3010 	ldr.w	r3, [ip, #16]
 8006480:	f443 2300 	orr.w	r3, r3, #524288	@ 0x80000
 8006484:	2e01      	cmp	r6, #1
 8006486:	f8cc 3010 	str.w	r3, [ip, #16]
 800648a:	d103      	bne.n	8006494 <USB_EPStartXfer+0x19c>
 800648c:	68cb      	ldr	r3, [r1, #12]
 800648e:	b10b      	cbz	r3, 8006494 <USB_EPStartXfer+0x19c>
 8006490:	f8cc 3014 	str.w	r3, [ip, #20]
 8006494:	2f01      	cmp	r7, #1
 8006496:	d10c      	bne.n	80064b2 <USB_EPStartXfer+0x1ba>
 8006498:	f8d0 3808 	ldr.w	r3, [r0, #2056]	@ 0x808
 800649c:	f413 7f80 	tst.w	r3, #256	@ 0x100
 80064a0:	f8d5 3b00 	ldr.w	r3, [r5, #2816]	@ 0xb00
 80064a4:	bf0c      	ite	eq
 80064a6:	f043 5300 	orreq.w	r3, r3, #536870912	@ 0x20000000
 80064aa:	f043 5380 	orrne.w	r3, r3, #268435456	@ 0x10000000
 80064ae:	f8c5 3b00 	str.w	r3, [r5, #2816]	@ 0xb00
 80064b2:	f8d5 3b00 	ldr.w	r3, [r5, #2816]	@ 0xb00
 80064b6:	f043 4304 	orr.w	r3, r3, #2214592512	@ 0x84000000
 80064ba:	f8c5 3b00 	str.w	r3, [r5, #2816]	@ 0xb00
 80064be:	e75b      	b.n	8006378 <USB_EPStartXfer+0x80>
 80064c0:	2c00      	cmp	r4, #0
 80064c2:	d0d4      	beq.n	800646e <USB_EPStartXfer+0x176>
 80064c4:	441c      	add	r4, r3
 80064c6:	4a0a      	ldr	r2, [pc, #40]	@ (80064f0 <USB_EPStartXfer+0x1f8>)
 80064c8:	f8dc e010 	ldr.w	lr, [ip, #16]
 80064cc:	3c01      	subs	r4, #1
 80064ce:	fbb4 f4f3 	udiv	r4, r4, r3
 80064d2:	b2a4      	uxth	r4, r4
 80064d4:	ea02 42c4 	and.w	r2, r2, r4, lsl #19
 80064d8:	4363      	muls	r3, r4
 80064da:	ea42 020e 	orr.w	r2, r2, lr
 80064de:	620b      	str	r3, [r1, #32]
 80064e0:	f3c3 0312 	ubfx	r3, r3, #0, #19
 80064e4:	f8cc 2010 	str.w	r2, [ip, #16]
 80064e8:	f8dc 2010 	ldr.w	r2, [ip, #16]
 80064ec:	4313      	orrs	r3, r2
 80064ee:	e7c9      	b.n	8006484 <USB_EPStartXfer+0x18c>
 80064f0:	1ff80000 	.word	0x1ff80000
 80064f4:	e007ffff 	.word	0xe007ffff
 80064f8:	fff80000 	.word	0xfff80000

080064fc <USB_ReadPacket>:
 80064fc:	4603      	mov	r3, r0
 80064fe:	2000      	movs	r0, #0
 8006500:	b570      	push	{r4, r5, r6, lr}
 8006502:	0894      	lsrs	r4, r2, #2
 8006504:	f503 5580 	add.w	r5, r3, #4096	@ 0x1000
 8006508:	f002 0203 	and.w	r2, r2, #3
 800650c:	42a0      	cmp	r0, r4
 800650e:	d310      	bcc.n	8006532 <USB_ReadPacket+0x36>
 8006510:	eb01 0084 	add.w	r0, r1, r4, lsl #2
 8006514:	b162      	cbz	r2, 8006530 <USB_ReadPacket+0x34>
 8006516:	f503 5380 	add.w	r3, r3, #4096	@ 0x1000
 800651a:	681c      	ldr	r4, [r3, #0]
 800651c:	2300      	movs	r3, #0
 800651e:	00d9      	lsls	r1, r3, #3
 8006520:	fa24 f101 	lsr.w	r1, r4, r1
 8006524:	54c1      	strb	r1, [r0, r3]
 8006526:	3301      	adds	r3, #1
 8006528:	b299      	uxth	r1, r3
 800652a:	428a      	cmp	r2, r1
 800652c:	d1f7      	bne.n	800651e <USB_ReadPacket+0x22>
 800652e:	4410      	add	r0, r2
 8006530:	bd70      	pop	{r4, r5, r6, pc}
 8006532:	682e      	ldr	r6, [r5, #0]
 8006534:	f841 6020 	str.w	r6, [r1, r0, lsl #2]
 8006538:	3001      	adds	r0, #1
 800653a:	e7e7      	b.n	800650c <USB_ReadPacket+0x10>

0800653c <USB_EPSetStall>:
 800653c:	784a      	ldrb	r2, [r1, #1]
 800653e:	780b      	ldrb	r3, [r1, #0]
 8006540:	2a01      	cmp	r2, #1
 8006542:	eb00 1043 	add.w	r0, r0, r3, lsl #5
 8006546:	d112      	bne.n	800656e <USB_EPSetStall+0x32>
 8006548:	f8d0 2900 	ldr.w	r2, [r0, #2304]	@ 0x900
 800654c:	2a00      	cmp	r2, #0
 800654e:	db06      	blt.n	800655e <USB_EPSetStall+0x22>
 8006550:	b12b      	cbz	r3, 800655e <USB_EPSetStall+0x22>
 8006552:	f8d0 3900 	ldr.w	r3, [r0, #2304]	@ 0x900
 8006556:	f023 4380 	bic.w	r3, r3, #1073741824	@ 0x40000000
 800655a:	f8c0 3900 	str.w	r3, [r0, #2304]	@ 0x900
 800655e:	f8d0 3900 	ldr.w	r3, [r0, #2304]	@ 0x900
 8006562:	f443 1300 	orr.w	r3, r3, #2097152	@ 0x200000
 8006566:	f8c0 3900 	str.w	r3, [r0, #2304]	@ 0x900
 800656a:	2000      	movs	r0, #0
 800656c:	4770      	bx	lr
 800656e:	f8d0 2b00 	ldr.w	r2, [r0, #2816]	@ 0xb00
 8006572:	2a00      	cmp	r2, #0
 8006574:	db06      	blt.n	8006584 <USB_EPSetStall+0x48>
 8006576:	b12b      	cbz	r3, 8006584 <USB_EPSetStall+0x48>
 8006578:	f8d0 3b00 	ldr.w	r3, [r0, #2816]	@ 0xb00
 800657c:	f023 4380 	bic.w	r3, r3, #1073741824	@ 0x40000000
 8006580:	f8c0 3b00 	str.w	r3, [r0, #2816]	@ 0xb00
 8006584:	f8d0 3b00 	ldr.w	r3, [r0, #2816]	@ 0xb00
 8006588:	f443 1300 	orr.w	r3, r3, #2097152	@ 0x200000
 800658c:	f8c0 3b00 	str.w	r3, [r0, #2816]	@ 0xb00
 8006590:	e7eb      	b.n	800656a <USB_EPSetStall+0x2e>

08006592 <USB_EPClearStall>:
 8006592:	780b      	ldrb	r3, [r1, #0]
 8006594:	784a      	ldrb	r2, [r1, #1]
 8006596:	eb00 1043 	add.w	r0, r0, r3, lsl #5
 800659a:	790b      	ldrb	r3, [r1, #4]
 800659c:	2a01      	cmp	r2, #1
 800659e:	f1a3 0302 	sub.w	r3, r3, #2
 80065a2:	b2db      	uxtb	r3, r3
 80065a4:	d10f      	bne.n	80065c6 <USB_EPClearStall+0x34>
 80065a6:	f8d0 2900 	ldr.w	r2, [r0, #2304]	@ 0x900
 80065aa:	2b01      	cmp	r3, #1
 80065ac:	f422 1200 	bic.w	r2, r2, #2097152	@ 0x200000
 80065b0:	f8c0 2900 	str.w	r2, [r0, #2304]	@ 0x900
 80065b4:	d805      	bhi.n	80065c2 <USB_EPClearStall+0x30>
 80065b6:	f8d0 3900 	ldr.w	r3, [r0, #2304]	@ 0x900
 80065ba:	f043 5380 	orr.w	r3, r3, #268435456	@ 0x10000000
 80065be:	f8c0 3900 	str.w	r3, [r0, #2304]	@ 0x900
 80065c2:	2000      	movs	r0, #0
 80065c4:	4770      	bx	lr
 80065c6:	f8d0 2b00 	ldr.w	r2, [r0, #2816]	@ 0xb00
 80065ca:	2b01      	cmp	r3, #1
 80065cc:	f422 1200 	bic.w	r2, r2, #2097152	@ 0x200000
 80065d0:	f8c0 2b00 	str.w	r2, [r0, #2816]	@ 0xb00
 80065d4:	d8f5      	bhi.n	80065c2 <USB_EPClearStall+0x30>
 80065d6:	f8d0 3b00 	ldr.w	r3, [r0, #2816]	@ 0xb00
 80065da:	f043 5380 	orr.w	r3, r3, #268435456	@ 0x10000000
 80065de:	f8c0 3b00 	str.w	r3, [r0, #2816]	@ 0xb00
 80065e2:	e7ee      	b.n	80065c2 <USB_EPClearStall+0x30>

080065e4 <USB_SetDevAddress>:
 80065e4:	f8d0 3800 	ldr.w	r3, [r0, #2048]	@ 0x800
 80065e8:	0109      	lsls	r1, r1, #4
 80065ea:	f423 63fe 	bic.w	r3, r3, #2032	@ 0x7f0
 80065ee:	f401 61fe 	and.w	r1, r1, #2032	@ 0x7f0
 80065f2:	f8c0 3800 	str.w	r3, [r0, #2048]	@ 0x800
 80065f6:	f8d0 3800 	ldr.w	r3, [r0, #2048]	@ 0x800
 80065fa:	4319      	orrs	r1, r3
 80065fc:	f8c0 1800 	str.w	r1, [r0, #2048]	@ 0x800
 8006600:	2000      	movs	r0, #0
 8006602:	4770      	bx	lr

08006604 <USB_DevConnect>:
 8006604:	f8d0 3e00 	ldr.w	r3, [r0, #3584]	@ 0xe00
 8006608:	f023 0303 	bic.w	r3, r3, #3
 800660c:	f8c0 3e00 	str.w	r3, [r0, #3584]	@ 0xe00
 8006610:	f8d0 3804 	ldr.w	r3, [r0, #2052]	@ 0x804
 8006614:	f023 0302 	bic.w	r3, r3, #2
 8006618:	f8c0 3804 	str.w	r3, [r0, #2052]	@ 0x804
 800661c:	2000      	movs	r0, #0
 800661e:	4770      	bx	lr

08006620 <USB_DevDisconnect>:
 8006620:	f8d0 3e00 	ldr.w	r3, [r0, #3584]	@ 0xe00
 8006624:	f023 0303 	bic.w	r3, r3, #3
 8006628:	f8c0 3e00 	str.w	r3, [r0, #3584]	@ 0xe00
 800662c:	f8d0 3804 	ldr.w	r3, [r0, #2052]	@ 0x804
 8006630:	f043 0302 	orr.w	r3, r3, #2
 8006634:	f8c0 3804 	str.w	r3, [r0, #2052]	@ 0x804
 8006638:	2000      	movs	r0, #0
 800663a:	4770      	bx	lr

0800663c <USB_ReadInterrupts>:
 800663c:	6942      	ldr	r2, [r0, #20]
 800663e:	6980      	ldr	r0, [r0, #24]
 8006640:	4010      	ands	r0, r2
 8006642:	4770      	bx	lr

08006644 <USB_ReadDevAllOutEpInterrupt>:
 8006644:	f8d0 3818 	ldr.w	r3, [r0, #2072]	@ 0x818
 8006648:	f500 6000 	add.w	r0, r0, #2048	@ 0x800
 800664c:	69c0      	ldr	r0, [r0, #28]
 800664e:	4018      	ands	r0, r3
 8006650:	0c00      	lsrs	r0, r0, #16
 8006652:	4770      	bx	lr

08006654 <USB_ReadDevAllInEpInterrupt>:
 8006654:	f8d0 3818 	ldr.w	r3, [r0, #2072]	@ 0x818
 8006658:	f500 6000 	add.w	r0, r0, #2048	@ 0x800
 800665c:	69c0      	ldr	r0, [r0, #28]
 800665e:	4018      	ands	r0, r3
 8006660:	b280      	uxth	r0, r0
 8006662:	4770      	bx	lr

08006664 <USB_ReadDevOutEPInterrupt>:
 8006664:	eb00 1141 	add.w	r1, r0, r1, lsl #5
 8006668:	f500 6000 	add.w	r0, r0, #2048	@ 0x800
 800666c:	f8d1 2b08 	ldr.w	r2, [r1, #2824]	@ 0xb08
 8006670:	6940      	ldr	r0, [r0, #20]
 8006672:	4010      	ands	r0, r2
 8006674:	4770      	bx	lr

08006676 <USB_ReadDevInEPInterrupt>:
 8006676:	f8d0 2810 	ldr.w	r2, [r0, #2064]	@ 0x810
 800667a:	f8d0 3834 	ldr.w	r3, [r0, #2100]	@ 0x834
 800667e:	eb00 1041 	add.w	r0, r0, r1, lsl #5
 8006682:	f001 010f 	and.w	r1, r1, #15
 8006686:	f500 6010 	add.w	r0, r0, #2304	@ 0x900
 800668a:	40cb      	lsrs	r3, r1
 800668c:	6880      	ldr	r0, [r0, #8]
 800668e:	01db      	lsls	r3, r3, #7
 8006690:	b2db      	uxtb	r3, r3
 8006692:	4313      	orrs	r3, r2
 8006694:	4018      	ands	r0, r3
 8006696:	4770      	bx	lr

08006698 <USB_GetMode>:
 8006698:	6940      	ldr	r0, [r0, #20]
 800669a:	f000 0001 	and.w	r0, r0, #1
 800669e:	4770      	bx	lr

080066a0 <USB_ActivateSetup>:
 80066a0:	f8d0 3900 	ldr.w	r3, [r0, #2304]	@ 0x900
 80066a4:	f36f 030a 	bfc	r3, #0, #11
 80066a8:	f8c0 3900 	str.w	r3, [r0, #2304]	@ 0x900
 80066ac:	f8d0 3804 	ldr.w	r3, [r0, #2052]	@ 0x804
 80066b0:	f443 7380 	orr.w	r3, r3, #256	@ 0x100
 80066b4:	f8c0 3804 	str.w	r3, [r0, #2052]	@ 0x804
 80066b8:	2000      	movs	r0, #0
 80066ba:	4770      	bx	lr

080066bc <USB_EP0_OutStart>:
 80066bc:	b530      	push	{r4, r5, lr}
 80066be:	6c05      	ldr	r5, [r0, #64]	@ 0x40
 80066c0:	f500 6330 	add.w	r3, r0, #2816	@ 0xb00
 80066c4:	4c0f      	ldr	r4, [pc, #60]	@ (8006704 <USB_EP0_OutStart+0x48>)
 80066c6:	42a5      	cmp	r5, r4
 80066c8:	d903      	bls.n	80066d2 <USB_EP0_OutStart+0x16>
 80066ca:	f8d0 4b00 	ldr.w	r4, [r0, #2816]	@ 0xb00
 80066ce:	2c00      	cmp	r4, #0
 80066d0:	db16      	blt.n	8006700 <USB_EP0_OutStart+0x44>
 80066d2:	2400      	movs	r4, #0
 80066d4:	2901      	cmp	r1, #1
 80066d6:	611c      	str	r4, [r3, #16]
 80066d8:	691c      	ldr	r4, [r3, #16]
 80066da:	f444 2400 	orr.w	r4, r4, #524288	@ 0x80000
 80066de:	611c      	str	r4, [r3, #16]
 80066e0:	691c      	ldr	r4, [r3, #16]
 80066e2:	f044 0418 	orr.w	r4, r4, #24
 80066e6:	611c      	str	r4, [r3, #16]
 80066e8:	691c      	ldr	r4, [r3, #16]
 80066ea:	f044 44c0 	orr.w	r4, r4, #1610612736	@ 0x60000000
 80066ee:	611c      	str	r4, [r3, #16]
 80066f0:	d106      	bne.n	8006700 <USB_EP0_OutStart+0x44>
 80066f2:	615a      	str	r2, [r3, #20]
 80066f4:	f8d0 3b00 	ldr.w	r3, [r0, #2816]	@ 0xb00
 80066f8:	f043 2380 	orr.w	r3, r3, #2147516416	@ 0x80008000
 80066fc:	f8c0 3b00 	str.w	r3, [r0, #2816]	@ 0xb00
 8006700:	2000      	movs	r0, #0
 8006702:	bd30      	pop	{r4, r5, pc}
 8006704:	4f54300a 	.word	0x4f54300a

08006708 <USBD_CDC_EP0_RxReady>:
 8006708:	f8d0 32d4 	ldr.w	r3, [r0, #724]	@ 0x2d4
 800670c:	eb00 0083 	add.w	r0, r0, r3, lsl #2
 8006710:	b510      	push	{r4, lr}
 8006712:	f8d0 42c0 	ldr.w	r4, [r0, #704]	@ 0x2c0
 8006716:	b18c      	cbz	r4, 800673c <USBD_CDC_EP0_RxReady+0x34>
 8006718:	f8d0 32c4 	ldr.w	r3, [r0, #708]	@ 0x2c4
 800671c:	b11b      	cbz	r3, 8006726 <USBD_CDC_EP0_RxReady+0x1e>
 800671e:	f894 0200 	ldrb.w	r0, [r4, #512]	@ 0x200
 8006722:	28ff      	cmp	r0, #255	@ 0xff
 8006724:	d101      	bne.n	800672a <USBD_CDC_EP0_RxReady+0x22>
 8006726:	2000      	movs	r0, #0
 8006728:	bd10      	pop	{r4, pc}
 800672a:	689b      	ldr	r3, [r3, #8]
 800672c:	4621      	mov	r1, r4
 800672e:	f894 2201 	ldrb.w	r2, [r4, #513]	@ 0x201
 8006732:	4798      	blx	r3
 8006734:	23ff      	movs	r3, #255	@ 0xff
 8006736:	f884 3200 	strb.w	r3, [r4, #512]	@ 0x200
 800673a:	e7f4      	b.n	8006726 <USBD_CDC_EP0_RxReady+0x1e>
 800673c:	2003      	movs	r0, #3
 800673e:	e7f3      	b.n	8006728 <USBD_CDC_EP0_RxReady+0x20>

08006740 <USBD_CDC_GetDeviceQualifierDescriptor>:
 8006740:	230a      	movs	r3, #10
 8006742:	8003      	strh	r3, [r0, #0]
 8006744:	4800      	ldr	r0, [pc, #0]	@ (8006748 <USBD_CDC_GetDeviceQualifierDescriptor+0x8>)
 8006746:	4770      	bx	lr
 8006748:	200000a8 	.word	0x200000a8

0800674c <USBD_CDC_GetFSCfgDesc>:
 800674c:	b570      	push	{r4, r5, r6, lr}
 800674e:	2182      	movs	r1, #130	@ 0x82
 8006750:	4606      	mov	r6, r0
 8006752:	480f      	ldr	r0, [pc, #60]	@ (8006790 <USBD_CDC_GetFSCfgDesc+0x44>)
 8006754:	f000 fb85 	bl	8006e62 <USBD_GetEpDesc>
 8006758:	2101      	movs	r1, #1
 800675a:	4605      	mov	r5, r0
 800675c:	480c      	ldr	r0, [pc, #48]	@ (8006790 <USBD_CDC_GetFSCfgDesc+0x44>)
 800675e:	f000 fb80 	bl	8006e62 <USBD_GetEpDesc>
 8006762:	2181      	movs	r1, #129	@ 0x81
 8006764:	4604      	mov	r4, r0
 8006766:	480a      	ldr	r0, [pc, #40]	@ (8006790 <USBD_CDC_GetFSCfgDesc+0x44>)
 8006768:	f000 fb7b 	bl	8006e62 <USBD_GetEpDesc>
 800676c:	b10d      	cbz	r5, 8006772 <USBD_CDC_GetFSCfgDesc+0x26>
 800676e:	2210      	movs	r2, #16
 8006770:	71aa      	strb	r2, [r5, #6]
 8006772:	b11c      	cbz	r4, 800677c <USBD_CDC_GetFSCfgDesc+0x30>
 8006774:	2240      	movs	r2, #64	@ 0x40
 8006776:	7122      	strb	r2, [r4, #4]
 8006778:	2200      	movs	r2, #0
 800677a:	7162      	strb	r2, [r4, #5]
 800677c:	b118      	cbz	r0, 8006786 <USBD_CDC_GetFSCfgDesc+0x3a>
 800677e:	2240      	movs	r2, #64	@ 0x40
 8006780:	7102      	strb	r2, [r0, #4]
 8006782:	2200      	movs	r2, #0
 8006784:	7142      	strb	r2, [r0, #5]
 8006786:	2343      	movs	r3, #67	@ 0x43
 8006788:	4801      	ldr	r0, [pc, #4]	@ (8006790 <USBD_CDC_GetFSCfgDesc+0x44>)
 800678a:	8033      	strh	r3, [r6, #0]
 800678c:	bd70      	pop	{r4, r5, r6, pc}
 800678e:	bf00      	nop
 8006790:	2000002c 	.word	0x2000002c

08006794 <USBD_CDC_GetOtherSpeedCfgDesc>:
 8006794:	f7ff bfda 	b.w	800674c <USBD_CDC_GetFSCfgDesc>

08006798 <USBD_CDC_GetHSCfgDesc>:
 8006798:	b570      	push	{r4, r5, r6, lr}
 800679a:	2182      	movs	r1, #130	@ 0x82
 800679c:	4606      	mov	r6, r0
 800679e:	480f      	ldr	r0, [pc, #60]	@ (80067dc <USBD_CDC_GetHSCfgDesc+0x44>)
 80067a0:	f000 fb5f 	bl	8006e62 <USBD_GetEpDesc>
 80067a4:	2101      	movs	r1, #1
 80067a6:	4605      	mov	r5, r0
 80067a8:	480c      	ldr	r0, [pc, #48]	@ (80067dc <USBD_CDC_GetHSCfgDesc+0x44>)
 80067aa:	f000 fb5a 	bl	8006e62 <USBD_GetEpDesc>
 80067ae:	2181      	movs	r1, #129	@ 0x81
 80067b0:	4604      	mov	r4, r0
 80067b2:	480a      	ldr	r0, [pc, #40]	@ (80067dc <USBD_CDC_GetHSCfgDesc+0x44>)
 80067b4:	f000 fb55 	bl	8006e62 <USBD_GetEpDesc>
 80067b8:	b10d      	cbz	r5, 80067be <USBD_CDC_GetHSCfgDesc+0x26>
 80067ba:	2210      	movs	r2, #16
 80067bc:	71aa      	strb	r2, [r5, #6]
 80067be:	b11c      	cbz	r4, 80067c8 <USBD_CDC_GetHSCfgDesc+0x30>
 80067c0:	2200      	movs	r2, #0
 80067c2:	7122      	strb	r2, [r4, #4]
 80067c4:	2202      	movs	r2, #2
 80067c6:	7162      	strb	r2, [r4, #5]
 80067c8:	b118      	cbz	r0, 80067d2 <USBD_CDC_GetHSCfgDesc+0x3a>
 80067ca:	2200      	movs	r2, #0
 80067cc:	7102      	strb	r2, [r0, #4]
 80067ce:	2202      	movs	r2, #2
 80067d0:	7142      	strb	r2, [r0, #5]
 80067d2:	2343      	movs	r3, #67	@ 0x43
 80067d4:	4801      	ldr	r0, [pc, #4]	@ (80067dc <USBD_CDC_GetHSCfgDesc+0x44>)
 80067d6:	8033      	strh	r3, [r6, #0]
 80067d8:	bd70      	pop	{r4, r5, r6, pc}
 80067da:	bf00      	nop
 80067dc:	2000002c 	.word	0x2000002c

080067e0 <USBD_CDC_DataOut>:
 80067e0:	b538      	push	{r3, r4, r5, lr}
 80067e2:	f8d0 32d4 	ldr.w	r3, [r0, #724]	@ 0x2d4
 80067e6:	4604      	mov	r4, r0
 80067e8:	33b0      	adds	r3, #176	@ 0xb0
 80067ea:	f850 5023 	ldr.w	r5, [r0, r3, lsl #2]
 80067ee:	b18d      	cbz	r5, 8006814 <USBD_CDC_DataOut+0x34>
 80067f0:	f001 fd8e 	bl	8008310 <USBD_LL_GetRxDataSize>
 80067f4:	f8d4 32d4 	ldr.w	r3, [r4, #724]	@ 0x2d4
 80067f8:	f8c5 020c 	str.w	r0, [r5, #524]	@ 0x20c
 80067fc:	f505 7103 	add.w	r1, r5, #524	@ 0x20c
 8006800:	eb04 0483 	add.w	r4, r4, r3, lsl #2
 8006804:	f8d5 0204 	ldr.w	r0, [r5, #516]	@ 0x204
 8006808:	f8d4 32c4 	ldr.w	r3, [r4, #708]	@ 0x2c4
 800680c:	68db      	ldr	r3, [r3, #12]
 800680e:	4798      	blx	r3
 8006810:	2000      	movs	r0, #0
 8006812:	bd38      	pop	{r3, r4, r5, pc}
 8006814:	2003      	movs	r0, #3
 8006816:	e7fc      	b.n	8006812 <USBD_CDC_DataOut+0x32>

08006818 <USBD_CDC_DataIn>:
 8006818:	b5f8      	push	{r3, r4, r5, r6, r7, lr}
 800681a:	f8d0 62d4 	ldr.w	r6, [r0, #724]	@ 0x2d4
 800681e:	460a      	mov	r2, r1
 8006820:	f8d0 72c8 	ldr.w	r7, [r0, #712]	@ 0x2c8
 8006824:	eb00 0686 	add.w	r6, r0, r6, lsl #2
 8006828:	f8d6 52c0 	ldr.w	r5, [r6, #704]	@ 0x2c0
 800682c:	b325      	cbz	r5, 8006878 <USBD_CDC_DataIn+0x60>
 800682e:	f001 0c0f 	and.w	ip, r1, #15
 8006832:	2414      	movs	r4, #20
 8006834:	fb04 040c 	mla	r4, r4, ip, r0
 8006838:	6963      	ldr	r3, [r4, #20]
 800683a:	b17b      	cbz	r3, 800685c <USBD_CDC_DataIn+0x44>
 800683c:	f04f 0e24 	mov.w	lr, #36	@ 0x24
 8006840:	fb0e 770c 	mla	r7, lr, ip, r7
 8006844:	69ff      	ldr	r7, [r7, #28]
 8006846:	fbb3 fcf7 	udiv	ip, r3, r7
 800684a:	fb07 331c 	mls	r3, r7, ip, r3
 800684e:	b92b      	cbnz	r3, 800685c <USBD_CDC_DataIn+0x44>
 8006850:	461a      	mov	r2, r3
 8006852:	6163      	str	r3, [r4, #20]
 8006854:	f001 fdda 	bl	800840c <USBD_LL_Transmit>
 8006858:	2000      	movs	r0, #0
 800685a:	bdf8      	pop	{r3, r4, r5, r6, r7, pc}
 800685c:	2300      	movs	r3, #0
 800685e:	f8c5 3214 	str.w	r3, [r5, #532]	@ 0x214
 8006862:	f8d6 32c4 	ldr.w	r3, [r6, #708]	@ 0x2c4
 8006866:	691b      	ldr	r3, [r3, #16]
 8006868:	2b00      	cmp	r3, #0
 800686a:	d0f5      	beq.n	8006858 <USBD_CDC_DataIn+0x40>
 800686c:	f505 7104 	add.w	r1, r5, #528	@ 0x210
 8006870:	f8d5 0208 	ldr.w	r0, [r5, #520]	@ 0x208
 8006874:	4798      	blx	r3
 8006876:	e7ef      	b.n	8006858 <USBD_CDC_DataIn+0x40>
 8006878:	2003      	movs	r0, #3
 800687a:	e7ee      	b.n	800685a <USBD_CDC_DataIn+0x42>

0800687c <USBD_CDC_Setup>:
 800687c:	f8d0 32d4 	ldr.w	r3, [r0, #724]	@ 0x2d4
 8006880:	eb00 0383 	add.w	r3, r0, r3, lsl #2
 8006884:	b5f7      	push	{r0, r1, r2, r4, r5, r6, r7, lr}
 8006886:	2200      	movs	r2, #0
 8006888:	f8d3 62c0 	ldr.w	r6, [r3, #704]	@ 0x2c0
 800688c:	4604      	mov	r4, r0
 800688e:	460d      	mov	r5, r1
 8006890:	f88d 2005 	strb.w	r2, [sp, #5]
 8006894:	f8ad 2006 	strh.w	r2, [sp, #6]
 8006898:	2e00      	cmp	r6, #0
 800689a:	d065      	beq.n	8006968 <USBD_CDC_Setup+0xec>
 800689c:	f891 c000 	ldrb.w	ip, [r1]
 80068a0:	f01c 0260 	ands.w	r2, ip, #96	@ 0x60
 80068a4:	d029      	beq.n	80068fa <USBD_CDC_Setup+0x7e>
 80068a6:	2a20      	cmp	r2, #32
 80068a8:	d15a      	bne.n	8006960 <USBD_CDC_Setup+0xe4>
 80068aa:	88ca      	ldrh	r2, [r1, #6]
 80068ac:	784f      	ldrb	r7, [r1, #1]
 80068ae:	b1f2      	cbz	r2, 80068ee <USBD_CDC_Setup+0x72>
 80068b0:	f01c 0f80 	tst.w	ip, #128	@ 0x80
 80068b4:	d00e      	beq.n	80068d4 <USBD_CDC_Setup+0x58>
 80068b6:	f8d3 32c4 	ldr.w	r3, [r3, #708]	@ 0x2c4
 80068ba:	4631      	mov	r1, r6
 80068bc:	4638      	mov	r0, r7
 80068be:	689b      	ldr	r3, [r3, #8]
 80068c0:	4798      	blx	r3
 80068c2:	88ea      	ldrh	r2, [r5, #6]
 80068c4:	4631      	mov	r1, r6
 80068c6:	2a07      	cmp	r2, #7
 80068c8:	bf28      	it	cs
 80068ca:	2207      	movcs	r2, #7
 80068cc:	4620      	mov	r0, r4
 80068ce:	f000 fd65 	bl	800739c <USBD_CtlSendData>
 80068d2:	e009      	b.n	80068e8 <USBD_CDC_Setup+0x6c>
 80068d4:	2a40      	cmp	r2, #64	@ 0x40
 80068d6:	4631      	mov	r1, r6
 80068d8:	f886 7200 	strb.w	r7, [r6, #512]	@ 0x200
 80068dc:	bf28      	it	cs
 80068de:	2240      	movcs	r2, #64	@ 0x40
 80068e0:	f886 2201 	strb.w	r2, [r6, #513]	@ 0x201
 80068e4:	f000 fd70 	bl	80073c8 <USBD_CtlPrepareRx>
 80068e8:	2000      	movs	r0, #0
 80068ea:	b003      	add	sp, #12
 80068ec:	bdf0      	pop	{r4, r5, r6, r7, pc}
 80068ee:	f8d3 32c4 	ldr.w	r3, [r3, #708]	@ 0x2c4
 80068f2:	4638      	mov	r0, r7
 80068f4:	689b      	ldr	r3, [r3, #8]
 80068f6:	4798      	blx	r3
 80068f8:	e7f6      	b.n	80068e8 <USBD_CDC_Setup+0x6c>
 80068fa:	784b      	ldrb	r3, [r1, #1]
 80068fc:	2b0b      	cmp	r3, #11
 80068fe:	d82f      	bhi.n	8006960 <USBD_CDC_Setup+0xe4>
 8006900:	a201      	add	r2, pc, #4	@ (adr r2, 8006908 <USBD_CDC_Setup+0x8c>)
 8006902:	f852 f023 	ldr.w	pc, [r2, r3, lsl #2]
 8006906:	bf00      	nop
 8006908:	08006939 	.word	0x08006939
 800690c:	080068e9 	.word	0x080068e9
 8006910:	08006961 	.word	0x08006961
 8006914:	08006961 	.word	0x08006961
 8006918:	08006961 	.word	0x08006961
 800691c:	08006961 	.word	0x08006961
 8006920:	08006961 	.word	0x08006961
 8006924:	08006961 	.word	0x08006961
 8006928:	08006961 	.word	0x08006961
 800692c:	08006961 	.word	0x08006961
 8006930:	08006949 	.word	0x08006949
 8006934:	08006959 	.word	0x08006959
 8006938:	f890 329c 	ldrb.w	r3, [r0, #668]	@ 0x29c
 800693c:	2b03      	cmp	r3, #3
 800693e:	d10f      	bne.n	8006960 <USBD_CDC_Setup+0xe4>
 8006940:	2202      	movs	r2, #2
 8006942:	f10d 0106 	add.w	r1, sp, #6
 8006946:	e7c1      	b.n	80068cc <USBD_CDC_Setup+0x50>
 8006948:	f890 329c 	ldrb.w	r3, [r0, #668]	@ 0x29c
 800694c:	2b03      	cmp	r3, #3
 800694e:	d107      	bne.n	8006960 <USBD_CDC_Setup+0xe4>
 8006950:	2201      	movs	r2, #1
 8006952:	f10d 0105 	add.w	r1, sp, #5
 8006956:	e7b9      	b.n	80068cc <USBD_CDC_Setup+0x50>
 8006958:	f890 329c 	ldrb.w	r3, [r0, #668]	@ 0x29c
 800695c:	2b03      	cmp	r3, #3
 800695e:	d0c3      	beq.n	80068e8 <USBD_CDC_Setup+0x6c>
 8006960:	4629      	mov	r1, r5
 8006962:	4620      	mov	r0, r4
 8006964:	f000 fcf3 	bl	800734e <USBD_CtlError>
 8006968:	2003      	movs	r0, #3
 800696a:	e7be      	b.n	80068ea <USBD_CDC_Setup+0x6e>

0800696c <USBD_CDC_DeInit>:
 800696c:	b538      	push	{r3, r4, r5, lr}
 800696e:	4604      	mov	r4, r0
 8006970:	2500      	movs	r5, #0
 8006972:	2181      	movs	r1, #129	@ 0x81
 8006974:	f001 fd1d 	bl	80083b2 <USBD_LL_CloseEP>
 8006978:	2101      	movs	r1, #1
 800697a:	4620      	mov	r0, r4
 800697c:	f884 5037 	strb.w	r5, [r4, #55]	@ 0x37
 8006980:	f001 fd17 	bl	80083b2 <USBD_LL_CloseEP>
 8006984:	2182      	movs	r1, #130	@ 0x82
 8006986:	4620      	mov	r0, r4
 8006988:	f884 5177 	strb.w	r5, [r4, #375]	@ 0x177
 800698c:	f001 fd11 	bl	80083b2 <USBD_LL_CloseEP>
 8006990:	f8d4 32d4 	ldr.w	r3, [r4, #724]	@ 0x2d4
 8006994:	f884 504b 	strb.w	r5, [r4, #75]	@ 0x4b
 8006998:	eb04 0383 	add.w	r3, r4, r3, lsl #2
 800699c:	6465      	str	r5, [r4, #68]	@ 0x44
 800699e:	f8d3 22c0 	ldr.w	r2, [r3, #704]	@ 0x2c0
 80069a2:	b18a      	cbz	r2, 80069c8 <USBD_CDC_DeInit+0x5c>
 80069a4:	f8d3 32c4 	ldr.w	r3, [r3, #708]	@ 0x2c4
 80069a8:	685b      	ldr	r3, [r3, #4]
 80069aa:	4798      	blx	r3
 80069ac:	f8d4 32d4 	ldr.w	r3, [r4, #724]	@ 0x2d4
 80069b0:	33b0      	adds	r3, #176	@ 0xb0
 80069b2:	f854 0023 	ldr.w	r0, [r4, r3, lsl #2]
 80069b6:	f001 fd43 	bl	8008440 <free>
 80069ba:	f8d4 32d4 	ldr.w	r3, [r4, #724]	@ 0x2d4
 80069be:	33b0      	adds	r3, #176	@ 0xb0
 80069c0:	f844 5023 	str.w	r5, [r4, r3, lsl #2]
 80069c4:	f8c4 52bc 	str.w	r5, [r4, #700]	@ 0x2bc
 80069c8:	2000      	movs	r0, #0
 80069ca:	bd38      	pop	{r3, r4, r5, pc}

080069cc <USBD_CDC_Init>:
 80069cc:	b5f8      	push	{r3, r4, r5, r6, r7, lr}
 80069ce:	4604      	mov	r4, r0
 80069d0:	f44f 7007 	mov.w	r0, #540	@ 0x21c
 80069d4:	f001 fd2c 	bl	8008430 <malloc>
 80069d8:	4605      	mov	r5, r0
 80069da:	b930      	cbnz	r0, 80069ea <USBD_CDC_Init+0x1e>
 80069dc:	f8d4 32d4 	ldr.w	r3, [r4, #724]	@ 0x2d4
 80069e0:	33b0      	adds	r3, #176	@ 0xb0
 80069e2:	f844 0023 	str.w	r0, [r4, r3, lsl #2]
 80069e6:	2002      	movs	r0, #2
 80069e8:	e046      	b.n	8006a78 <USBD_CDC_Init+0xac>
 80069ea:	f44f 7207 	mov.w	r2, #540	@ 0x21c
 80069ee:	2100      	movs	r1, #0
 80069f0:	f001 fe12 	bl	8008618 <memset>
 80069f4:	f8d4 32d4 	ldr.w	r3, [r4, #724]	@ 0x2d4
 80069f8:	33b0      	adds	r3, #176	@ 0xb0
 80069fa:	f844 5023 	str.w	r5, [r4, r3, lsl #2]
 80069fe:	7c23      	ldrb	r3, [r4, #16]
 8006a00:	f8c4 52bc 	str.w	r5, [r4, #700]	@ 0x2bc
 8006a04:	bbcb      	cbnz	r3, 8006a7a <USBD_CDC_Init+0xae>
 8006a06:	f44f 7300 	mov.w	r3, #512	@ 0x200
 8006a0a:	2181      	movs	r1, #129	@ 0x81
 8006a0c:	2202      	movs	r2, #2
 8006a0e:	4620      	mov	r0, r4
 8006a10:	f001 fcc3 	bl	800839a <USBD_LL_OpenEP>
 8006a14:	2101      	movs	r1, #1
 8006a16:	f44f 7300 	mov.w	r3, #512	@ 0x200
 8006a1a:	f884 1037 	strb.w	r1, [r4, #55]	@ 0x37
 8006a1e:	2202      	movs	r2, #2
 8006a20:	4620      	mov	r0, r4
 8006a22:	f001 fcba 	bl	800839a <USBD_LL_OpenEP>
 8006a26:	2601      	movs	r6, #1
 8006a28:	2310      	movs	r3, #16
 8006a2a:	2203      	movs	r2, #3
 8006a2c:	2182      	movs	r1, #130	@ 0x82
 8006a2e:	4620      	mov	r0, r4
 8006a30:	6463      	str	r3, [r4, #68]	@ 0x44
 8006a32:	2308      	movs	r3, #8
 8006a34:	f884 6177 	strb.w	r6, [r4, #375]	@ 0x177
 8006a38:	2700      	movs	r7, #0
 8006a3a:	f001 fcae 	bl	800839a <USBD_LL_OpenEP>
 8006a3e:	f8d4 32d4 	ldr.w	r3, [r4, #724]	@ 0x2d4
 8006a42:	f884 604b 	strb.w	r6, [r4, #75]	@ 0x4b
 8006a46:	eb04 0383 	add.w	r3, r4, r3, lsl #2
 8006a4a:	f8c5 7204 	str.w	r7, [r5, #516]	@ 0x204
 8006a4e:	f8d3 32c4 	ldr.w	r3, [r3, #708]	@ 0x2c4
 8006a52:	681b      	ldr	r3, [r3, #0]
 8006a54:	4798      	blx	r3
 8006a56:	f8d5 2204 	ldr.w	r2, [r5, #516]	@ 0x204
 8006a5a:	f8c5 7214 	str.w	r7, [r5, #532]	@ 0x214
 8006a5e:	f8c5 7218 	str.w	r7, [r5, #536]	@ 0x218
 8006a62:	2a00      	cmp	r2, #0
 8006a64:	d0bf      	beq.n	80069e6 <USBD_CDC_Init+0x1a>
 8006a66:	7c23      	ldrb	r3, [r4, #16]
 8006a68:	b993      	cbnz	r3, 8006a90 <USBD_CDC_Init+0xc4>
 8006a6a:	f44f 7300 	mov.w	r3, #512	@ 0x200
 8006a6e:	4631      	mov	r1, r6
 8006a70:	4620      	mov	r0, r4
 8006a72:	f001 fcd4 	bl	800841e <USBD_LL_PrepareReceive>
 8006a76:	2000      	movs	r0, #0
 8006a78:	bdf8      	pop	{r3, r4, r5, r6, r7, pc}
 8006a7a:	2340      	movs	r3, #64	@ 0x40
 8006a7c:	2181      	movs	r1, #129	@ 0x81
 8006a7e:	2202      	movs	r2, #2
 8006a80:	4620      	mov	r0, r4
 8006a82:	f001 fc8a 	bl	800839a <USBD_LL_OpenEP>
 8006a86:	2101      	movs	r1, #1
 8006a88:	2340      	movs	r3, #64	@ 0x40
 8006a8a:	f884 1037 	strb.w	r1, [r4, #55]	@ 0x37
 8006a8e:	e7c6      	b.n	8006a1e <USBD_CDC_Init+0x52>
 8006a90:	2340      	movs	r3, #64	@ 0x40
 8006a92:	e7ec      	b.n	8006a6e <USBD_CDC_Init+0xa2>

08006a94 <USBD_CDC_RegisterInterface>:
 8006a94:	b139      	cbz	r1, 8006aa6 <USBD_CDC_RegisterInterface+0x12>
 8006a96:	f8d0 32d4 	ldr.w	r3, [r0, #724]	@ 0x2d4
 8006a9a:	eb00 0083 	add.w	r0, r0, r3, lsl #2
 8006a9e:	f8c0 12c4 	str.w	r1, [r0, #708]	@ 0x2c4
 8006aa2:	2000      	movs	r0, #0
 8006aa4:	4770      	bx	lr
 8006aa6:	2003      	movs	r0, #3
 8006aa8:	4770      	bx	lr

08006aaa <USBD_CDC_SetTxBuffer>:
 8006aaa:	f8d0 32d4 	ldr.w	r3, [r0, #724]	@ 0x2d4
 8006aae:	33b0      	adds	r3, #176	@ 0xb0
 8006ab0:	f850 3023 	ldr.w	r3, [r0, r3, lsl #2]
 8006ab4:	b12b      	cbz	r3, 8006ac2 <USBD_CDC_SetTxBuffer+0x18>
 8006ab6:	2000      	movs	r0, #0
 8006ab8:	f8c3 1208 	str.w	r1, [r3, #520]	@ 0x208
 8006abc:	f8c3 2210 	str.w	r2, [r3, #528]	@ 0x210
 8006ac0:	4770      	bx	lr
 8006ac2:	2003      	movs	r0, #3
 8006ac4:	4770      	bx	lr

08006ac6 <USBD_CDC_SetRxBuffer>:
 8006ac6:	f8d0 32d4 	ldr.w	r3, [r0, #724]	@ 0x2d4
 8006aca:	33b0      	adds	r3, #176	@ 0xb0
 8006acc:	f850 3023 	ldr.w	r3, [r0, r3, lsl #2]
 8006ad0:	b11b      	cbz	r3, 8006ada <USBD_CDC_SetRxBuffer+0x14>
 8006ad2:	2000      	movs	r0, #0
 8006ad4:	f8c3 1204 	str.w	r1, [r3, #516]	@ 0x204
 8006ad8:	4770      	bx	lr
 8006ada:	2003      	movs	r0, #3
 8006adc:	4770      	bx	lr

08006ade <USBD_CDC_TransmitPacket>:
 8006ade:	f8d0 32d4 	ldr.w	r3, [r0, #724]	@ 0x2d4
 8006ae2:	33b0      	adds	r3, #176	@ 0xb0
 8006ae4:	f850 2023 	ldr.w	r2, [r0, r3, lsl #2]
 8006ae8:	b510      	push	{r4, lr}
 8006aea:	b17a      	cbz	r2, 8006b0c <USBD_CDC_TransmitPacket+0x2e>
 8006aec:	f8d2 4214 	ldr.w	r4, [r2, #532]	@ 0x214
 8006af0:	2301      	movs	r3, #1
 8006af2:	b96c      	cbnz	r4, 8006b10 <USBD_CDC_TransmitPacket+0x32>
 8006af4:	f8c2 3214 	str.w	r3, [r2, #532]	@ 0x214
 8006af8:	2181      	movs	r1, #129	@ 0x81
 8006afa:	f8d2 3210 	ldr.w	r3, [r2, #528]	@ 0x210
 8006afe:	f8d2 2208 	ldr.w	r2, [r2, #520]	@ 0x208
 8006b02:	6283      	str	r3, [r0, #40]	@ 0x28
 8006b04:	f001 fc82 	bl	800840c <USBD_LL_Transmit>
 8006b08:	4620      	mov	r0, r4
 8006b0a:	bd10      	pop	{r4, pc}
 8006b0c:	2003      	movs	r0, #3
 8006b0e:	e7fc      	b.n	8006b0a <USBD_CDC_TransmitPacket+0x2c>
 8006b10:	4618      	mov	r0, r3
 8006b12:	e7fa      	b.n	8006b0a <USBD_CDC_TransmitPacket+0x2c>

08006b14 <USBD_CDC_ReceivePacket>:
 8006b14:	f8d0 22d4 	ldr.w	r2, [r0, #724]	@ 0x2d4
 8006b18:	32b0      	adds	r2, #176	@ 0xb0
 8006b1a:	f850 2022 	ldr.w	r2, [r0, r2, lsl #2]
 8006b1e:	b508      	push	{r3, lr}
 8006b20:	b162      	cbz	r2, 8006b3c <USBD_CDC_ReceivePacket+0x28>
 8006b22:	7c03      	ldrb	r3, [r0, #16]
 8006b24:	f8d2 2204 	ldr.w	r2, [r2, #516]	@ 0x204
 8006b28:	b933      	cbnz	r3, 8006b38 <USBD_CDC_ReceivePacket+0x24>
 8006b2a:	f44f 7300 	mov.w	r3, #512	@ 0x200
 8006b2e:	2101      	movs	r1, #1
 8006b30:	f001 fc75 	bl	800841e <USBD_LL_PrepareReceive>
 8006b34:	2000      	movs	r0, #0
 8006b36:	bd08      	pop	{r3, pc}
 8006b38:	2340      	movs	r3, #64	@ 0x40
 8006b3a:	e7f8      	b.n	8006b2e <USBD_CDC_ReceivePacket+0x1a>
 8006b3c:	2003      	movs	r0, #3
 8006b3e:	e7fa      	b.n	8006b36 <USBD_CDC_ReceivePacket+0x22>

08006b40 <USBD_Init>:
 8006b40:	b178      	cbz	r0, 8006b62 <USBD_Init+0x22>
 8006b42:	2300      	movs	r3, #0
 8006b44:	f8c0 32b8 	str.w	r3, [r0, #696]	@ 0x2b8
 8006b48:	f8c0 32c4 	str.w	r3, [r0, #708]	@ 0x2c4
 8006b4c:	f8c0 32d0 	str.w	r3, [r0, #720]	@ 0x2d0
 8006b50:	b109      	cbz	r1, 8006b56 <USBD_Init+0x16>
 8006b52:	f8c0 12b4 	str.w	r1, [r0, #692]	@ 0x2b4
 8006b56:	2301      	movs	r3, #1
 8006b58:	7002      	strb	r2, [r0, #0]
 8006b5a:	f880 329c 	strb.w	r3, [r0, #668]	@ 0x29c
 8006b5e:	f001 bb93 	b.w	8008288 <USBD_LL_Init>
 8006b62:	2003      	movs	r0, #3
 8006b64:	4770      	bx	lr

08006b66 <USBD_RegisterClass>:
 8006b66:	2300      	movs	r3, #0
 8006b68:	b513      	push	{r0, r1, r4, lr}
 8006b6a:	4604      	mov	r4, r0
 8006b6c:	f8ad 3006 	strh.w	r3, [sp, #6]
 8006b70:	b181      	cbz	r1, 8006b94 <USBD_RegisterClass+0x2e>
 8006b72:	6acb      	ldr	r3, [r1, #44]	@ 0x2c
 8006b74:	f8c0 12b8 	str.w	r1, [r0, #696]	@ 0x2b8
 8006b78:	b123      	cbz	r3, 8006b84 <USBD_RegisterClass+0x1e>
 8006b7a:	f10d 0006 	add.w	r0, sp, #6
 8006b7e:	4798      	blx	r3
 8006b80:	f8c4 02d0 	str.w	r0, [r4, #720]	@ 0x2d0
 8006b84:	f8d4 32d8 	ldr.w	r3, [r4, #728]	@ 0x2d8
 8006b88:	2000      	movs	r0, #0
 8006b8a:	3301      	adds	r3, #1
 8006b8c:	f8c4 32d8 	str.w	r3, [r4, #728]	@ 0x2d8
 8006b90:	b002      	add	sp, #8
 8006b92:	bd10      	pop	{r4, pc}
 8006b94:	2003      	movs	r0, #3
 8006b96:	e7fb      	b.n	8006b90 <USBD_RegisterClass+0x2a>

08006b98 <USBD_Start>:
 8006b98:	f001 bbf6 	b.w	8008388 <USBD_LL_Start>

08006b9c <USBD_SetClassConfig>:
 8006b9c:	f8d0 32b8 	ldr.w	r3, [r0, #696]	@ 0x2b8
 8006ba0:	b10b      	cbz	r3, 8006ba6 <USBD_SetClassConfig+0xa>
 8006ba2:	681b      	ldr	r3, [r3, #0]
 8006ba4:	4718      	bx	r3
 8006ba6:	4618      	mov	r0, r3
 8006ba8:	4770      	bx	lr

08006baa <USBD_ClrClassConfig>:
 8006baa:	b508      	push	{r3, lr}
 8006bac:	f8d0 32b8 	ldr.w	r3, [r0, #696]	@ 0x2b8
 8006bb0:	685b      	ldr	r3, [r3, #4]
 8006bb2:	4798      	blx	r3
 8006bb4:	2800      	cmp	r0, #0
 8006bb6:	bf18      	it	ne
 8006bb8:	2003      	movne	r0, #3
 8006bba:	bd08      	pop	{r3, pc}

08006bbc <USBD_LL_SetupStage>:
 8006bbc:	b538      	push	{r3, r4, r5, lr}
 8006bbe:	f200 25aa 	addw	r5, r0, #682	@ 0x2aa
 8006bc2:	4604      	mov	r4, r0
 8006bc4:	4628      	mov	r0, r5
 8006bc6:	f000 fbb7 	bl	8007338 <USBD_ParseSetupRequest>
 8006bca:	2301      	movs	r3, #1
 8006bcc:	f894 12aa 	ldrb.w	r1, [r4, #682]	@ 0x2aa
 8006bd0:	f8c4 3294 	str.w	r3, [r4, #660]	@ 0x294
 8006bd4:	f8b4 32b0 	ldrh.w	r3, [r4, #688]	@ 0x2b0
 8006bd8:	f8c4 3298 	str.w	r3, [r4, #664]	@ 0x298
 8006bdc:	f001 031f 	and.w	r3, r1, #31
 8006be0:	2b01      	cmp	r3, #1
 8006be2:	d008      	beq.n	8006bf6 <USBD_LL_SetupStage+0x3a>
 8006be4:	2b02      	cmp	r3, #2
 8006be6:	d00c      	beq.n	8006c02 <USBD_LL_SetupStage+0x46>
 8006be8:	b98b      	cbnz	r3, 8006c0e <USBD_LL_SetupStage+0x52>
 8006bea:	4629      	mov	r1, r5
 8006bec:	4620      	mov	r0, r4
 8006bee:	e8bd 4038 	ldmia.w	sp!, {r3, r4, r5, lr}
 8006bf2:	f000 b953 	b.w	8006e9c <USBD_StdDevReq>
 8006bf6:	4629      	mov	r1, r5
 8006bf8:	4620      	mov	r0, r4
 8006bfa:	e8bd 4038 	ldmia.w	sp!, {r3, r4, r5, lr}
 8006bfe:	f000 bac5 	b.w	800718c <USBD_StdItfReq>
 8006c02:	4629      	mov	r1, r5
 8006c04:	4620      	mov	r0, r4
 8006c06:	e8bd 4038 	ldmia.w	sp!, {r3, r4, r5, lr}
 8006c0a:	f000 baee 	b.w	80071ea <USBD_StdEPReq>
 8006c0e:	4620      	mov	r0, r4
 8006c10:	f001 0180 	and.w	r1, r1, #128	@ 0x80
 8006c14:	e8bd 4038 	ldmia.w	sp!, {r3, r4, r5, lr}
 8006c18:	f001 bbdd 	b.w	80083d6 <USBD_LL_StallEP>

08006c1c <USBD_LL_DataOutStage>:
 8006c1c:	b570      	push	{r4, r5, r6, lr}
 8006c1e:	4604      	mov	r4, r0
 8006c20:	bb39      	cbnz	r1, 8006c72 <USBD_LL_DataOutStage+0x56>
 8006c22:	f8d0 3294 	ldr.w	r3, [r0, #660]	@ 0x294
 8006c26:	2b03      	cmp	r3, #3
 8006c28:	d112      	bne.n	8006c50 <USBD_LL_DataOutStage+0x34>
 8006c2a:	f8d0 3158 	ldr.w	r3, [r0, #344]	@ 0x158
 8006c2e:	f8b0 2160 	ldrh.w	r2, [r0, #352]	@ 0x160
 8006c32:	4293      	cmp	r3, r2
 8006c34:	d90e      	bls.n	8006c54 <USBD_LL_DataOutStage+0x38>
 8006c36:	1a9b      	subs	r3, r3, r2
 8006c38:	f8d0 1164 	ldr.w	r1, [r0, #356]	@ 0x164
 8006c3c:	429a      	cmp	r2, r3
 8006c3e:	4411      	add	r1, r2
 8006c40:	f8c0 3158 	str.w	r3, [r0, #344]	@ 0x158
 8006c44:	bf38      	it	cc
 8006c46:	461a      	movcc	r2, r3
 8006c48:	f8c0 1164 	str.w	r1, [r0, #356]	@ 0x164
 8006c4c:	f000 fbcd 	bl	80073ea <USBD_CtlContinueRx>
 8006c50:	2000      	movs	r0, #0
 8006c52:	bd70      	pop	{r4, r5, r6, pc}
 8006c54:	f890 329c 	ldrb.w	r3, [r0, #668]	@ 0x29c
 8006c58:	2b03      	cmp	r3, #3
 8006c5a:	d106      	bne.n	8006c6a <USBD_LL_DataOutStage+0x4e>
 8006c5c:	f8d0 32b8 	ldr.w	r3, [r0, #696]	@ 0x2b8
 8006c60:	691b      	ldr	r3, [r3, #16]
 8006c62:	b113      	cbz	r3, 8006c6a <USBD_LL_DataOutStage+0x4e>
 8006c64:	f8c0 12d4 	str.w	r1, [r0, #724]	@ 0x2d4
 8006c68:	4798      	blx	r3
 8006c6a:	4620      	mov	r0, r4
 8006c6c:	f000 fbc5 	bl	80073fa <USBD_CtlSendStatus>
 8006c70:	e7ee      	b.n	8006c50 <USBD_LL_DataOutStage+0x34>
 8006c72:	f890 329c 	ldrb.w	r3, [r0, #668]	@ 0x29c
 8006c76:	2b03      	cmp	r3, #3
 8006c78:	d1ea      	bne.n	8006c50 <USBD_LL_DataOutStage+0x34>
 8006c7a:	f8d0 32b8 	ldr.w	r3, [r0, #696]	@ 0x2b8
 8006c7e:	699b      	ldr	r3, [r3, #24]
 8006c80:	2b00      	cmp	r3, #0
 8006c82:	d0e5      	beq.n	8006c50 <USBD_LL_DataOutStage+0x34>
 8006c84:	2200      	movs	r2, #0
 8006c86:	e8bd 4070 	ldmia.w	sp!, {r4, r5, r6, lr}
 8006c8a:	f8c0 22d4 	str.w	r2, [r0, #724]	@ 0x2d4
 8006c8e:	4718      	bx	r3

08006c90 <USBD_LL_DataInStage>:
 8006c90:	b570      	push	{r4, r5, r6, lr}
 8006c92:	4604      	mov	r4, r0
 8006c94:	460d      	mov	r5, r1
 8006c96:	2900      	cmp	r1, #0
 8006c98:	d13f      	bne.n	8006d1a <USBD_LL_DataInStage+0x8a>
 8006c9a:	f8d0 3294 	ldr.w	r3, [r0, #660]	@ 0x294
 8006c9e:	2b02      	cmp	r3, #2
 8006ca0:	d110      	bne.n	8006cc4 <USBD_LL_DataInStage+0x34>
 8006ca2:	6982      	ldr	r2, [r0, #24]
 8006ca4:	8c03      	ldrh	r3, [r0, #32]
 8006ca6:	429a      	cmp	r2, r3
 8006ca8:	d914      	bls.n	8006cd4 <USBD_LL_DataInStage+0x44>
 8006caa:	6a41      	ldr	r1, [r0, #36]	@ 0x24
 8006cac:	1ad2      	subs	r2, r2, r3
 8006cae:	4419      	add	r1, r3
 8006cb0:	6182      	str	r2, [r0, #24]
 8006cb2:	6241      	str	r1, [r0, #36]	@ 0x24
 8006cb4:	f000 fb80 	bl	80073b8 <USBD_CtlContinueSendData>
 8006cb8:	462b      	mov	r3, r5
 8006cba:	462a      	mov	r2, r5
 8006cbc:	4629      	mov	r1, r5
 8006cbe:	4620      	mov	r0, r4
 8006cc0:	f001 fbad 	bl	800841e <USBD_LL_PrepareReceive>
 8006cc4:	f894 32a0 	ldrb.w	r3, [r4, #672]	@ 0x2a0
 8006cc8:	b113      	cbz	r3, 8006cd0 <USBD_LL_DataInStage+0x40>
 8006cca:	2300      	movs	r3, #0
 8006ccc:	f884 32a0 	strb.w	r3, [r4, #672]	@ 0x2a0
 8006cd0:	2000      	movs	r0, #0
 8006cd2:	bd70      	pop	{r4, r5, r6, pc}
 8006cd4:	d10c      	bne.n	8006cf0 <USBD_LL_DataInStage+0x60>
 8006cd6:	6943      	ldr	r3, [r0, #20]
 8006cd8:	429a      	cmp	r2, r3
 8006cda:	d809      	bhi.n	8006cf0 <USBD_LL_DataInStage+0x60>
 8006cdc:	f8d0 2298 	ldr.w	r2, [r0, #664]	@ 0x298
 8006ce0:	4293      	cmp	r3, r2
 8006ce2:	d205      	bcs.n	8006cf0 <USBD_LL_DataInStage+0x60>
 8006ce4:	460a      	mov	r2, r1
 8006ce6:	f000 fb67 	bl	80073b8 <USBD_CtlContinueSendData>
 8006cea:	f8c4 5298 	str.w	r5, [r4, #664]	@ 0x298
 8006cee:	e7e3      	b.n	8006cb8 <USBD_LL_DataInStage+0x28>
 8006cf0:	f894 329c 	ldrb.w	r3, [r4, #668]	@ 0x29c
 8006cf4:	2b03      	cmp	r3, #3
 8006cf6:	d108      	bne.n	8006d0a <USBD_LL_DataInStage+0x7a>
 8006cf8:	f8d4 32b8 	ldr.w	r3, [r4, #696]	@ 0x2b8
 8006cfc:	68db      	ldr	r3, [r3, #12]
 8006cfe:	b123      	cbz	r3, 8006d0a <USBD_LL_DataInStage+0x7a>
 8006d00:	2200      	movs	r2, #0
 8006d02:	4620      	mov	r0, r4
 8006d04:	f8c4 22d4 	str.w	r2, [r4, #724]	@ 0x2d4
 8006d08:	4798      	blx	r3
 8006d0a:	2180      	movs	r1, #128	@ 0x80
 8006d0c:	4620      	mov	r0, r4
 8006d0e:	f001 fb62 	bl	80083d6 <USBD_LL_StallEP>
 8006d12:	4620      	mov	r0, r4
 8006d14:	f000 fb7c 	bl	8007410 <USBD_CtlReceiveStatus>
 8006d18:	e7d4      	b.n	8006cc4 <USBD_LL_DataInStage+0x34>
 8006d1a:	f890 329c 	ldrb.w	r3, [r0, #668]	@ 0x29c
 8006d1e:	2b03      	cmp	r3, #3
 8006d20:	d1d6      	bne.n	8006cd0 <USBD_LL_DataInStage+0x40>
 8006d22:	f8d0 32b8 	ldr.w	r3, [r0, #696]	@ 0x2b8
 8006d26:	695b      	ldr	r3, [r3, #20]
 8006d28:	2b00      	cmp	r3, #0
 8006d2a:	d0d1      	beq.n	8006cd0 <USBD_LL_DataInStage+0x40>
 8006d2c:	2200      	movs	r2, #0
 8006d2e:	e8bd 4070 	ldmia.w	sp!, {r4, r5, r6, lr}
 8006d32:	f8c0 22d4 	str.w	r2, [r0, #724]	@ 0x2d4
 8006d36:	4718      	bx	r3

08006d38 <USBD_LL_Reset>:
 8006d38:	b5f8      	push	{r3, r4, r5, r6, r7, lr}
 8006d3a:	2301      	movs	r3, #1
 8006d3c:	2100      	movs	r1, #0
 8006d3e:	4604      	mov	r4, r0
 8006d40:	f880 329c 	strb.w	r3, [r0, #668]	@ 0x29c
 8006d44:	f8d0 32b8 	ldr.w	r3, [r0, #696]	@ 0x2b8
 8006d48:	f8c0 1294 	str.w	r1, [r0, #660]	@ 0x294
 8006d4c:	6041      	str	r1, [r0, #4]
 8006d4e:	f8c0 12a4 	str.w	r1, [r0, #676]	@ 0x2a4
 8006d52:	f880 12a0 	strb.w	r1, [r0, #672]	@ 0x2a0
 8006d56:	b9bb      	cbnz	r3, 8006d88 <USBD_LL_Reset+0x50>
 8006d58:	2600      	movs	r6, #0
 8006d5a:	2200      	movs	r2, #0
 8006d5c:	2540      	movs	r5, #64	@ 0x40
 8006d5e:	2701      	movs	r7, #1
 8006d60:	2340      	movs	r3, #64	@ 0x40
 8006d62:	4611      	mov	r1, r2
 8006d64:	4620      	mov	r0, r4
 8006d66:	f001 fb18 	bl	800839a <USBD_LL_OpenEP>
 8006d6a:	462b      	mov	r3, r5
 8006d6c:	2200      	movs	r2, #0
 8006d6e:	2180      	movs	r1, #128	@ 0x80
 8006d70:	4620      	mov	r0, r4
 8006d72:	f884 7163 	strb.w	r7, [r4, #355]	@ 0x163
 8006d76:	f8a4 5160 	strh.w	r5, [r4, #352]	@ 0x160
 8006d7a:	f001 fb0e 	bl	800839a <USBD_LL_OpenEP>
 8006d7e:	4630      	mov	r0, r6
 8006d80:	f884 7023 	strb.w	r7, [r4, #35]	@ 0x23
 8006d84:	8425      	strh	r5, [r4, #32]
 8006d86:	bdf8      	pop	{r3, r4, r5, r6, r7, pc}
 8006d88:	685b      	ldr	r3, [r3, #4]
 8006d8a:	2b00      	cmp	r3, #0
 8006d8c:	d0e4      	beq.n	8006d58 <USBD_LL_Reset+0x20>
 8006d8e:	4798      	blx	r3
 8006d90:	2800      	cmp	r0, #0
 8006d92:	d0e1      	beq.n	8006d58 <USBD_LL_Reset+0x20>
 8006d94:	2603      	movs	r6, #3
 8006d96:	e7e0      	b.n	8006d5a <USBD_LL_Reset+0x22>

08006d98 <USBD_LL_SetSpeed>:
 8006d98:	7401      	strb	r1, [r0, #16]
 8006d9a:	2000      	movs	r0, #0
 8006d9c:	4770      	bx	lr

08006d9e <USBD_LL_Suspend>:
 8006d9e:	f890 329c 	ldrb.w	r3, [r0, #668]	@ 0x29c
 8006da2:	2b04      	cmp	r3, #4
 8006da4:	d004      	beq.n	8006db0 <USBD_LL_Suspend+0x12>
 8006da6:	f890 329c 	ldrb.w	r3, [r0, #668]	@ 0x29c
 8006daa:	b2db      	uxtb	r3, r3
 8006dac:	f880 329d 	strb.w	r3, [r0, #669]	@ 0x29d
 8006db0:	2304      	movs	r3, #4
 8006db2:	f880 329c 	strb.w	r3, [r0, #668]	@ 0x29c
 8006db6:	2000      	movs	r0, #0
 8006db8:	4770      	bx	lr

08006dba <USBD_LL_Resume>:
 8006dba:	f890 329c 	ldrb.w	r3, [r0, #668]	@ 0x29c
 8006dbe:	2b04      	cmp	r3, #4
 8006dc0:	d104      	bne.n	8006dcc <USBD_LL_Resume+0x12>
 8006dc2:	f890 329d 	ldrb.w	r3, [r0, #669]	@ 0x29d
 8006dc6:	b2db      	uxtb	r3, r3
 8006dc8:	f880 329c 	strb.w	r3, [r0, #668]	@ 0x29c
 8006dcc:	2000      	movs	r0, #0
 8006dce:	4770      	bx	lr

08006dd0 <USBD_LL_SOF>:
 8006dd0:	b508      	push	{r3, lr}
 8006dd2:	f890 229c 	ldrb.w	r2, [r0, #668]	@ 0x29c
 8006dd6:	2a03      	cmp	r2, #3
 8006dd8:	d105      	bne.n	8006de6 <USBD_LL_SOF+0x16>
 8006dda:	f8d0 32b8 	ldr.w	r3, [r0, #696]	@ 0x2b8
 8006dde:	b113      	cbz	r3, 8006de6 <USBD_LL_SOF+0x16>
 8006de0:	69db      	ldr	r3, [r3, #28]
 8006de2:	b103      	cbz	r3, 8006de6 <USBD_LL_SOF+0x16>
 8006de4:	4798      	blx	r3
 8006de6:	2000      	movs	r0, #0
 8006de8:	bd08      	pop	{r3, pc}

08006dea <USBD_LL_IsoINIncomplete>:
 8006dea:	f8d0 22d4 	ldr.w	r2, [r0, #724]	@ 0x2d4
 8006dee:	32ae      	adds	r2, #174	@ 0xae
 8006df0:	f850 2022 	ldr.w	r2, [r0, r2, lsl #2]
 8006df4:	b508      	push	{r3, lr}
 8006df6:	b14a      	cbz	r2, 8006e0c <USBD_LL_IsoINIncomplete+0x22>
 8006df8:	f890 329c 	ldrb.w	r3, [r0, #668]	@ 0x29c
 8006dfc:	2b03      	cmp	r3, #3
 8006dfe:	d101      	bne.n	8006e04 <USBD_LL_IsoINIncomplete+0x1a>
 8006e00:	6a13      	ldr	r3, [r2, #32]
 8006e02:	b90b      	cbnz	r3, 8006e08 <USBD_LL_IsoINIncomplete+0x1e>
 8006e04:	2000      	movs	r0, #0
 8006e06:	bd08      	pop	{r3, pc}
 8006e08:	4798      	blx	r3
 8006e0a:	e7fb      	b.n	8006e04 <USBD_LL_IsoINIncomplete+0x1a>
 8006e0c:	2003      	movs	r0, #3
 8006e0e:	e7fa      	b.n	8006e06 <USBD_LL_IsoINIncomplete+0x1c>

08006e10 <USBD_LL_IsoOUTIncomplete>:
 8006e10:	f8d0 22d4 	ldr.w	r2, [r0, #724]	@ 0x2d4
 8006e14:	32ae      	adds	r2, #174	@ 0xae
 8006e16:	f850 2022 	ldr.w	r2, [r0, r2, lsl #2]
 8006e1a:	b508      	push	{r3, lr}
 8006e1c:	b14a      	cbz	r2, 8006e32 <USBD_LL_IsoOUTIncomplete+0x22>
 8006e1e:	f890 329c 	ldrb.w	r3, [r0, #668]	@ 0x29c
 8006e22:	2b03      	cmp	r3, #3
 8006e24:	d101      	bne.n	8006e2a <USBD_LL_IsoOUTIncomplete+0x1a>
 8006e26:	6a53      	ldr	r3, [r2, #36]	@ 0x24
 8006e28:	b90b      	cbnz	r3, 8006e2e <USBD_LL_IsoOUTIncomplete+0x1e>
 8006e2a:	2000      	movs	r0, #0
 8006e2c:	bd08      	pop	{r3, pc}
 8006e2e:	4798      	blx	r3
 8006e30:	e7fb      	b.n	8006e2a <USBD_LL_IsoOUTIncomplete+0x1a>
 8006e32:	2003      	movs	r0, #3
 8006e34:	e7fa      	b.n	8006e2c <USBD_LL_IsoOUTIncomplete+0x1c>

08006e36 <USBD_LL_DevConnected>:
 8006e36:	2000      	movs	r0, #0
 8006e38:	4770      	bx	lr

08006e3a <USBD_LL_DevDisconnected>:
 8006e3a:	2201      	movs	r2, #1
 8006e3c:	b508      	push	{r3, lr}
 8006e3e:	f880 229c 	strb.w	r2, [r0, #668]	@ 0x29c
 8006e42:	f8d0 22b8 	ldr.w	r2, [r0, #696]	@ 0x2b8
 8006e46:	b90a      	cbnz	r2, 8006e4c <USBD_LL_DevDisconnected+0x12>
 8006e48:	2000      	movs	r0, #0
 8006e4a:	bd08      	pop	{r3, pc}
 8006e4c:	6852      	ldr	r2, [r2, #4]
 8006e4e:	7901      	ldrb	r1, [r0, #4]
 8006e50:	4790      	blx	r2
 8006e52:	2800      	cmp	r0, #0
 8006e54:	d0f8      	beq.n	8006e48 <USBD_LL_DevDisconnected+0xe>
 8006e56:	2003      	movs	r0, #3
 8006e58:	e7f7      	b.n	8006e4a <USBD_LL_DevDisconnected+0x10>

08006e5a <USBD_CoreFindIF>:
 8006e5a:	2000      	movs	r0, #0
 8006e5c:	4770      	bx	lr

08006e5e <USBD_CoreFindEP>:
 8006e5e:	2000      	movs	r0, #0
 8006e60:	4770      	bx	lr

08006e62 <USBD_GetEpDesc>:
 8006e62:	b510      	push	{r4, lr}
 8006e64:	8842      	ldrh	r2, [r0, #2]
 8006e66:	7803      	ldrb	r3, [r0, #0]
 8006e68:	429a      	cmp	r2, r3
 8006e6a:	d801      	bhi.n	8006e70 <USBD_GetEpDesc+0xe>
 8006e6c:	2000      	movs	r0, #0
 8006e6e:	bd10      	pop	{r4, pc}
 8006e70:	7804      	ldrb	r4, [r0, #0]
 8006e72:	4420      	add	r0, r4
 8006e74:	4423      	add	r3, r4
 8006e76:	7844      	ldrb	r4, [r0, #1]
 8006e78:	b29b      	uxth	r3, r3
 8006e7a:	2c05      	cmp	r4, #5
 8006e7c:	d1f4      	bne.n	8006e68 <USBD_GetEpDesc+0x6>
 8006e7e:	7884      	ldrb	r4, [r0, #2]
 8006e80:	428c      	cmp	r4, r1
 8006e82:	d1f1      	bne.n	8006e68 <USBD_GetEpDesc+0x6>
 8006e84:	e7f3      	b.n	8006e6e <USBD_GetEpDesc+0xc>

08006e86 <USBD_CtlError.constprop.0>:
 8006e86:	b510      	push	{r4, lr}
 8006e88:	4604      	mov	r4, r0
 8006e8a:	2180      	movs	r1, #128	@ 0x80
 8006e8c:	f001 faa3 	bl	80083d6 <USBD_LL_StallEP>
 8006e90:	2100      	movs	r1, #0
 8006e92:	4620      	mov	r0, r4
 8006e94:	e8bd 4010 	ldmia.w	sp!, {r4, lr}
 8006e98:	f001 ba9d 	b.w	80083d6 <USBD_LL_StallEP>

08006e9c <USBD_StdDevReq>:
 8006e9c:	b573      	push	{r0, r1, r4, r5, r6, lr}
 8006e9e:	780b      	ldrb	r3, [r1, #0]
 8006ea0:	4604      	mov	r4, r0
 8006ea2:	460d      	mov	r5, r1
 8006ea4:	f003 0360 	and.w	r3, r3, #96	@ 0x60
 8006ea8:	2b20      	cmp	r3, #32
 8006eaa:	d009      	beq.n	8006ec0 <USBD_StdDevReq+0x24>
 8006eac:	2b40      	cmp	r3, #64	@ 0x40
 8006eae:	d007      	beq.n	8006ec0 <USBD_StdDevReq+0x24>
 8006eb0:	b193      	cbz	r3, 8006ed8 <USBD_StdDevReq+0x3c>
 8006eb2:	4620      	mov	r0, r4
 8006eb4:	f7ff ffe7 	bl	8006e86 <USBD_CtlError.constprop.0>
 8006eb8:	2500      	movs	r5, #0
 8006eba:	4628      	mov	r0, r5
 8006ebc:	b002      	add	sp, #8
 8006ebe:	bd70      	pop	{r4, r5, r6, pc}
 8006ec0:	f8d4 32d4 	ldr.w	r3, [r4, #724]	@ 0x2d4
 8006ec4:	4629      	mov	r1, r5
 8006ec6:	4620      	mov	r0, r4
 8006ec8:	33ae      	adds	r3, #174	@ 0xae
 8006eca:	f854 3023 	ldr.w	r3, [r4, r3, lsl #2]
 8006ece:	689b      	ldr	r3, [r3, #8]
 8006ed0:	b002      	add	sp, #8
 8006ed2:	e8bd 4070 	ldmia.w	sp!, {r4, r5, r6, lr}
 8006ed6:	4718      	bx	r3
 8006ed8:	784b      	ldrb	r3, [r1, #1]
 8006eda:	2b09      	cmp	r3, #9
 8006edc:	d8e9      	bhi.n	8006eb2 <USBD_StdDevReq+0x16>
 8006ede:	a201      	add	r2, pc, #4	@ (adr r2, 8006ee4 <USBD_StdDevReq+0x48>)
 8006ee0:	f852 f023 	ldr.w	pc, [r2, r3, lsl #2]
 8006ee4:	0800712d 	.word	0x0800712d
 8006ee8:	08007171 	.word	0x08007171
 8006eec:	08006eb3 	.word	0x08006eb3
 8006ef0:	08007155 	.word	0x08007155
 8006ef4:	08006eb3 	.word	0x08006eb3
 8006ef8:	08007027 	.word	0x08007027
 8006efc:	08006f0d 	.word	0x08006f0d
 8006f00:	08006eb3 	.word	0x08006eb3
 8006f04:	08007101 	.word	0x08007101
 8006f08:	08007069 	.word	0x08007069
 8006f0c:	2300      	movs	r3, #0
 8006f0e:	f8ad 3006 	strh.w	r3, [sp, #6]
 8006f12:	884b      	ldrh	r3, [r1, #2]
 8006f14:	0a1a      	lsrs	r2, r3, #8
 8006f16:	3a01      	subs	r2, #1
 8006f18:	2a0e      	cmp	r2, #14
 8006f1a:	d8ca      	bhi.n	8006eb2 <USBD_StdDevReq+0x16>
 8006f1c:	a101      	add	r1, pc, #4	@ (adr r1, 8006f24 <USBD_StdDevReq+0x88>)
 8006f1e:	f851 f022 	ldr.w	pc, [r1, r2, lsl #2]
 8006f22:	bf00      	nop
 8006f24:	08006f6b 	.word	0x08006f6b
 8006f28:	08006f9d 	.word	0x08006f9d
 8006f2c:	08006fb7 	.word	0x08006fb7
 8006f30:	08006eb3 	.word	0x08006eb3
 8006f34:	08006eb3 	.word	0x08006eb3
 8006f38:	08006ff9 	.word	0x08006ff9
 8006f3c:	0800700f 	.word	0x0800700f
 8006f40:	08006eb3 	.word	0x08006eb3
 8006f44:	08006eb3 	.word	0x08006eb3
 8006f48:	08006eb3 	.word	0x08006eb3
 8006f4c:	08006eb3 	.word	0x08006eb3
 8006f50:	08006eb3 	.word	0x08006eb3
 8006f54:	08006eb3 	.word	0x08006eb3
 8006f58:	08006eb3 	.word	0x08006eb3
 8006f5c:	08006f61 	.word	0x08006f61
 8006f60:	f8d0 32b4 	ldr.w	r3, [r0, #692]	@ 0x2b4
 8006f64:	69db      	ldr	r3, [r3, #28]
 8006f66:	b91b      	cbnz	r3, 8006f70 <USBD_StdDevReq+0xd4>
 8006f68:	e7a3      	b.n	8006eb2 <USBD_StdDevReq+0x16>
 8006f6a:	f8d0 32b4 	ldr.w	r3, [r0, #692]	@ 0x2b4
 8006f6e:	681b      	ldr	r3, [r3, #0]
 8006f70:	f10d 0106 	add.w	r1, sp, #6
 8006f74:	7c20      	ldrb	r0, [r4, #16]
 8006f76:	4798      	blx	r3
 8006f78:	88ea      	ldrh	r2, [r5, #6]
 8006f7a:	2a00      	cmp	r2, #0
 8006f7c:	f000 80a3 	beq.w	80070c6 <USBD_StdDevReq+0x22a>
 8006f80:	f8bd 3006 	ldrh.w	r3, [sp, #6]
 8006f84:	2b00      	cmp	r3, #0
 8006f86:	d094      	beq.n	8006eb2 <USBD_StdDevReq+0x16>
 8006f88:	429a      	cmp	r2, r3
 8006f8a:	4601      	mov	r1, r0
 8006f8c:	bf28      	it	cs
 8006f8e:	461a      	movcs	r2, r3
 8006f90:	f8ad 2006 	strh.w	r2, [sp, #6]
 8006f94:	4620      	mov	r0, r4
 8006f96:	f000 fa01 	bl	800739c <USBD_CtlSendData>
 8006f9a:	e78d      	b.n	8006eb8 <USBD_StdDevReq+0x1c>
 8006f9c:	7c02      	ldrb	r2, [r0, #16]
 8006f9e:	f8d0 32b8 	ldr.w	r3, [r0, #696]	@ 0x2b8
 8006fa2:	b932      	cbnz	r2, 8006fb2 <USBD_StdDevReq+0x116>
 8006fa4:	6a9b      	ldr	r3, [r3, #40]	@ 0x28
 8006fa6:	f10d 0006 	add.w	r0, sp, #6
 8006faa:	4798      	blx	r3
 8006fac:	2302      	movs	r3, #2
 8006fae:	7043      	strb	r3, [r0, #1]
 8006fb0:	e7e2      	b.n	8006f78 <USBD_StdDevReq+0xdc>
 8006fb2:	6adb      	ldr	r3, [r3, #44]	@ 0x2c
 8006fb4:	e7f7      	b.n	8006fa6 <USBD_StdDevReq+0x10a>
 8006fb6:	b2db      	uxtb	r3, r3
 8006fb8:	2b05      	cmp	r3, #5
 8006fba:	f63f af7a 	bhi.w	8006eb2 <USBD_StdDevReq+0x16>
 8006fbe:	e8df f003 	tbb	[pc, r3]
 8006fc2:	0703      	.short	0x0703
 8006fc4:	17130f0b 	.word	0x17130f0b
 8006fc8:	f8d0 32b4 	ldr.w	r3, [r0, #692]	@ 0x2b4
 8006fcc:	685b      	ldr	r3, [r3, #4]
 8006fce:	e7ca      	b.n	8006f66 <USBD_StdDevReq+0xca>
 8006fd0:	f8d0 32b4 	ldr.w	r3, [r0, #692]	@ 0x2b4
 8006fd4:	689b      	ldr	r3, [r3, #8]
 8006fd6:	e7c6      	b.n	8006f66 <USBD_StdDevReq+0xca>
 8006fd8:	f8d0 32b4 	ldr.w	r3, [r0, #692]	@ 0x2b4
 8006fdc:	68db      	ldr	r3, [r3, #12]
 8006fde:	e7c2      	b.n	8006f66 <USBD_StdDevReq+0xca>
 8006fe0:	f8d0 32b4 	ldr.w	r3, [r0, #692]	@ 0x2b4
 8006fe4:	691b      	ldr	r3, [r3, #16]
 8006fe6:	e7be      	b.n	8006f66 <USBD_StdDevReq+0xca>
 8006fe8:	f8d0 32b4 	ldr.w	r3, [r0, #692]	@ 0x2b4
 8006fec:	695b      	ldr	r3, [r3, #20]
 8006fee:	e7ba      	b.n	8006f66 <USBD_StdDevReq+0xca>
 8006ff0:	f8d0 32b4 	ldr.w	r3, [r0, #692]	@ 0x2b4
 8006ff4:	699b      	ldr	r3, [r3, #24]
 8006ff6:	e7b6      	b.n	8006f66 <USBD_StdDevReq+0xca>
 8006ff8:	7c03      	ldrb	r3, [r0, #16]
 8006ffa:	2b00      	cmp	r3, #0
 8006ffc:	f47f af59 	bne.w	8006eb2 <USBD_StdDevReq+0x16>
 8007000:	f8d0 32b8 	ldr.w	r3, [r0, #696]	@ 0x2b8
 8007004:	f10d 0006 	add.w	r0, sp, #6
 8007008:	6b5b      	ldr	r3, [r3, #52]	@ 0x34
 800700a:	4798      	blx	r3
 800700c:	e7b4      	b.n	8006f78 <USBD_StdDevReq+0xdc>
 800700e:	7c03      	ldrb	r3, [r0, #16]
 8007010:	2b00      	cmp	r3, #0
 8007012:	f47f af4e 	bne.w	8006eb2 <USBD_StdDevReq+0x16>
 8007016:	f8d0 32b8 	ldr.w	r3, [r0, #696]	@ 0x2b8
 800701a:	f10d 0006 	add.w	r0, sp, #6
 800701e:	6b1b      	ldr	r3, [r3, #48]	@ 0x30
 8007020:	4798      	blx	r3
 8007022:	2307      	movs	r3, #7
 8007024:	e7c3      	b.n	8006fae <USBD_StdDevReq+0x112>
 8007026:	888b      	ldrh	r3, [r1, #4]
 8007028:	2b00      	cmp	r3, #0
 800702a:	f47f af42 	bne.w	8006eb2 <USBD_StdDevReq+0x16>
 800702e:	88cb      	ldrh	r3, [r1, #6]
 8007030:	2b00      	cmp	r3, #0
 8007032:	f47f af3e 	bne.w	8006eb2 <USBD_StdDevReq+0x16>
 8007036:	884d      	ldrh	r5, [r1, #2]
 8007038:	2d7f      	cmp	r5, #127	@ 0x7f
 800703a:	f63f af3a 	bhi.w	8006eb2 <USBD_StdDevReq+0x16>
 800703e:	f890 329c 	ldrb.w	r3, [r0, #668]	@ 0x29c
 8007042:	2b03      	cmp	r3, #3
 8007044:	f43f af35 	beq.w	8006eb2 <USBD_StdDevReq+0x16>
 8007048:	b2ed      	uxtb	r5, r5
 800704a:	4629      	mov	r1, r5
 800704c:	f880 529e 	strb.w	r5, [r0, #670]	@ 0x29e
 8007050:	f001 f9d3 	bl	80083fa <USBD_LL_SetUSBAddress>
 8007054:	4620      	mov	r0, r4
 8007056:	f000 f9d0 	bl	80073fa <USBD_CtlSendStatus>
 800705a:	b11d      	cbz	r5, 8007064 <USBD_StdDevReq+0x1c8>
 800705c:	2302      	movs	r3, #2
 800705e:	f884 329c 	strb.w	r3, [r4, #668]	@ 0x29c
 8007062:	e729      	b.n	8006eb8 <USBD_StdDevReq+0x1c>
 8007064:	2301      	movs	r3, #1
 8007066:	e7fa      	b.n	800705e <USBD_StdDevReq+0x1c2>
 8007068:	7889      	ldrb	r1, [r1, #2]
 800706a:	4d47      	ldr	r5, [pc, #284]	@ (8007188 <USBD_StdDevReq+0x2ec>)
 800706c:	2901      	cmp	r1, #1
 800706e:	7029      	strb	r1, [r5, #0]
 8007070:	d903      	bls.n	800707a <USBD_StdDevReq+0x1de>
 8007072:	f7ff ff08 	bl	8006e86 <USBD_CtlError.constprop.0>
 8007076:	2503      	movs	r5, #3
 8007078:	e71f      	b.n	8006eba <USBD_StdDevReq+0x1e>
 800707a:	f890 329c 	ldrb.w	r3, [r0, #668]	@ 0x29c
 800707e:	2b02      	cmp	r3, #2
 8007080:	b2de      	uxtb	r6, r3
 8007082:	d008      	beq.n	8007096 <USBD_StdDevReq+0x1fa>
 8007084:	2e03      	cmp	r6, #3
 8007086:	d017      	beq.n	80070b8 <USBD_StdDevReq+0x21c>
 8007088:	f7ff fefd 	bl	8006e86 <USBD_CtlError.constprop.0>
 800708c:	7829      	ldrb	r1, [r5, #0]
 800708e:	4620      	mov	r0, r4
 8007090:	f7ff fd8b 	bl	8006baa <USBD_ClrClassConfig>
 8007094:	e7ef      	b.n	8007076 <USBD_StdDevReq+0x1da>
 8007096:	b1b1      	cbz	r1, 80070c6 <USBD_StdDevReq+0x22a>
 8007098:	2101      	movs	r1, #1
 800709a:	6041      	str	r1, [r0, #4]
 800709c:	f7ff fd7e 	bl	8006b9c <USBD_SetClassConfig>
 80070a0:	4605      	mov	r5, r0
 80070a2:	4620      	mov	r0, r4
 80070a4:	b125      	cbz	r5, 80070b0 <USBD_StdDevReq+0x214>
 80070a6:	f7ff feee 	bl	8006e86 <USBD_CtlError.constprop.0>
 80070aa:	f884 629c 	strb.w	r6, [r4, #668]	@ 0x29c
 80070ae:	e704      	b.n	8006eba <USBD_StdDevReq+0x1e>
 80070b0:	f000 f9a3 	bl	80073fa <USBD_CtlSendStatus>
 80070b4:	2303      	movs	r3, #3
 80070b6:	e7d2      	b.n	800705e <USBD_StdDevReq+0x1c2>
 80070b8:	b949      	cbnz	r1, 80070ce <USBD_StdDevReq+0x232>
 80070ba:	2302      	movs	r3, #2
 80070bc:	6041      	str	r1, [r0, #4]
 80070be:	f880 329c 	strb.w	r3, [r0, #668]	@ 0x29c
 80070c2:	f7ff fd72 	bl	8006baa <USBD_ClrClassConfig>
 80070c6:	4620      	mov	r0, r4
 80070c8:	f000 f997 	bl	80073fa <USBD_CtlSendStatus>
 80070cc:	e6f4      	b.n	8006eb8 <USBD_StdDevReq+0x1c>
 80070ce:	6841      	ldr	r1, [r0, #4]
 80070d0:	2901      	cmp	r1, #1
 80070d2:	d0f8      	beq.n	80070c6 <USBD_StdDevReq+0x22a>
 80070d4:	b2c9      	uxtb	r1, r1
 80070d6:	f7ff fd68 	bl	8006baa <USBD_ClrClassConfig>
 80070da:	7829      	ldrb	r1, [r5, #0]
 80070dc:	4620      	mov	r0, r4
 80070de:	6061      	str	r1, [r4, #4]
 80070e0:	f7ff fd5c 	bl	8006b9c <USBD_SetClassConfig>
 80070e4:	4605      	mov	r5, r0
 80070e6:	2800      	cmp	r0, #0
 80070e8:	d0ed      	beq.n	80070c6 <USBD_StdDevReq+0x22a>
 80070ea:	4620      	mov	r0, r4
 80070ec:	f7ff fecb 	bl	8006e86 <USBD_CtlError.constprop.0>
 80070f0:	7921      	ldrb	r1, [r4, #4]
 80070f2:	4620      	mov	r0, r4
 80070f4:	f7ff fd59 	bl	8006baa <USBD_ClrClassConfig>
 80070f8:	2302      	movs	r3, #2
 80070fa:	f884 329c 	strb.w	r3, [r4, #668]	@ 0x29c
 80070fe:	e6dc      	b.n	8006eba <USBD_StdDevReq+0x1e>
 8007100:	88ca      	ldrh	r2, [r1, #6]
 8007102:	2a01      	cmp	r2, #1
 8007104:	f47f aed5 	bne.w	8006eb2 <USBD_StdDevReq+0x16>
 8007108:	f890 129c 	ldrb.w	r1, [r0, #668]	@ 0x29c
 800710c:	2902      	cmp	r1, #2
 800710e:	b2cb      	uxtb	r3, r1
 8007110:	d807      	bhi.n	8007122 <USBD_StdDevReq+0x286>
 8007112:	2b00      	cmp	r3, #0
 8007114:	f43f aecd 	beq.w	8006eb2 <USBD_StdDevReq+0x16>
 8007118:	4601      	mov	r1, r0
 800711a:	2300      	movs	r3, #0
 800711c:	f841 3f08 	str.w	r3, [r1, #8]!
 8007120:	e738      	b.n	8006f94 <USBD_StdDevReq+0xf8>
 8007122:	2b03      	cmp	r3, #3
 8007124:	f47f aec5 	bne.w	8006eb2 <USBD_StdDevReq+0x16>
 8007128:	1d01      	adds	r1, r0, #4
 800712a:	e733      	b.n	8006f94 <USBD_StdDevReq+0xf8>
 800712c:	f890 329c 	ldrb.w	r3, [r0, #668]	@ 0x29c
 8007130:	3b01      	subs	r3, #1
 8007132:	2b02      	cmp	r3, #2
 8007134:	f63f aebd 	bhi.w	8006eb2 <USBD_StdDevReq+0x16>
 8007138:	88ca      	ldrh	r2, [r1, #6]
 800713a:	2a02      	cmp	r2, #2
 800713c:	f47f aeb9 	bne.w	8006eb2 <USBD_StdDevReq+0x16>
 8007140:	f8d0 32a4 	ldr.w	r3, [r0, #676]	@ 0x2a4
 8007144:	4601      	mov	r1, r0
 8007146:	2b00      	cmp	r3, #0
 8007148:	bf0c      	ite	eq
 800714a:	2301      	moveq	r3, #1
 800714c:	2303      	movne	r3, #3
 800714e:	f841 3f0c 	str.w	r3, [r1, #12]!
 8007152:	e71f      	b.n	8006f94 <USBD_StdDevReq+0xf8>
 8007154:	884b      	ldrh	r3, [r1, #2]
 8007156:	2b01      	cmp	r3, #1
 8007158:	d102      	bne.n	8007160 <USBD_StdDevReq+0x2c4>
 800715a:	f8c4 32a4 	str.w	r3, [r4, #676]	@ 0x2a4
 800715e:	e7b2      	b.n	80070c6 <USBD_StdDevReq+0x22a>
 8007160:	2b02      	cmp	r3, #2
 8007162:	f47f aea6 	bne.w	8006eb2 <USBD_StdDevReq+0x16>
 8007166:	888b      	ldrh	r3, [r1, #4]
 8007168:	0a1b      	lsrs	r3, r3, #8
 800716a:	f880 32a0 	strb.w	r3, [r0, #672]	@ 0x2a0
 800716e:	e7aa      	b.n	80070c6 <USBD_StdDevReq+0x22a>
 8007170:	f890 329c 	ldrb.w	r3, [r0, #668]	@ 0x29c
 8007174:	3b01      	subs	r3, #1
 8007176:	2b02      	cmp	r3, #2
 8007178:	f63f ae9b 	bhi.w	8006eb2 <USBD_StdDevReq+0x16>
 800717c:	884b      	ldrh	r3, [r1, #2]
 800717e:	2b01      	cmp	r3, #1
 8007180:	f47f ae9a 	bne.w	8006eb8 <USBD_StdDevReq+0x1c>
 8007184:	2300      	movs	r3, #0
 8007186:	e7e8      	b.n	800715a <USBD_StdDevReq+0x2be>
 8007188:	20000918 	.word	0x20000918

0800718c <USBD_StdItfReq>:
 800718c:	b570      	push	{r4, r5, r6, lr}
 800718e:	780b      	ldrb	r3, [r1, #0]
 8007190:	4604      	mov	r4, r0
 8007192:	460e      	mov	r6, r1
 8007194:	f003 0260 	and.w	r2, r3, #96	@ 0x60
 8007198:	065b      	lsls	r3, r3, #25
 800719a:	d501      	bpl.n	80071a0 <USBD_StdItfReq+0x14>
 800719c:	2a40      	cmp	r2, #64	@ 0x40
 800719e:	d11f      	bne.n	80071e0 <USBD_StdItfReq+0x54>
 80071a0:	f894 329c 	ldrb.w	r3, [r4, #668]	@ 0x29c
 80071a4:	3b01      	subs	r3, #1
 80071a6:	2b02      	cmp	r3, #2
 80071a8:	d81a      	bhi.n	80071e0 <USBD_StdItfReq+0x54>
 80071aa:	7931      	ldrb	r1, [r6, #4]
 80071ac:	4620      	mov	r0, r4
 80071ae:	2901      	cmp	r1, #1
 80071b0:	d817      	bhi.n	80071e2 <USBD_StdItfReq+0x56>
 80071b2:	f7ff fe52 	bl	8006e5a <USBD_CoreFindIF>
 80071b6:	b988      	cbnz	r0, 80071dc <USBD_StdItfReq+0x50>
 80071b8:	f8d4 32b8 	ldr.w	r3, [r4, #696]	@ 0x2b8
 80071bc:	689b      	ldr	r3, [r3, #8]
 80071be:	b16b      	cbz	r3, 80071dc <USBD_StdItfReq+0x50>
 80071c0:	f8c4 02d4 	str.w	r0, [r4, #724]	@ 0x2d4
 80071c4:	4631      	mov	r1, r6
 80071c6:	4620      	mov	r0, r4
 80071c8:	4798      	blx	r3
 80071ca:	4605      	mov	r5, r0
 80071cc:	88f3      	ldrh	r3, [r6, #6]
 80071ce:	b91b      	cbnz	r3, 80071d8 <USBD_StdItfReq+0x4c>
 80071d0:	b915      	cbnz	r5, 80071d8 <USBD_StdItfReq+0x4c>
 80071d2:	4620      	mov	r0, r4
 80071d4:	f000 f911 	bl	80073fa <USBD_CtlSendStatus>
 80071d8:	4628      	mov	r0, r5
 80071da:	bd70      	pop	{r4, r5, r6, pc}
 80071dc:	2503      	movs	r5, #3
 80071de:	e7f5      	b.n	80071cc <USBD_StdItfReq+0x40>
 80071e0:	4620      	mov	r0, r4
 80071e2:	2500      	movs	r5, #0
 80071e4:	f7ff fe4f 	bl	8006e86 <USBD_CtlError.constprop.0>
 80071e8:	e7f6      	b.n	80071d8 <USBD_StdItfReq+0x4c>

080071ea <USBD_StdEPReq>:
 80071ea:	b570      	push	{r4, r5, r6, lr}
 80071ec:	780b      	ldrb	r3, [r1, #0]
 80071ee:	4604      	mov	r4, r0
 80071f0:	460e      	mov	r6, r1
 80071f2:	888a      	ldrh	r2, [r1, #4]
 80071f4:	f003 0360 	and.w	r3, r3, #96	@ 0x60
 80071f8:	790d      	ldrb	r5, [r1, #4]
 80071fa:	2b20      	cmp	r3, #32
 80071fc:	d05a      	beq.n	80072b4 <USBD_StdEPReq+0xca>
 80071fe:	2b40      	cmp	r3, #64	@ 0x40
 8007200:	d058      	beq.n	80072b4 <USBD_StdEPReq+0xca>
 8007202:	b11b      	cbz	r3, 800720c <USBD_StdEPReq+0x22>
 8007204:	4620      	mov	r0, r4
 8007206:	f7ff fe3e 	bl	8006e86 <USBD_CtlError.constprop.0>
 800720a:	e03f      	b.n	800728c <USBD_StdEPReq+0xa2>
 800720c:	784b      	ldrb	r3, [r1, #1]
 800720e:	2b01      	cmp	r3, #1
 8007210:	d03e      	beq.n	8007290 <USBD_StdEPReq+0xa6>
 8007212:	2b03      	cmp	r3, #3
 8007214:	d027      	beq.n	8007266 <USBD_StdEPReq+0x7c>
 8007216:	2b00      	cmp	r3, #0
 8007218:	d1f4      	bne.n	8007204 <USBD_StdEPReq+0x1a>
 800721a:	f890 329c 	ldrb.w	r3, [r0, #668]	@ 0x29c
 800721e:	2b02      	cmp	r3, #2
 8007220:	b2d9      	uxtb	r1, r3
 8007222:	d063      	beq.n	80072ec <USBD_StdEPReq+0x102>
 8007224:	2903      	cmp	r1, #3
 8007226:	d1ed      	bne.n	8007204 <USBD_StdEPReq+0x1a>
 8007228:	f005 030f 	and.w	r3, r5, #15
 800722c:	f012 0f80 	tst.w	r2, #128	@ 0x80
 8007230:	f04f 0214 	mov.w	r2, #20
 8007234:	fb02 0303 	mla	r3, r2, r3, r0
 8007238:	d06a      	beq.n	8007310 <USBD_StdEPReq+0x126>
 800723a:	f893 3023 	ldrb.w	r3, [r3, #35]	@ 0x23
 800723e:	2b00      	cmp	r3, #0
 8007240:	d0e0      	beq.n	8007204 <USBD_StdEPReq+0x1a>
 8007242:	f005 067f 	and.w	r6, r5, #127	@ 0x7f
 8007246:	2d80      	cmp	r5, #128	@ 0x80
 8007248:	f106 0601 	add.w	r6, r6, #1
 800724c:	eb06 0686 	add.w	r6, r6, r6, lsl #2
 8007250:	eb00 0686 	add.w	r6, r0, r6, lsl #2
 8007254:	d068      	beq.n	8007328 <USBD_StdEPReq+0x13e>
 8007256:	4629      	mov	r1, r5
 8007258:	4620      	mov	r0, r4
 800725a:	f001 f847 	bl	80082ec <USBD_LL_IsStallEP>
 800725e:	2800      	cmp	r0, #0
 8007260:	d068      	beq.n	8007334 <USBD_StdEPReq+0x14a>
 8007262:	2301      	movs	r3, #1
 8007264:	e061      	b.n	800732a <USBD_StdEPReq+0x140>
 8007266:	f890 329c 	ldrb.w	r3, [r0, #668]	@ 0x29c
 800726a:	2b02      	cmp	r3, #2
 800726c:	b2da      	uxtb	r2, r3
 800726e:	d033      	beq.n	80072d8 <USBD_StdEPReq+0xee>
 8007270:	2a03      	cmp	r2, #3
 8007272:	d1c7      	bne.n	8007204 <USBD_StdEPReq+0x1a>
 8007274:	884b      	ldrh	r3, [r1, #2]
 8007276:	b933      	cbnz	r3, 8007286 <USBD_StdEPReq+0x9c>
 8007278:	0669      	lsls	r1, r5, #25
 800727a:	d004      	beq.n	8007286 <USBD_StdEPReq+0x9c>
 800727c:	88f3      	ldrh	r3, [r6, #6]
 800727e:	b913      	cbnz	r3, 8007286 <USBD_StdEPReq+0x9c>
 8007280:	4629      	mov	r1, r5
 8007282:	f001 f8a8 	bl	80083d6 <USBD_LL_StallEP>
 8007286:	4620      	mov	r0, r4
 8007288:	f000 f8b7 	bl	80073fa <USBD_CtlSendStatus>
 800728c:	2000      	movs	r0, #0
 800728e:	bd70      	pop	{r4, r5, r6, pc}
 8007290:	f890 329c 	ldrb.w	r3, [r0, #668]	@ 0x29c
 8007294:	2b02      	cmp	r3, #2
 8007296:	b2da      	uxtb	r2, r3
 8007298:	d01e      	beq.n	80072d8 <USBD_StdEPReq+0xee>
 800729a:	2a03      	cmp	r2, #3
 800729c:	d1b2      	bne.n	8007204 <USBD_StdEPReq+0x1a>
 800729e:	884b      	ldrh	r3, [r1, #2]
 80072a0:	2b00      	cmp	r3, #0
 80072a2:	d1f3      	bne.n	800728c <USBD_StdEPReq+0xa2>
 80072a4:	066b      	lsls	r3, r5, #25
 80072a6:	d002      	beq.n	80072ae <USBD_StdEPReq+0xc4>
 80072a8:	4629      	mov	r1, r5
 80072aa:	f001 f89d 	bl	80083e8 <USBD_LL_ClearStallEP>
 80072ae:	4620      	mov	r0, r4
 80072b0:	f000 f8a3 	bl	80073fa <USBD_CtlSendStatus>
 80072b4:	4629      	mov	r1, r5
 80072b6:	4620      	mov	r0, r4
 80072b8:	f7ff fdd1 	bl	8006e5e <USBD_CoreFindEP>
 80072bc:	2800      	cmp	r0, #0
 80072be:	d1e5      	bne.n	800728c <USBD_StdEPReq+0xa2>
 80072c0:	f8d4 32b8 	ldr.w	r3, [r4, #696]	@ 0x2b8
 80072c4:	f8c4 02d4 	str.w	r0, [r4, #724]	@ 0x2d4
 80072c8:	689b      	ldr	r3, [r3, #8]
 80072ca:	2b00      	cmp	r3, #0
 80072cc:	d0de      	beq.n	800728c <USBD_StdEPReq+0xa2>
 80072ce:	4631      	mov	r1, r6
 80072d0:	4620      	mov	r0, r4
 80072d2:	e8bd 4070 	ldmia.w	sp!, {r4, r5, r6, lr}
 80072d6:	4718      	bx	r3
 80072d8:	066a      	lsls	r2, r5, #25
 80072da:	d093      	beq.n	8007204 <USBD_StdEPReq+0x1a>
 80072dc:	4629      	mov	r1, r5
 80072de:	f001 f87a 	bl	80083d6 <USBD_LL_StallEP>
 80072e2:	2180      	movs	r1, #128	@ 0x80
 80072e4:	4620      	mov	r0, r4
 80072e6:	f001 f876 	bl	80083d6 <USBD_LL_StallEP>
 80072ea:	e7cf      	b.n	800728c <USBD_StdEPReq+0xa2>
 80072ec:	0669      	lsls	r1, r5, #25
 80072ee:	d189      	bne.n	8007204 <USBD_StdEPReq+0x1a>
 80072f0:	0613      	lsls	r3, r2, #24
 80072f2:	f04f 0300 	mov.w	r3, #0
 80072f6:	f04f 0202 	mov.w	r2, #2
 80072fa:	bf4c      	ite	mi
 80072fc:	f100 0114 	addmi.w	r1, r0, #20
 8007300:	f500 71aa 	addpl.w	r1, r0, #340	@ 0x154
 8007304:	f801 3f0e 	strb.w	r3, [r1, #14]!
 8007308:	4620      	mov	r0, r4
 800730a:	f000 f847 	bl	800739c <USBD_CtlSendData>
 800730e:	e7bd      	b.n	800728c <USBD_StdEPReq+0xa2>
 8007310:	f893 3163 	ldrb.w	r3, [r3, #355]	@ 0x163
 8007314:	2b00      	cmp	r3, #0
 8007316:	f43f af75 	beq.w	8007204 <USBD_StdEPReq+0x1a>
 800731a:	2614      	movs	r6, #20
 800731c:	fb06 0605 	mla	r6, r6, r5, r0
 8007320:	f506 76aa 	add.w	r6, r6, #340	@ 0x154
 8007324:	2d00      	cmp	r5, #0
 8007326:	d196      	bne.n	8007256 <USBD_StdEPReq+0x6c>
 8007328:	2300      	movs	r3, #0
 800732a:	73b3      	strb	r3, [r6, #14]
 800732c:	2202      	movs	r2, #2
 800732e:	f106 010e 	add.w	r1, r6, #14
 8007332:	e7e9      	b.n	8007308 <USBD_StdEPReq+0x11e>
 8007334:	73b0      	strb	r0, [r6, #14]
 8007336:	e7f9      	b.n	800732c <USBD_StdEPReq+0x142>

08007338 <USBD_ParseSetupRequest>:
 8007338:	780b      	ldrb	r3, [r1, #0]
 800733a:	7003      	strb	r3, [r0, #0]
 800733c:	784b      	ldrb	r3, [r1, #1]
 800733e:	7043      	strb	r3, [r0, #1]
 8007340:	884b      	ldrh	r3, [r1, #2]
 8007342:	8043      	strh	r3, [r0, #2]
 8007344:	888b      	ldrh	r3, [r1, #4]
 8007346:	8083      	strh	r3, [r0, #4]
 8007348:	88cb      	ldrh	r3, [r1, #6]
 800734a:	80c3      	strh	r3, [r0, #6]
 800734c:	4770      	bx	lr

0800734e <USBD_CtlError>:
 800734e:	b510      	push	{r4, lr}
 8007350:	4604      	mov	r4, r0
 8007352:	2180      	movs	r1, #128	@ 0x80
 8007354:	f001 f83f 	bl	80083d6 <USBD_LL_StallEP>
 8007358:	2100      	movs	r1, #0
 800735a:	4620      	mov	r0, r4
 800735c:	e8bd 4010 	ldmia.w	sp!, {r4, lr}
 8007360:	f001 b839 	b.w	80083d6 <USBD_LL_StallEP>

08007364 <USBD_GetString>:
 8007364:	b570      	push	{r4, r5, r6, lr}
 8007366:	460d      	mov	r5, r1
 8007368:	4616      	mov	r6, r2
 800736a:	4604      	mov	r4, r0
 800736c:	b170      	cbz	r0, 800738c <USBD_GetString+0x28>
 800736e:	f7f8 ff61 	bl	8000234 <strlen>
 8007372:	3c01      	subs	r4, #1
 8007374:	b2c3      	uxtb	r3, r0
 8007376:	2100      	movs	r1, #0
 8007378:	3301      	adds	r3, #1
 800737a:	005b      	lsls	r3, r3, #1
 800737c:	8033      	strh	r3, [r6, #0]
 800737e:	702b      	strb	r3, [r5, #0]
 8007380:	2303      	movs	r3, #3
 8007382:	706b      	strb	r3, [r5, #1]
 8007384:	2302      	movs	r3, #2
 8007386:	f814 2f01 	ldrb.w	r2, [r4, #1]!
 800738a:	b902      	cbnz	r2, 800738e <USBD_GetString+0x2a>
 800738c:	bd70      	pop	{r4, r5, r6, pc}
 800738e:	54ea      	strb	r2, [r5, r3]
 8007390:	1c5a      	adds	r2, r3, #1
 8007392:	3302      	adds	r3, #2
 8007394:	b2d2      	uxtb	r2, r2
 8007396:	b2db      	uxtb	r3, r3
 8007398:	54a9      	strb	r1, [r5, r2]
 800739a:	e7f4      	b.n	8007386 <USBD_GetString+0x22>

0800739c <USBD_CtlSendData>:
 800739c:	4613      	mov	r3, r2
 800739e:	2202      	movs	r2, #2
 80073a0:	b510      	push	{r4, lr}
 80073a2:	f8c0 2294 	str.w	r2, [r0, #660]	@ 0x294
 80073a6:	460a      	mov	r2, r1
 80073a8:	6143      	str	r3, [r0, #20]
 80073aa:	6241      	str	r1, [r0, #36]	@ 0x24
 80073ac:	2100      	movs	r1, #0
 80073ae:	6183      	str	r3, [r0, #24]
 80073b0:	f001 f82c 	bl	800840c <USBD_LL_Transmit>
 80073b4:	2000      	movs	r0, #0
 80073b6:	bd10      	pop	{r4, pc}

080073b8 <USBD_CtlContinueSendData>:
 80073b8:	b508      	push	{r3, lr}
 80073ba:	4613      	mov	r3, r2
 80073bc:	460a      	mov	r2, r1
 80073be:	2100      	movs	r1, #0
 80073c0:	f001 f824 	bl	800840c <USBD_LL_Transmit>
 80073c4:	2000      	movs	r0, #0
 80073c6:	bd08      	pop	{r3, pc}

080073c8 <USBD_CtlPrepareRx>:
 80073c8:	4613      	mov	r3, r2
 80073ca:	2203      	movs	r2, #3
 80073cc:	b510      	push	{r4, lr}
 80073ce:	f8c0 2294 	str.w	r2, [r0, #660]	@ 0x294
 80073d2:	460a      	mov	r2, r1
 80073d4:	f8c0 3154 	str.w	r3, [r0, #340]	@ 0x154
 80073d8:	f8c0 1164 	str.w	r1, [r0, #356]	@ 0x164
 80073dc:	2100      	movs	r1, #0
 80073de:	f8c0 3158 	str.w	r3, [r0, #344]	@ 0x158
 80073e2:	f001 f81c 	bl	800841e <USBD_LL_PrepareReceive>
 80073e6:	2000      	movs	r0, #0
 80073e8:	bd10      	pop	{r4, pc}

080073ea <USBD_CtlContinueRx>:
 80073ea:	b508      	push	{r3, lr}
 80073ec:	4613      	mov	r3, r2
 80073ee:	460a      	mov	r2, r1
 80073f0:	2100      	movs	r1, #0
 80073f2:	f001 f814 	bl	800841e <USBD_LL_PrepareReceive>
 80073f6:	2000      	movs	r0, #0
 80073f8:	bd08      	pop	{r3, pc}

080073fa <USBD_CtlSendStatus>:
 80073fa:	b508      	push	{r3, lr}
 80073fc:	2204      	movs	r2, #4
 80073fe:	2300      	movs	r3, #0
 8007400:	f8c0 2294 	str.w	r2, [r0, #660]	@ 0x294
 8007404:	4619      	mov	r1, r3
 8007406:	461a      	mov	r2, r3
 8007408:	f001 f800 	bl	800840c <USBD_LL_Transmit>
 800740c:	2000      	movs	r0, #0
 800740e:	bd08      	pop	{r3, pc}

08007410 <USBD_CtlReceiveStatus>:
 8007410:	b508      	push	{r3, lr}
 8007412:	2205      	movs	r2, #5
 8007414:	2300      	movs	r3, #0
 8007416:	f8c0 2294 	str.w	r2, [r0, #660]	@ 0x294
 800741a:	4619      	mov	r1, r3
 800741c:	461a      	mov	r2, r3
 800741e:	f000 fffe 	bl	800841e <USBD_LL_PrepareReceive>
 8007422:	2000      	movs	r0, #0
 8007424:	bd08      	pop	{r3, pc}
	...

08007428 <MX_USB_DEVICE_Init>:
 8007428:	b508      	push	{r3, lr}
 800742a:	2201      	movs	r2, #1
 800742c:	490e      	ldr	r1, [pc, #56]	@ (8007468 <MX_USB_DEVICE_Init+0x40>)
 800742e:	480f      	ldr	r0, [pc, #60]	@ (800746c <MX_USB_DEVICE_Init+0x44>)
 8007430:	f7ff fb86 	bl	8006b40 <USBD_Init>
 8007434:	b108      	cbz	r0, 800743a <MX_USB_DEVICE_Init+0x12>
 8007436:	f7fa fc21 	bl	8001c7c <Error_Handler>
 800743a:	490d      	ldr	r1, [pc, #52]	@ (8007470 <MX_USB_DEVICE_Init+0x48>)
 800743c:	480b      	ldr	r0, [pc, #44]	@ (800746c <MX_USB_DEVICE_Init+0x44>)
 800743e:	f7ff fb92 	bl	8006b66 <USBD_RegisterClass>
 8007442:	b108      	cbz	r0, 8007448 <MX_USB_DEVICE_Init+0x20>
 8007444:	f7fa fc1a 	bl	8001c7c <Error_Handler>
 8007448:	490a      	ldr	r1, [pc, #40]	@ (8007474 <MX_USB_DEVICE_Init+0x4c>)
 800744a:	4808      	ldr	r0, [pc, #32]	@ (800746c <MX_USB_DEVICE_Init+0x44>)
 800744c:	f7ff fb22 	bl	8006a94 <USBD_CDC_RegisterInterface>
 8007450:	b108      	cbz	r0, 8007456 <MX_USB_DEVICE_Init+0x2e>
 8007452:	f7fa fc13 	bl	8001c7c <Error_Handler>
 8007456:	4805      	ldr	r0, [pc, #20]	@ (800746c <MX_USB_DEVICE_Init+0x44>)
 8007458:	f7ff fb9e 	bl	8006b98 <USBD_Start>
 800745c:	b118      	cbz	r0, 8007466 <MX_USB_DEVICE_Init+0x3e>
 800745e:	e8bd 4008 	ldmia.w	sp!, {r3, lr}
 8007462:	f7fa bc0b 	b.w	8001c7c <Error_Handler>
 8007466:	bd08      	pop	{r3, pc}
 8007468:	20000108 	.word	0x20000108
 800746c:	2000091c 	.word	0x2000091c
 8007470:	20000070 	.word	0x20000070
 8007474:	200000b4 	.word	0x200000b4

08007478 <CDC_DeInit_HS>:
 8007478:	2000      	movs	r0, #0
 800747a:	4770      	bx	lr

0800747c <CDC_Control_HS>:
 800747c:	2000      	movs	r0, #0
 800747e:	4770      	bx	lr

08007480 <CDC_TransmitCplt_HS>:
 8007480:	2000      	movs	r0, #0
 8007482:	4770      	bx	lr

08007484 <USB_CDC_Clear>:
 8007484:	b510      	push	{r4, lr}
 8007486:	4c0c      	ldr	r4, [pc, #48]	@ (80074b8 <USB_CDC_Clear+0x34>)
 8007488:	2181      	movs	r1, #129	@ 0x81
 800748a:	4620      	mov	r0, r4
 800748c:	f000 ff9a 	bl	80083c4 <USBD_LL_FlushEP>
 8007490:	2101      	movs	r1, #1
 8007492:	4620      	mov	r0, r4
 8007494:	f000 ff96 	bl	80083c4 <USBD_LL_FlushEP>
 8007498:	f8d4 32bc 	ldr.w	r3, [r4, #700]	@ 0x2bc
 800749c:	b15b      	cbz	r3, 80074b6 <USB_CDC_Clear+0x32>
 800749e:	2200      	movs	r2, #0
 80074a0:	4620      	mov	r0, r4
 80074a2:	4906      	ldr	r1, [pc, #24]	@ (80074bc <USB_CDC_Clear+0x38>)
 80074a4:	f8c3 2214 	str.w	r2, [r3, #532]	@ 0x214
 80074a8:	f7ff fb0d 	bl	8006ac6 <USBD_CDC_SetRxBuffer>
 80074ac:	4620      	mov	r0, r4
 80074ae:	e8bd 4010 	ldmia.w	sp!, {r4, lr}
 80074b2:	f7ff bb2f 	b.w	8006b14 <USBD_CDC_ReceivePacket>
 80074b6:	bd10      	pop	{r4, pc}
 80074b8:	2000091c 	.word	0x2000091c
 80074bc:	200013f8 	.word	0x200013f8

080074c0 <CDC_Init_HS>:
 80074c0:	b510      	push	{r4, lr}
 80074c2:	4c06      	ldr	r4, [pc, #24]	@ (80074dc <CDC_Init_HS+0x1c>)
 80074c4:	2200      	movs	r2, #0
 80074c6:	4906      	ldr	r1, [pc, #24]	@ (80074e0 <CDC_Init_HS+0x20>)
 80074c8:	4620      	mov	r0, r4
 80074ca:	f7ff faee 	bl	8006aaa <USBD_CDC_SetTxBuffer>
 80074ce:	4905      	ldr	r1, [pc, #20]	@ (80074e4 <CDC_Init_HS+0x24>)
 80074d0:	4620      	mov	r0, r4
 80074d2:	f7ff faf8 	bl	8006ac6 <USBD_CDC_SetRxBuffer>
 80074d6:	2000      	movs	r0, #0
 80074d8:	bd10      	pop	{r4, pc}
 80074da:	bf00      	nop
 80074dc:	2000091c 	.word	0x2000091c
 80074e0:	20000bf8 	.word	0x20000bf8
 80074e4:	200013f8 	.word	0x200013f8

080074e8 <u32_to_dec>:
 80074e8:	b5f0      	push	{r4, r5, r6, r7, lr}
 80074ea:	b085      	sub	sp, #20
 80074ec:	b922      	cbnz	r2, 80074f8 <u32_to_dec+0x10>
 80074ee:	2330      	movs	r3, #48	@ 0x30
 80074f0:	7042      	strb	r2, [r0, #1]
 80074f2:	7003      	strb	r3, [r0, #0]
 80074f4:	b005      	add	sp, #20
 80074f6:	bdf0      	pop	{r4, r5, r6, r7, pc}
 80074f8:	466d      	mov	r5, sp
 80074fa:	2300      	movs	r3, #0
 80074fc:	270a      	movs	r7, #10
 80074fe:	462c      	mov	r4, r5
 8007500:	3301      	adds	r3, #1
 8007502:	fbb2 fcf7 	udiv	ip, r2, r7
 8007506:	fb07 261c 	mls	r6, r7, ip, r2
 800750a:	3630      	adds	r6, #48	@ 0x30
 800750c:	f805 6b01 	strb.w	r6, [r5], #1
 8007510:	4616      	mov	r6, r2
 8007512:	4662      	mov	r2, ip
 8007514:	2e09      	cmp	r6, #9
 8007516:	d901      	bls.n	800751c <u32_to_dec+0x34>
 8007518:	2b10      	cmp	r3, #16
 800751a:	d1f1      	bne.n	8007500 <u32_to_dec+0x18>
 800751c:	441c      	add	r4, r3
 800751e:	2200      	movs	r2, #0
 8007520:	e003      	b.n	800752a <u32_to_dec+0x42>
 8007522:	f814 5d01 	ldrb.w	r5, [r4, #-1]!
 8007526:	f800 5b01 	strb.w	r5, [r0], #1
 800752a:	429a      	cmp	r2, r3
 800752c:	d002      	beq.n	8007534 <u32_to_dec+0x4c>
 800752e:	3201      	adds	r2, #1
 8007530:	4291      	cmp	r1, r2
 8007532:	d1f6      	bne.n	8007522 <u32_to_dec+0x3a>
 8007534:	2300      	movs	r3, #0
 8007536:	7003      	strb	r3, [r0, #0]
 8007538:	e7dc      	b.n	80074f4 <u32_to_dec+0xc>

0800753a <parse_u32.constprop.0>:
 800753a:	b5f0      	push	{r4, r5, r6, r7, lr}
 800753c:	4604      	mov	r4, r0
 800753e:	f810 3b01 	ldrb.w	r3, [r0], #1
 8007542:	2b20      	cmp	r3, #32
 8007544:	d0fa      	beq.n	800753c <parse_u32.constprop.0+0x2>
 8007546:	2b09      	cmp	r3, #9
 8007548:	d0f8      	beq.n	800753c <parse_u32.constprop.0+0x2>
 800754a:	2b2b      	cmp	r3, #43	@ 0x2b
 800754c:	bf08      	it	eq
 800754e:	4604      	moveq	r4, r0
 8007550:	2000      	movs	r0, #0
 8007552:	270a      	movs	r7, #10
 8007554:	4603      	mov	r3, r0
 8007556:	4605      	mov	r5, r0
 8007558:	4626      	mov	r6, r4
 800755a:	f814 2b01 	ldrb.w	r2, [r4], #1
 800755e:	3a30      	subs	r2, #48	@ 0x30
 8007560:	fa5f fc82 	uxtb.w	ip, r2
 8007564:	f1bc 0f09 	cmp.w	ip, #9
 8007568:	d90a      	bls.n	8007580 <parse_u32.constprop.0+0x46>
 800756a:	1e72      	subs	r2, r6, #1
 800756c:	f812 4f01 	ldrb.w	r4, [r2, #1]!
 8007570:	2c20      	cmp	r4, #32
 8007572:	d0fb      	beq.n	800756c <parse_u32.constprop.0+0x32>
 8007574:	2c09      	cmp	r4, #9
 8007576:	d0f9      	beq.n	800756c <parse_u32.constprop.0+0x32>
 8007578:	b96c      	cbnz	r4, 8007596 <parse_u32.constprop.0+0x5c>
 800757a:	b100      	cbz	r0, 800757e <parse_u32.constprop.0+0x44>
 800757c:	600b      	str	r3, [r1, #0]
 800757e:	bdf0      	pop	{r4, r5, r6, r7, pc}
 8007580:	fba3 3007 	umull	r3, r0, r3, r7
 8007584:	fb07 0505 	mla	r5, r7, r5, r0
 8007588:	18d3      	adds	r3, r2, r3
 800758a:	f04f 0001 	mov.w	r0, #1
 800758e:	eb45 75e2 	adc.w	r5, r5, r2, asr #31
 8007592:	2d00      	cmp	r5, #0
 8007594:	d0e0      	beq.n	8007558 <parse_u32.constprop.0+0x1e>
 8007596:	2000      	movs	r0, #0
 8007598:	e7f1      	b.n	800757e <parse_u32.constprop.0+0x44>
	...

0800759c <CDC_Transmit_HS>:
 800759c:	b510      	push	{r4, lr}
 800759e:	4c09      	ldr	r4, [pc, #36]	@ (80075c4 <CDC_Transmit_HS+0x28>)
 80075a0:	460a      	mov	r2, r1
 80075a2:	f8d4 32bc 	ldr.w	r3, [r4, #700]	@ 0x2bc
 80075a6:	f8d3 3214 	ldr.w	r3, [r3, #532]	@ 0x214
 80075aa:	b943      	cbnz	r3, 80075be <CDC_Transmit_HS+0x22>
 80075ac:	4601      	mov	r1, r0
 80075ae:	4620      	mov	r0, r4
 80075b0:	f7ff fa7b 	bl	8006aaa <USBD_CDC_SetTxBuffer>
 80075b4:	4620      	mov	r0, r4
 80075b6:	e8bd 4010 	ldmia.w	sp!, {r4, lr}
 80075ba:	f7ff ba90 	b.w	8006ade <USBD_CDC_TransmitPacket>
 80075be:	2001      	movs	r0, #1
 80075c0:	bd10      	pop	{r4, pc}
 80075c2:	bf00      	nop
 80075c4:	2000091c 	.word	0x2000091c

080075c8 <send_line>:
 80075c8:	b538      	push	{r3, r4, r5, lr}
 80075ca:	4c11      	ldr	r4, [pc, #68]	@ (8007610 <send_line+0x48>)
 80075cc:	2300      	movs	r3, #0
 80075ce:	4622      	mov	r2, r4
 80075d0:	5cc5      	ldrb	r5, [r0, r3]
 80075d2:	b10d      	cbz	r5, 80075d8 <send_line+0x10>
 80075d4:	2b5e      	cmp	r3, #94	@ 0x5e
 80075d6:	d101      	bne.n	80075dc <send_line+0x14>
 80075d8:	3901      	subs	r1, #1
 80075da:	e005      	b.n	80075e8 <send_line+0x20>
 80075dc:	3301      	adds	r3, #1
 80075de:	f804 5b01 	strb.w	r5, [r4], #1
 80075e2:	e7f5      	b.n	80075d0 <send_line+0x8>
 80075e4:	54d0      	strb	r0, [r2, r3]
 80075e6:	3301      	adds	r3, #1
 80075e8:	f811 0f01 	ldrb.w	r0, [r1, #1]!
 80075ec:	b108      	cbz	r0, 80075f2 <send_line+0x2a>
 80075ee:	2b5e      	cmp	r3, #94	@ 0x5e
 80075f0:	d1f8      	bne.n	80075e4 <send_line+0x1c>
 80075f2:	1c9c      	adds	r4, r3, #2
 80075f4:	210d      	movs	r1, #13
 80075f6:	4d06      	ldr	r5, [pc, #24]	@ (8007610 <send_line+0x48>)
 80075f8:	54d1      	strb	r1, [r2, r3]
 80075fa:	b2a4      	uxth	r4, r4
 80075fc:	441a      	add	r2, r3
 80075fe:	230a      	movs	r3, #10
 8007600:	7053      	strb	r3, [r2, #1]
 8007602:	4621      	mov	r1, r4
 8007604:	4628      	mov	r0, r5
 8007606:	f7ff ffc9 	bl	800759c <CDC_Transmit_HS>
 800760a:	2801      	cmp	r0, #1
 800760c:	d0f9      	beq.n	8007602 <send_line+0x3a>
 800760e:	bd38      	pop	{r3, r4, r5, pc}
 8007610:	20001c5c 	.word	0x20001c5c

08007614 <process_cmd.constprop.0>:
 8007614:	b5f0      	push	{r4, r5, r6, r7, lr}
 8007616:	4a9a      	ldr	r2, [pc, #616]	@ (8007880 <process_cmd.constprop.0+0x26c>)
 8007618:	489a      	ldr	r0, [pc, #616]	@ (8007884 <process_cmd.constprop.0+0x270>)
 800761a:	ed2d 8b02 	vpush	{d8}
 800761e:	b0ad      	sub	sp, #180	@ 0xb4
 8007620:	4614      	mov	r4, r2
 8007622:	f812 1b01 	ldrb.w	r1, [r2], #1
 8007626:	f1a1 0309 	sub.w	r3, r1, #9
 800762a:	b2db      	uxtb	r3, r3
 800762c:	2b17      	cmp	r3, #23
 800762e:	d818      	bhi.n	8007662 <process_cmd.constprop.0+0x4e>
 8007630:	fa20 f303 	lsr.w	r3, r0, r3
 8007634:	07df      	lsls	r7, r3, #31
 8007636:	d4f3      	bmi.n	8007620 <process_cmd.constprop.0+0xc>
 8007638:	4620      	mov	r0, r4
 800763a:	f7f8 fdfb 	bl	8000234 <strlen>
 800763e:	3801      	subs	r0, #1
 8007640:	4a90      	ldr	r2, [pc, #576]	@ (8007884 <process_cmd.constprop.0+0x270>)
 8007642:	2100      	movs	r1, #0
 8007644:	4420      	add	r0, r4
 8007646:	4284      	cmp	r4, r0
 8007648:	d80d      	bhi.n	8007666 <process_cmd.constprop.0+0x52>
 800764a:	7803      	ldrb	r3, [r0, #0]
 800764c:	3b09      	subs	r3, #9
 800764e:	b2db      	uxtb	r3, r3
 8007650:	2b17      	cmp	r3, #23
 8007652:	d808      	bhi.n	8007666 <process_cmd.constprop.0+0x52>
 8007654:	fa22 f303 	lsr.w	r3, r2, r3
 8007658:	07de      	lsls	r6, r3, #31
 800765a:	d504      	bpl.n	8007666 <process_cmd.constprop.0+0x52>
 800765c:	f800 1901 	strb.w	r1, [r0], #-1
 8007660:	e7f1      	b.n	8007646 <process_cmd.constprop.0+0x32>
 8007662:	2900      	cmp	r1, #0
 8007664:	d1e8      	bne.n	8007638 <process_cmd.constprop.0+0x24>
 8007666:	1e63      	subs	r3, r4, #1
 8007668:	e005      	b.n	8007676 <process_cmd.constprop.0+0x62>
 800766a:	f1a7 0261 	sub.w	r2, r7, #97	@ 0x61
 800766e:	2a19      	cmp	r2, #25
 8007670:	d801      	bhi.n	8007676 <process_cmd.constprop.0+0x62>
 8007672:	3f20      	subs	r7, #32
 8007674:	701f      	strb	r7, [r3, #0]
 8007676:	f813 7f01 	ldrb.w	r7, [r3, #1]!
 800767a:	2f00      	cmp	r7, #0
 800767c:	d1f5      	bne.n	800766a <process_cmd.constprop.0+0x56>
 800767e:	4982      	ldr	r1, [pc, #520]	@ (8007888 <process_cmd.constprop.0+0x274>)
 8007680:	4620      	mov	r0, r4
 8007682:	f7f8 fdcd 	bl	8000220 <strcmp>
 8007686:	b940      	cbnz	r0, 800769a <process_cmd.constprop.0+0x86>
 8007688:	4980      	ldr	r1, [pc, #512]	@ (800788c <process_cmd.constprop.0+0x278>)
 800768a:	4881      	ldr	r0, [pc, #516]	@ (8007890 <process_cmd.constprop.0+0x27c>)
 800768c:	b02d      	add	sp, #180	@ 0xb4
 800768e:	ecbd 8b02 	vpop	{d8}
 8007692:	e8bd 40f0 	ldmia.w	sp!, {r4, r5, r6, r7, lr}
 8007696:	f7ff bf97 	b.w	80075c8 <send_line>
 800769a:	497e      	ldr	r1, [pc, #504]	@ (8007894 <process_cmd.constprop.0+0x280>)
 800769c:	4620      	mov	r0, r4
 800769e:	f7f8 fdbf 	bl	8000220 <strcmp>
 80076a2:	b908      	cbnz	r0, 80076a8 <process_cmd.constprop.0+0x94>
 80076a4:	497c      	ldr	r1, [pc, #496]	@ (8007898 <process_cmd.constprop.0+0x284>)
 80076a6:	e7f0      	b.n	800768a <process_cmd.constprop.0+0x76>
 80076a8:	497c      	ldr	r1, [pc, #496]	@ (800789c <process_cmd.constprop.0+0x288>)
 80076aa:	4620      	mov	r0, r4
 80076ac:	f7f8 fdb8 	bl	8000220 <strcmp>
 80076b0:	b9c0      	cbnz	r0, 80076e4 <process_cmd.constprop.0+0xd0>
 80076b2:	497b      	ldr	r1, [pc, #492]	@ (80078a0 <process_cmd.constprop.0+0x28c>)
 80076b4:	4876      	ldr	r0, [pc, #472]	@ (8007890 <process_cmd.constprop.0+0x27c>)
 80076b6:	f7ff ff87 	bl	80075c8 <send_line>
 80076ba:	4b7a      	ldr	r3, [pc, #488]	@ (80078a4 <process_cmd.constprop.0+0x290>)
 80076bc:	4a7a      	ldr	r2, [pc, #488]	@ (80078a8 <process_cmd.constprop.0+0x294>)
 80076be:	601a      	str	r2, [r3, #0]
 80076c0:	f3bf 8f4f 	dsb	sy
 80076c4:	f3bf 8f6f 	isb	sy
 80076c8:	b672      	cpsid	i
 80076ca:	f3bf 8f4f 	dsb	sy
 80076ce:	4977      	ldr	r1, [pc, #476]	@ (80078ac <process_cmd.constprop.0+0x298>)
 80076d0:	4b77      	ldr	r3, [pc, #476]	@ (80078b0 <process_cmd.constprop.0+0x29c>)
 80076d2:	68ca      	ldr	r2, [r1, #12]
 80076d4:	f402 62e0 	and.w	r2, r2, #1792	@ 0x700
 80076d8:	4313      	orrs	r3, r2
 80076da:	60cb      	str	r3, [r1, #12]
 80076dc:	f3bf 8f4f 	dsb	sy
 80076e0:	bf00      	nop
 80076e2:	e7fd      	b.n	80076e0 <process_cmd.constprop.0+0xcc>
 80076e4:	7826      	ldrb	r6, [r4, #0]
 80076e6:	2e48      	cmp	r6, #72	@ 0x48
 80076e8:	d11e      	bne.n	8007728 <process_cmd.constprop.0+0x114>
 80076ea:	7863      	ldrb	r3, [r4, #1]
 80076ec:	2b45      	cmp	r3, #69	@ 0x45
 80076ee:	d11b      	bne.n	8007728 <process_cmd.constprop.0+0x114>
 80076f0:	78a3      	ldrb	r3, [r4, #2]
 80076f2:	2b41      	cmp	r3, #65	@ 0x41
 80076f4:	d118      	bne.n	8007728 <process_cmd.constprop.0+0x114>
 80076f6:	78e3      	ldrb	r3, [r4, #3]
 80076f8:	2b44      	cmp	r3, #68	@ 0x44
 80076fa:	d115      	bne.n	8007728 <process_cmd.constprop.0+0x114>
 80076fc:	7923      	ldrb	r3, [r4, #4]
 80076fe:	2b5f      	cmp	r3, #95	@ 0x5f
 8007700:	d112      	bne.n	8007728 <process_cmd.constprop.0+0x114>
 8007702:	7963      	ldrb	r3, [r4, #5]
 8007704:	2b54      	cmp	r3, #84	@ 0x54
 8007706:	d10f      	bne.n	8007728 <process_cmd.constprop.0+0x114>
 8007708:	79a3      	ldrb	r3, [r4, #6]
 800770a:	2b59      	cmp	r3, #89	@ 0x59
 800770c:	d10c      	bne.n	8007728 <process_cmd.constprop.0+0x114>
 800770e:	79e3      	ldrb	r3, [r4, #7]
 8007710:	2b50      	cmp	r3, #80	@ 0x50
 8007712:	d109      	bne.n	8007728 <process_cmd.constprop.0+0x114>
 8007714:	7a23      	ldrb	r3, [r4, #8]
 8007716:	2b45      	cmp	r3, #69	@ 0x45
 8007718:	d106      	bne.n	8007728 <process_cmd.constprop.0+0x114>
 800771a:	7a63      	ldrb	r3, [r4, #9]
 800771c:	2b3f      	cmp	r3, #63	@ 0x3f
 800771e:	d103      	bne.n	8007728 <process_cmd.constprop.0+0x114>
 8007720:	7aa3      	ldrb	r3, [r4, #10]
 8007722:	b90b      	cbnz	r3, 8007728 <process_cmd.constprop.0+0x114>
 8007724:	4963      	ldr	r1, [pc, #396]	@ (80078b4 <process_cmd.constprop.0+0x2a0>)
 8007726:	e7b0      	b.n	800768a <process_cmd.constprop.0+0x76>
 8007728:	4963      	ldr	r1, [pc, #396]	@ (80078b8 <process_cmd.constprop.0+0x2a4>)
 800772a:	4620      	mov	r0, r4
 800772c:	f7f8 fd78 	bl	8000220 <strcmp>
 8007730:	b938      	cbnz	r0, 8007742 <process_cmd.constprop.0+0x12e>
 8007732:	f7f9 faab 	bl	8000c8c <ACQ_IsStreaming>
 8007736:	4a61      	ldr	r2, [pc, #388]	@ (80078bc <process_cmd.constprop.0+0x2a8>)
 8007738:	4961      	ldr	r1, [pc, #388]	@ (80078c0 <process_cmd.constprop.0+0x2ac>)
 800773a:	2800      	cmp	r0, #0
 800773c:	bf08      	it	eq
 800773e:	4611      	moveq	r1, r2
 8007740:	e7a3      	b.n	800768a <process_cmd.constprop.0+0x76>
 8007742:	4960      	ldr	r1, [pc, #384]	@ (80078c4 <process_cmd.constprop.0+0x2b0>)
 8007744:	4620      	mov	r0, r4
 8007746:	f7f8 fd6b 	bl	8000220 <strcmp>
 800774a:	b920      	cbnz	r0, 8007756 <process_cmd.constprop.0+0x142>
 800774c:	f7f9 faa4 	bl	8000c98 <ACQ_StreamFramesRemaining>
 8007750:	4602      	mov	r2, r0
 8007752:	2110      	movs	r1, #16
 8007754:	e146      	b.n	80079e4 <process_cmd.constprop.0+0x3d0>
 8007756:	495c      	ldr	r1, [pc, #368]	@ (80078c8 <process_cmd.constprop.0+0x2b4>)
 8007758:	4620      	mov	r0, r4
 800775a:	f7f8 fd61 	bl	8000220 <strcmp>
 800775e:	b998      	cbnz	r0, 8007788 <process_cmd.constprop.0+0x174>
 8007760:	f7f8 ff78 	bl	8000654 <ACQ_GetChannelMask>
 8007764:	4604      	mov	r4, r0
 8007766:	f7f8 ff7f 	bl	8000668 <ACQ_GetActiveChannelCount>
 800776a:	4605      	mov	r5, r0
 800776c:	f7f8 ff8c 	bl	8000688 <ACQ_GetFrameBytes>
 8007770:	4623      	mov	r3, r4
 8007772:	e9cd 5000 	strd	r5, r0, [sp]
 8007776:	2130      	movs	r1, #48	@ 0x30
 8007778:	4a54      	ldr	r2, [pc, #336]	@ (80078cc <process_cmd.constprop.0+0x2b8>)
 800777a:	eb0d 0001 	add.w	r0, sp, r1
 800777e:	f000 ff09 	bl	8008594 <sniprintf>
 8007782:	a90c      	add	r1, sp, #48	@ 0x30
 8007784:	4842      	ldr	r0, [pc, #264]	@ (8007890 <process_cmd.constprop.0+0x27c>)
 8007786:	e189      	b.n	8007a9c <process_cmd.constprop.0+0x488>
 8007788:	2207      	movs	r2, #7
 800778a:	4951      	ldr	r1, [pc, #324]	@ (80078d0 <process_cmd.constprop.0+0x2bc>)
 800778c:	4620      	mov	r0, r4
 800778e:	f000 ff4b 	bl	8008628 <strncmp>
 8007792:	2800      	cmp	r0, #0
 8007794:	d14d      	bne.n	8007832 <process_cmd.constprop.0+0x21e>
 8007796:	3407      	adds	r4, #7
 8007798:	7822      	ldrb	r2, [r4, #0]
 800779a:	4623      	mov	r3, r4
 800779c:	3401      	adds	r4, #1
 800779e:	2a20      	cmp	r2, #32
 80077a0:	d0fa      	beq.n	8007798 <process_cmd.constprop.0+0x184>
 80077a2:	2a09      	cmp	r2, #9
 80077a4:	d0f8      	beq.n	8007798 <process_cmd.constprop.0+0x184>
 80077a6:	2a30      	cmp	r2, #48	@ 0x30
 80077a8:	d123      	bne.n	80077f2 <process_cmd.constprop.0+0x1de>
 80077aa:	785a      	ldrb	r2, [r3, #1]
 80077ac:	f002 02df 	and.w	r2, r2, #223	@ 0xdf
 80077b0:	2a58      	cmp	r2, #88	@ 0x58
 80077b2:	d11e      	bne.n	80077f2 <process_cmd.constprop.0+0x1de>
 80077b4:	3302      	adds	r3, #2
 80077b6:	2610      	movs	r6, #16
 80077b8:	461a      	mov	r2, r3
 80077ba:	2700      	movs	r7, #0
 80077bc:	4615      	mov	r5, r2
 80077be:	f812 4b01 	ldrb.w	r4, [r2], #1
 80077c2:	b9c4      	cbnz	r4, 80077f6 <process_cmd.constprop.0+0x1e2>
 80077c4:	1e6a      	subs	r2, r5, #1
 80077c6:	f812 3f01 	ldrb.w	r3, [r2, #1]!
 80077ca:	2b20      	cmp	r3, #32
 80077cc:	d0fb      	beq.n	80077c6 <process_cmd.constprop.0+0x1b2>
 80077ce:	2b09      	cmp	r3, #9
 80077d0:	d0f9      	beq.n	80077c6 <process_cmd.constprop.0+0x1b2>
 80077d2:	b310      	cbz	r0, 800781a <process_cmd.constprop.0+0x206>
 80077d4:	bb0b      	cbnz	r3, 800781a <process_cmd.constprop.0+0x206>
 80077d6:	b307      	cbz	r7, 800781a <process_cmd.constprop.0+0x206>
 80077d8:	b2f8      	uxtb	r0, r7
 80077da:	f7f8 ff5d 	bl	8000698 <ACQ_SetChannelMask>
 80077de:	bb28      	cbnz	r0, 800782c <process_cmd.constprop.0+0x218>
 80077e0:	f7f8 ff42 	bl	8000668 <ACQ_GetActiveChannelCount>
 80077e4:	4604      	mov	r4, r0
 80077e6:	f7f8 ff4f 	bl	8000688 <ACQ_GetFrameBytes>
 80077ea:	463b      	mov	r3, r7
 80077ec:	e9cd 4000 	strd	r4, r0, [sp]
 80077f0:	e7c1      	b.n	8007776 <process_cmd.constprop.0+0x162>
 80077f2:	260a      	movs	r6, #10
 80077f4:	e7e0      	b.n	80077b8 <process_cmd.constprop.0+0x1a4>
 80077f6:	f1a4 0130 	sub.w	r1, r4, #48	@ 0x30
 80077fa:	b2cb      	uxtb	r3, r1
 80077fc:	2b09      	cmp	r3, #9
 80077fe:	d907      	bls.n	8007810 <process_cmd.constprop.0+0x1fc>
 8007800:	f1a4 0341 	sub.w	r3, r4, #65	@ 0x41
 8007804:	2b05      	cmp	r3, #5
 8007806:	d80a      	bhi.n	800781e <process_cmd.constprop.0+0x20a>
 8007808:	f1a4 0137 	sub.w	r1, r4, #55	@ 0x37
 800780c:	428e      	cmp	r6, r1
 800780e:	d904      	bls.n	800781a <process_cmd.constprop.0+0x206>
 8007810:	fb07 1706 	mla	r7, r7, r6, r1
 8007814:	2001      	movs	r0, #1
 8007816:	2f0f      	cmp	r7, #15
 8007818:	d9d0      	bls.n	80077bc <process_cmd.constprop.0+0x1a8>
 800781a:	492e      	ldr	r1, [pc, #184]	@ (80078d4 <process_cmd.constprop.0+0x2c0>)
 800781c:	e007      	b.n	800782e <process_cmd.constprop.0+0x21a>
 800781e:	f1a4 0361 	sub.w	r3, r4, #97	@ 0x61
 8007822:	2b05      	cmp	r3, #5
 8007824:	d8ce      	bhi.n	80077c4 <process_cmd.constprop.0+0x1b0>
 8007826:	f1a4 0157 	sub.w	r1, r4, #87	@ 0x57
 800782a:	e7ef      	b.n	800780c <process_cmd.constprop.0+0x1f8>
 800782c:	492a      	ldr	r1, [pc, #168]	@ (80078d8 <process_cmd.constprop.0+0x2c4>)
 800782e:	482b      	ldr	r0, [pc, #172]	@ (80078dc <process_cmd.constprop.0+0x2c8>)
 8007830:	e72c      	b.n	800768c <process_cmd.constprop.0+0x78>
 8007832:	492b      	ldr	r1, [pc, #172]	@ (80078e0 <process_cmd.constprop.0+0x2cc>)
 8007834:	4620      	mov	r0, r4
 8007836:	f7f8 fcf3 	bl	8000220 <strcmp>
 800783a:	b9b8      	cbnz	r0, 800786c <process_cmd.constprop.0+0x258>
 800783c:	f7f9 fa3a 	bl	8000cb4 <ACQ_StreamWriteAddress>
 8007840:	f647 0330 	movw	r3, #30768	@ 0x7830
 8007844:	f10d 0131 	add.w	r1, sp, #49	@ 0x31
 8007848:	4c26      	ldr	r4, [pc, #152]	@ (80078e4 <process_cmd.constprop.0+0x2d0>)
 800784a:	f8ad 3030 	strh.w	r3, [sp, #48]	@ 0x30
 800784e:	231c      	movs	r3, #28
 8007850:	fa20 f203 	lsr.w	r2, r0, r3
 8007854:	3b04      	subs	r3, #4
 8007856:	f002 020f 	and.w	r2, r2, #15
 800785a:	1d1d      	adds	r5, r3, #4
 800785c:	5ca2      	ldrb	r2, [r4, r2]
 800785e:	f801 2f01 	strb.w	r2, [r1, #1]!
 8007862:	d1f5      	bne.n	8007850 <process_cmd.constprop.0+0x23c>
 8007864:	2300      	movs	r3, #0
 8007866:	f88d 303a 	strb.w	r3, [sp, #58]	@ 0x3a
 800786a:	e78a      	b.n	8007782 <process_cmd.constprop.0+0x16e>
 800786c:	491e      	ldr	r1, [pc, #120]	@ (80078e8 <process_cmd.constprop.0+0x2d4>)
 800786e:	4620      	mov	r0, r4
 8007870:	f7f8 fcd6 	bl	8000220 <strcmp>
 8007874:	2800      	cmp	r0, #0
 8007876:	d13b      	bne.n	80078f0 <process_cmd.constprop.0+0x2dc>
 8007878:	f7f9 fcf6 	bl	8001268 <I2C_RequestRefresh>
 800787c:	491b      	ldr	r1, [pc, #108]	@ (80078ec <process_cmd.constprop.0+0x2d8>)
 800787e:	e704      	b.n	800768a <process_cmd.constprop.0+0x76>
 8007880:	20001bfc 	.word	0x20001bfc
 8007884:	00800013 	.word	0x00800013
 8007888:	08008e51 	.word	0x08008e51
 800788c:	08008e56 	.word	0x08008e56
 8007890:	08008e21 	.word	0x08008e21
 8007894:	08008e7d 	.word	0x08008e7d
 8007898:	08008e84 	.word	0x08008e84
 800789c:	08008ea3 	.word	0x08008ea3
 80078a0:	08008ea7 	.word	0x08008ea7
 80078a4:	200024e4 	.word	0x200024e4
 80078a8:	deadbeef 	.word	0xdeadbeef
 80078ac:	e000ed00 	.word	0xe000ed00
 80078b0:	05fa0004 	.word	0x05fa0004
 80078b4:	08008ec7 	.word	0x08008ec7
 80078b8:	08008ed0 	.word	0x08008ed0
 80078bc:	08008e1c 	.word	0x08008e1c
 80078c0:	08008e12 	.word	0x08008e12
 80078c4:	08008ed8 	.word	0x08008ed8
 80078c8:	08008ede 	.word	0x08008ede
 80078cc:	08008ee6 	.word	0x08008ee6
 80078d0:	08008ef7 	.word	0x08008ef7
 80078d4:	08008eff 	.word	0x08008eff
 80078d8:	08008f09 	.word	0x08008f09
 80078dc:	08008e25 	.word	0x08008e25
 80078e0:	08008f0e 	.word	0x08008f0e
 80078e4:	08009ca9 	.word	0x08009ca9
 80078e8:	08008f14 	.word	0x08008f14
 80078ec:	08008f20 	.word	0x08008f20
 80078f0:	499b      	ldr	r1, [pc, #620]	@ (8007b60 <process_cmd.constprop.0+0x54c>)
 80078f2:	4620      	mov	r0, r4
 80078f4:	f7f8 fc94 	bl	8000220 <strcmp>
 80078f8:	bb30      	cbnz	r0, 8007948 <process_cmd.constprop.0+0x334>
 80078fa:	4b9a      	ldr	r3, [pc, #616]	@ (8007b64 <process_cmd.constprop.0+0x550>)
 80078fc:	eefe 6a00 	vmov.f32	s13, #224	@ 0xbf000000 -0.5
 8007900:	eef6 7a00 	vmov.f32	s15, #96	@ 0x3f000000  0.5
 8007904:	210a      	movs	r1, #10
 8007906:	ed93 7a00 	vldr	s14, [r3]
 800790a:	eeb5 7ac0 	vcmpe.f32	s14, #0.0
 800790e:	eef1 fa10 	vmrs	APSR_nzcv, fpscr
 8007912:	fe67 7aa6 	vselge.f32	s15, s15, s13
 8007916:	eef2 6a04 	vmov.f32	s13, #36	@ 0x41200000  10.0
 800791a:	ee47 7a26 	vmla.f32	s15, s14, s13
 800791e:	eefd 7ae7 	vcvt.s32.f32	s15, s15
 8007922:	ee17 3a90 	vmov	r3, s15
 8007926:	ea83 72e3 	eor.w	r2, r3, r3, asr #31
 800792a:	eba2 72e3 	sub.w	r2, r2, r3, asr #31
 800792e:	fbb2 f0f1 	udiv	r0, r2, r1
 8007932:	fb93 f3f1 	sdiv	r3, r3, r1
 8007936:	fb01 2210 	mls	r2, r1, r0, r2
 800793a:	9200      	str	r2, [sp, #0]
 800793c:	4a8a      	ldr	r2, [pc, #552]	@ (8007b68 <process_cmd.constprop.0+0x554>)
 800793e:	2120      	movs	r1, #32
 8007940:	a80c      	add	r0, sp, #48	@ 0x30
 8007942:	f000 fe27 	bl	8008594 <sniprintf>
 8007946:	e71c      	b.n	8007782 <process_cmd.constprop.0+0x16e>
 8007948:	4988      	ldr	r1, [pc, #544]	@ (8007b6c <process_cmd.constprop.0+0x558>)
 800794a:	4620      	mov	r0, r4
 800794c:	f7f8 fc68 	bl	8000220 <strcmp>
 8007950:	b998      	cbnz	r0, 800797a <process_cmd.constprop.0+0x366>
 8007952:	4b84      	ldr	r3, [pc, #528]	@ (8007b64 <process_cmd.constprop.0+0x550>)
 8007954:	eeb2 7a04 	vmov.f32	s14, #36	@ 0x41200000  10.0
 8007958:	eef6 7a00 	vmov.f32	s15, #96	@ 0x3f000000  0.5
 800795c:	210a      	movs	r1, #10
 800795e:	edd3 6a01 	vldr	s13, [r3, #4]
 8007962:	eee6 7a87 	vfma.f32	s15, s13, s14
 8007966:	eefd 7ae7 	vcvt.s32.f32	s15, s15
 800796a:	ee17 2a90 	vmov	r2, s15
 800796e:	fb92 f3f1 	sdiv	r3, r2, r1
 8007972:	fb01 2213 	mls	r2, r1, r3, r2
 8007976:	9200      	str	r2, [sp, #0]
 8007978:	e7e0      	b.n	800793c <process_cmd.constprop.0+0x328>
 800797a:	2e4f      	cmp	r6, #79	@ 0x4f
 800797c:	d147      	bne.n	8007a0e <process_cmd.constprop.0+0x3fa>
 800797e:	7863      	ldrb	r3, [r4, #1]
 8007980:	2b53      	cmp	r3, #83	@ 0x53
 8007982:	d144      	bne.n	8007a0e <process_cmd.constprop.0+0x3fa>
 8007984:	78a3      	ldrb	r3, [r4, #2]
 8007986:	f013 0fdf 	tst.w	r3, #223	@ 0xdf
 800798a:	d003      	beq.n	8007994 <process_cmd.constprop.0+0x380>
 800798c:	2b09      	cmp	r3, #9
 800798e:	d001      	beq.n	8007994 <process_cmd.constprop.0+0x380>
 8007990:	2b3f      	cmp	r3, #63	@ 0x3f
 8007992:	d13c      	bne.n	8007a0e <process_cmd.constprop.0+0x3fa>
 8007994:	3402      	adds	r4, #2
 8007996:	4620      	mov	r0, r4
 8007998:	f814 3b01 	ldrb.w	r3, [r4], #1
 800799c:	2b20      	cmp	r3, #32
 800799e:	d0fa      	beq.n	8007996 <process_cmd.constprop.0+0x382>
 80079a0:	2b09      	cmp	r3, #9
 80079a2:	d0f8      	beq.n	8007996 <process_cmd.constprop.0+0x382>
 80079a4:	2b3f      	cmp	r3, #63	@ 0x3f
 80079a6:	d121      	bne.n	80079ec <process_cmd.constprop.0+0x3d8>
 80079a8:	2180      	movs	r1, #128	@ 0x80
 80079aa:	4871      	ldr	r0, [pc, #452]	@ (8007b70 <process_cmd.constprop.0+0x55c>)
 80079ac:	f7fb f950 	bl	8002c50 <HAL_GPIO_ReadPin>
 80079b0:	f44f 7180 	mov.w	r1, #256	@ 0x100
 80079b4:	4605      	mov	r5, r0
 80079b6:	486e      	ldr	r0, [pc, #440]	@ (8007b70 <process_cmd.constprop.0+0x55c>)
 80079b8:	f7fb f94a 	bl	8002c50 <HAL_GPIO_ReadPin>
 80079bc:	4604      	mov	r4, r0
 80079be:	f44f 7100 	mov.w	r1, #512	@ 0x200
 80079c2:	486b      	ldr	r0, [pc, #428]	@ (8007b70 <process_cmd.constprop.0+0x55c>)
 80079c4:	f7fb f944 	bl	8002c50 <HAL_GPIO_ReadPin>
 80079c8:	1e61      	subs	r1, r4, #1
 80079ca:	3801      	subs	r0, #1
 80079cc:	424c      	negs	r4, r1
 80079ce:	414c      	adcs	r4, r1
 80079d0:	4242      	negs	r2, r0
 80079d2:	4142      	adcs	r2, r0
 80079d4:	0092      	lsls	r2, r2, #2
 80079d6:	ea42 0244 	orr.w	r2, r2, r4, lsl #1
 80079da:	2d01      	cmp	r5, #1
 80079dc:	bf08      	it	eq
 80079de:	f042 0201 	orreq.w	r2, r2, #1
 80079e2:	2104      	movs	r1, #4
 80079e4:	a80c      	add	r0, sp, #48	@ 0x30
 80079e6:	f7ff fd7f 	bl	80074e8 <u32_to_dec>
 80079ea:	e6ca      	b.n	8007782 <process_cmd.constprop.0+0x16e>
 80079ec:	2300      	movs	r3, #0
 80079ee:	a908      	add	r1, sp, #32
 80079f0:	9308      	str	r3, [sp, #32]
 80079f2:	f7ff fda2 	bl	800753a <parse_u32.constprop.0>
 80079f6:	2800      	cmp	r0, #0
 80079f8:	f43f af0f 	beq.w	800781a <process_cmd.constprop.0+0x206>
 80079fc:	9c08      	ldr	r4, [sp, #32]
 80079fe:	2c07      	cmp	r4, #7
 8007a00:	f63f af0b 	bhi.w	800781a <process_cmd.constprop.0+0x206>
 8007a04:	4620      	mov	r0, r4
 8007a06:	f7f9 f9a3 	bl	8000d50 <AD7606_SetOversampling>
 8007a0a:	4622      	mov	r2, r4
 8007a0c:	e7e9      	b.n	80079e2 <process_cmd.constprop.0+0x3ce>
 8007a0e:	4959      	ldr	r1, [pc, #356]	@ (8007b74 <process_cmd.constprop.0+0x560>)
 8007a10:	4620      	mov	r0, r4
 8007a12:	f7f8 fc05 	bl	8000220 <strcmp>
 8007a16:	b920      	cbnz	r0, 8007a22 <process_cmd.constprop.0+0x40e>
 8007a18:	f7fa f938 	bl	8001c8c <SM_GetState>
 8007a1c:	210c      	movs	r1, #12
 8007a1e:	4602      	mov	r2, r0
 8007a20:	e7e0      	b.n	80079e4 <process_cmd.constprop.0+0x3d0>
 8007a22:	2e53      	cmp	r6, #83	@ 0x53
 8007a24:	d162      	bne.n	8007aec <process_cmd.constprop.0+0x4d8>
 8007a26:	7863      	ldrb	r3, [r4, #1]
 8007a28:	2b4e      	cmp	r3, #78	@ 0x4e
 8007a2a:	d15f      	bne.n	8007aec <process_cmd.constprop.0+0x4d8>
 8007a2c:	78a3      	ldrb	r3, [r4, #2]
 8007a2e:	2b41      	cmp	r3, #65	@ 0x41
 8007a30:	d15c      	bne.n	8007aec <process_cmd.constprop.0+0x4d8>
 8007a32:	78e3      	ldrb	r3, [r4, #3]
 8007a34:	2b50      	cmp	r3, #80	@ 0x50
 8007a36:	d159      	bne.n	8007aec <process_cmd.constprop.0+0x4d8>
 8007a38:	7923      	ldrb	r3, [r4, #4]
 8007a3a:	f013 0fdf 	tst.w	r3, #223	@ 0xdf
 8007a3e:	d003      	beq.n	8007a48 <process_cmd.constprop.0+0x434>
 8007a40:	2b09      	cmp	r3, #9
 8007a42:	d001      	beq.n	8007a48 <process_cmd.constprop.0+0x434>
 8007a44:	2b3f      	cmp	r3, #63	@ 0x3f
 8007a46:	d151      	bne.n	8007aec <process_cmd.constprop.0+0x4d8>
 8007a48:	3404      	adds	r4, #4
 8007a4a:	4625      	mov	r5, r4
 8007a4c:	f814 3b01 	ldrb.w	r3, [r4], #1
 8007a50:	2b20      	cmp	r3, #32
 8007a52:	d0fa      	beq.n	8007a4a <process_cmd.constprop.0+0x436>
 8007a54:	2b09      	cmp	r3, #9
 8007a56:	d0f8      	beq.n	8007a4a <process_cmd.constprop.0+0x436>
 8007a58:	2b3f      	cmp	r3, #63	@ 0x3f
 8007a5a:	d125      	bne.n	8007aa8 <process_cmd.constprop.0+0x494>
 8007a5c:	a808      	add	r0, sp, #32
 8007a5e:	f7f9 f81d 	bl	8000a9c <ACQ_Snapshot_Read_adc>
 8007a62:	b9a8      	cbnz	r0, 8007a90 <process_cmd.constprop.0+0x47c>
 8007a64:	4b44      	ldr	r3, [pc, #272]	@ (8007b78 <process_cmd.constprop.0+0x564>)
 8007a66:	2180      	movs	r1, #128	@ 0x80
 8007a68:	a80c      	add	r0, sp, #48	@ 0x30
 8007a6a:	78da      	ldrb	r2, [r3, #3]
 8007a6c:	9206      	str	r2, [sp, #24]
 8007a6e:	789a      	ldrb	r2, [r3, #2]
 8007a70:	9205      	str	r2, [sp, #20]
 8007a72:	785a      	ldrb	r2, [r3, #1]
 8007a74:	9204      	str	r2, [sp, #16]
 8007a76:	781b      	ldrb	r3, [r3, #0]
 8007a78:	4a40      	ldr	r2, [pc, #256]	@ (8007b7c <process_cmd.constprop.0+0x568>)
 8007a7a:	9303      	str	r3, [sp, #12]
 8007a7c:	9b0b      	ldr	r3, [sp, #44]	@ 0x2c
 8007a7e:	9302      	str	r3, [sp, #8]
 8007a80:	9b0a      	ldr	r3, [sp, #40]	@ 0x28
 8007a82:	9301      	str	r3, [sp, #4]
 8007a84:	9b09      	ldr	r3, [sp, #36]	@ 0x24
 8007a86:	9300      	str	r3, [sp, #0]
 8007a88:	9b08      	ldr	r3, [sp, #32]
 8007a8a:	f000 fd83 	bl	8008594 <sniprintf>
 8007a8e:	e678      	b.n	8007782 <process_cmd.constprop.0+0x16e>
 8007a90:	2802      	cmp	r0, #2
 8007a92:	bf07      	ittee	eq
 8007a94:	493a      	ldreq	r1, [pc, #232]	@ (8007b80 <process_cmd.constprop.0+0x56c>)
 8007a96:	483b      	ldreq	r0, [pc, #236]	@ (8007b84 <process_cmd.constprop.0+0x570>)
 8007a98:	493b      	ldrne	r1, [pc, #236]	@ (8007b88 <process_cmd.constprop.0+0x574>)
 8007a9a:	483c      	ldrne	r0, [pc, #240]	@ (8007b8c <process_cmd.constprop.0+0x578>)
 8007a9c:	f7ff fd94 	bl	80075c8 <send_line>
 8007aa0:	b02d      	add	sp, #180	@ 0xb4
 8007aa2:	ecbd 8b02 	vpop	{d8}
 8007aa6:	bdf0      	pop	{r4, r5, r6, r7, pc}
 8007aa8:	4939      	ldr	r1, [pc, #228]	@ (8007b90 <process_cmd.constprop.0+0x57c>)
 8007aaa:	4628      	mov	r0, r5
 8007aac:	f7f8 fbb8 	bl	8000220 <strcmp>
 8007ab0:	b930      	cbnz	r0, 8007ac0 <process_cmd.constprop.0+0x4ac>
 8007ab2:	f7f8 ffdd 	bl	8000a70 <ACQ_Snapshot_Cancel>
 8007ab6:	b908      	cbnz	r0, 8007abc <process_cmd.constprop.0+0x4a8>
 8007ab8:	4931      	ldr	r1, [pc, #196]	@ (8007b80 <process_cmd.constprop.0+0x56c>)
 8007aba:	e5e6      	b.n	800768a <process_cmd.constprop.0+0x76>
 8007abc:	4935      	ldr	r1, [pc, #212]	@ (8007b94 <process_cmd.constprop.0+0x580>)
 8007abe:	e6b6      	b.n	800782e <process_cmd.constprop.0+0x21a>
 8007ac0:	2300      	movs	r3, #0
 8007ac2:	a90c      	add	r1, sp, #48	@ 0x30
 8007ac4:	4628      	mov	r0, r5
 8007ac6:	930c      	str	r3, [sp, #48]	@ 0x30
 8007ac8:	f7ff fd37 	bl	800753a <parse_u32.constprop.0>
 8007acc:	2800      	cmp	r0, #0
 8007ace:	f43f aea4 	beq.w	800781a <process_cmd.constprop.0+0x206>
 8007ad2:	980c      	ldr	r0, [sp, #48]	@ 0x30
 8007ad4:	1e43      	subs	r3, r0, #1
 8007ad6:	2b3f      	cmp	r3, #63	@ 0x3f
 8007ad8:	f63f ae9f 	bhi.w	800781a <process_cmd.constprop.0+0x206>
 8007adc:	b2c0      	uxtb	r0, r0
 8007ade:	f7f8 ff79 	bl	80009d4 <ACQ_Snapshot_Arm>
 8007ae2:	b908      	cbnz	r0, 8007ae8 <process_cmd.constprop.0+0x4d4>
 8007ae4:	492c      	ldr	r1, [pc, #176]	@ (8007b98 <process_cmd.constprop.0+0x584>)
 8007ae6:	e5d0      	b.n	800768a <process_cmd.constprop.0+0x76>
 8007ae8:	492c      	ldr	r1, [pc, #176]	@ (8007b9c <process_cmd.constprop.0+0x588>)
 8007aea:	e6a0      	b.n	800782e <process_cmd.constprop.0+0x21a>
 8007aec:	2207      	movs	r2, #7
 8007aee:	492c      	ldr	r1, [pc, #176]	@ (8007ba0 <process_cmd.constprop.0+0x58c>)
 8007af0:	4620      	mov	r0, r4
 8007af2:	f000 fd99 	bl	8008628 <strncmp>
 8007af6:	b9f8      	cbnz	r0, 8007b38 <process_cmd.constprop.0+0x524>
 8007af8:	3407      	adds	r4, #7
 8007afa:	4620      	mov	r0, r4
 8007afc:	f814 3b01 	ldrb.w	r3, [r4], #1
 8007b00:	2b20      	cmp	r3, #32
 8007b02:	d0fa      	beq.n	8007afa <process_cmd.constprop.0+0x4e6>
 8007b04:	2b09      	cmp	r3, #9
 8007b06:	d0f8      	beq.n	8007afa <process_cmd.constprop.0+0x4e6>
 8007b08:	2300      	movs	r3, #0
 8007b0a:	a90c      	add	r1, sp, #48	@ 0x30
 8007b0c:	930c      	str	r3, [sp, #48]	@ 0x30
 8007b0e:	f7ff fd14 	bl	800753a <parse_u32.constprop.0>
 8007b12:	2800      	cmp	r0, #0
 8007b14:	f43f ae81 	beq.w	800781a <process_cmd.constprop.0+0x206>
 8007b18:	980c      	ldr	r0, [sp, #48]	@ 0x30
 8007b1a:	2800      	cmp	r0, #0
 8007b1c:	f43f ae7d 	beq.w	800781a <process_cmd.constprop.0+0x206>
 8007b20:	f7f8 fe2e 	bl	8000780 <ACQ_Arm>
 8007b24:	491d      	ldr	r1, [pc, #116]	@ (8007b9c <process_cmd.constprop.0+0x588>)
 8007b26:	2800      	cmp	r0, #0
 8007b28:	4b1e      	ldr	r3, [pc, #120]	@ (8007ba4 <process_cmd.constprop.0+0x590>)
 8007b2a:	bf08      	it	eq
 8007b2c:	4619      	moveq	r1, r3
 8007b2e:	4b1e      	ldr	r3, [pc, #120]	@ (8007ba8 <process_cmd.constprop.0+0x594>)
 8007b30:	4816      	ldr	r0, [pc, #88]	@ (8007b8c <process_cmd.constprop.0+0x578>)
 8007b32:	bf08      	it	eq
 8007b34:	4618      	moveq	r0, r3
 8007b36:	e5a9      	b.n	800768c <process_cmd.constprop.0+0x78>
 8007b38:	491c      	ldr	r1, [pc, #112]	@ (8007bac <process_cmd.constprop.0+0x598>)
 8007b3a:	4620      	mov	r0, r4
 8007b3c:	f7f8 fb70 	bl	8000220 <strcmp>
 8007b40:	b928      	cbnz	r0, 8007b4e <process_cmd.constprop.0+0x53a>
 8007b42:	f7f8 fe49 	bl	80007d8 <ACQ_StartStream>
 8007b46:	491a      	ldr	r1, [pc, #104]	@ (8007bb0 <process_cmd.constprop.0+0x59c>)
 8007b48:	2800      	cmp	r0, #0
 8007b4a:	4b1a      	ldr	r3, [pc, #104]	@ (8007bb4 <process_cmd.constprop.0+0x5a0>)
 8007b4c:	e7ed      	b.n	8007b2a <process_cmd.constprop.0+0x516>
 8007b4e:	491a      	ldr	r1, [pc, #104]	@ (8007bb8 <process_cmd.constprop.0+0x5a4>)
 8007b50:	4620      	mov	r0, r4
 8007b52:	f7f8 fb65 	bl	8000220 <strcmp>
 8007b56:	bb98      	cbnz	r0, 8007bc0 <process_cmd.constprop.0+0x5ac>
 8007b58:	f7f8 fef6 	bl	8000948 <ACQ_StopStream>
 8007b5c:	4917      	ldr	r1, [pc, #92]	@ (8007bbc <process_cmd.constprop.0+0x5a8>)
 8007b5e:	e594      	b.n	800768a <process_cmd.constprop.0+0x76>
 8007b60:	08008ff7 	.word	0x08008ff7
 8007b64:	200001ec 	.word	0x200001ec
 8007b68:	08008f30 	.word	0x08008f30
 8007b6c:	08008f36 	.word	0x08008f36
 8007b70:	40020400 	.word	0x40020400
 8007b74:	08008f3b 	.word	0x08008f3b
 8007b78:	200001e5 	.word	0x200001e5
 8007b7c:	08008f42 	.word	0x08008f42
 8007b80:	08008e11 	.word	0x08008e11
 8007b84:	08008f09 	.word	0x08008f09
 8007b88:	08008f60 	.word	0x08008f60
 8007b8c:	08008e25 	.word	0x08008e25
 8007b90:	08008f6c 	.word	0x08008f6c
 8007b94:	08008f73 	.word	0x08008f73
 8007b98:	08008f7e 	.word	0x08008f7e
 8007b9c:	08008e2a 	.word	0x08008e2a
 8007ba0:	08008f89 	.word	0x08008f89
 8007ba4:	08008e4b 	.word	0x08008e4b
 8007ba8:	08008e21 	.word	0x08008e21
 8007bac:	08008f91 	.word	0x08008f91
 8007bb0:	08008e3b 	.word	0x08008e3b
 8007bb4:	08008e33 	.word	0x08008e33
 8007bb8:	08008f9b 	.word	0x08008f9b
 8007bbc:	08008fa4 	.word	0x08008fa4
 8007bc0:	2207      	movs	r2, #7
 8007bc2:	49a5      	ldr	r1, [pc, #660]	@ (8007e58 <process_cmd.constprop.0+0x844>)
 8007bc4:	4620      	mov	r0, r4
 8007bc6:	f000 fd2f 	bl	8008628 <strncmp>
 8007bca:	bbb0      	cbnz	r0, 8007c3a <process_cmd.constprop.0+0x626>
 8007bcc:	3407      	adds	r4, #7
 8007bce:	4623      	mov	r3, r4
 8007bd0:	4620      	mov	r0, r4
 8007bd2:	f813 2b01 	ldrb.w	r2, [r3], #1
 8007bd6:	2a20      	cmp	r2, #32
 8007bd8:	d025      	beq.n	8007c26 <process_cmd.constprop.0+0x612>
 8007bda:	2a09      	cmp	r2, #9
 8007bdc:	d023      	beq.n	8007c26 <process_cmd.constprop.0+0x612>
 8007bde:	4625      	mov	r5, r4
 8007be0:	f814 6b01 	ldrb.w	r6, [r4], #1
 8007be4:	b11e      	cbz	r6, 8007bee <process_cmd.constprop.0+0x5da>
 8007be6:	2e20      	cmp	r6, #32
 8007be8:	d001      	beq.n	8007bee <process_cmd.constprop.0+0x5da>
 8007bea:	2e09      	cmp	r6, #9
 8007bec:	d1f7      	bne.n	8007bde <process_cmd.constprop.0+0x5ca>
 8007bee:	2300      	movs	r3, #0
 8007bf0:	a90c      	add	r1, sp, #48	@ 0x30
 8007bf2:	702b      	strb	r3, [r5, #0]
 8007bf4:	930c      	str	r3, [sp, #48]	@ 0x30
 8007bf6:	f7ff fca0 	bl	800753a <parse_u32.constprop.0>
 8007bfa:	462b      	mov	r3, r5
 8007bfc:	f803 6901 	strb.w	r6, [r3], #-1
 8007c00:	f813 2f01 	ldrb.w	r2, [r3, #1]!
 8007c04:	2a20      	cmp	r2, #32
 8007c06:	d0fb      	beq.n	8007c00 <process_cmd.constprop.0+0x5ec>
 8007c08:	2a09      	cmp	r2, #9
 8007c0a:	d0f9      	beq.n	8007c00 <process_cmd.constprop.0+0x5ec>
 8007c0c:	2800      	cmp	r0, #0
 8007c0e:	f43f ae04 	beq.w	800781a <process_cmd.constprop.0+0x206>
 8007c12:	980c      	ldr	r0, [sp, #48]	@ 0x30
 8007c14:	2800      	cmp	r0, #0
 8007c16:	f43f ae00 	beq.w	800781a <process_cmd.constprop.0+0x206>
 8007c1a:	2a52      	cmp	r2, #82	@ 0x52
 8007c1c:	d005      	beq.n	8007c2a <process_cmd.constprop.0+0x616>
 8007c1e:	2a46      	cmp	r2, #70	@ 0x46
 8007c20:	d004      	beq.n	8007c2c <process_cmd.constprop.0+0x618>
 8007c22:	498e      	ldr	r1, [pc, #568]	@ (8007e5c <process_cmd.constprop.0+0x848>)
 8007c24:	e603      	b.n	800782e <process_cmd.constprop.0+0x21a>
 8007c26:	461c      	mov	r4, r3
 8007c28:	e7d1      	b.n	8007bce <process_cmd.constprop.0+0x5ba>
 8007c2a:	2701      	movs	r7, #1
 8007c2c:	4639      	mov	r1, r7
 8007c2e:	f7f8 fe07 	bl	8000840 <ACQ_ArmForTrigger>
 8007c32:	498b      	ldr	r1, [pc, #556]	@ (8007e60 <process_cmd.constprop.0+0x84c>)
 8007c34:	2800      	cmp	r0, #0
 8007c36:	4b8b      	ldr	r3, [pc, #556]	@ (8007e64 <process_cmd.constprop.0+0x850>)
 8007c38:	e777      	b.n	8007b2a <process_cmd.constprop.0+0x516>
 8007c3a:	498b      	ldr	r1, [pc, #556]	@ (8007e68 <process_cmd.constprop.0+0x854>)
 8007c3c:	4620      	mov	r0, r4
 8007c3e:	f7f8 faef 	bl	8000220 <strcmp>
 8007c42:	b910      	cbnz	r0, 8007c4a <process_cmd.constprop.0+0x636>
 8007c44:	f7fa faa2 	bl	800218c <TIM3_GetFreqHz>
 8007c48:	e582      	b.n	8007750 <process_cmd.constprop.0+0x13c>
 8007c4a:	2204      	movs	r2, #4
 8007c4c:	4987      	ldr	r1, [pc, #540]	@ (8007e6c <process_cmd.constprop.0+0x858>)
 8007c4e:	4620      	mov	r0, r4
 8007c50:	f000 fcea 	bl	8008628 <strncmp>
 8007c54:	b9e0      	cbnz	r0, 8007c90 <process_cmd.constprop.0+0x67c>
 8007c56:	7923      	ldrb	r3, [r4, #4]
 8007c58:	2b20      	cmp	r3, #32
 8007c5a:	d001      	beq.n	8007c60 <process_cmd.constprop.0+0x64c>
 8007c5c:	2b09      	cmp	r3, #9
 8007c5e:	d117      	bne.n	8007c90 <process_cmd.constprop.0+0x67c>
 8007c60:	3404      	adds	r4, #4
 8007c62:	4620      	mov	r0, r4
 8007c64:	f814 3b01 	ldrb.w	r3, [r4], #1
 8007c68:	2b20      	cmp	r3, #32
 8007c6a:	d0fa      	beq.n	8007c62 <process_cmd.constprop.0+0x64e>
 8007c6c:	2b09      	cmp	r3, #9
 8007c6e:	d0f8      	beq.n	8007c62 <process_cmd.constprop.0+0x64e>
 8007c70:	2300      	movs	r3, #0
 8007c72:	a90c      	add	r1, sp, #48	@ 0x30
 8007c74:	930c      	str	r3, [sp, #48]	@ 0x30
 8007c76:	f7ff fc60 	bl	800753a <parse_u32.constprop.0>
 8007c7a:	2800      	cmp	r0, #0
 8007c7c:	f43f adcd 	beq.w	800781a <process_cmd.constprop.0+0x206>
 8007c80:	980c      	ldr	r0, [sp, #48]	@ 0x30
 8007c82:	f7fa faa1 	bl	80021c8 <TIM3_SetFreqHz>
 8007c86:	2800      	cmp	r0, #0
 8007c88:	f43f af16 	beq.w	8007ab8 <process_cmd.constprop.0+0x4a4>
 8007c8c:	4978      	ldr	r1, [pc, #480]	@ (8007e70 <process_cmd.constprop.0+0x85c>)
 8007c8e:	e5ce      	b.n	800782e <process_cmd.constprop.0+0x21a>
 8007c90:	2205      	movs	r2, #5
 8007c92:	4978      	ldr	r1, [pc, #480]	@ (8007e74 <process_cmd.constprop.0+0x860>)
 8007c94:	4620      	mov	r0, r4
 8007c96:	f000 fcc7 	bl	8008628 <strncmp>
 8007c9a:	2800      	cmp	r0, #0
 8007c9c:	d136      	bne.n	8007d0c <process_cmd.constprop.0+0x6f8>
 8007c9e:	900c      	str	r0, [sp, #48]	@ 0x30
 8007ca0:	a90c      	add	r1, sp, #48	@ 0x30
 8007ca2:	1d60      	adds	r0, r4, #5
 8007ca4:	f7ff fc49 	bl	800753a <parse_u32.constprop.0>
 8007ca8:	2800      	cmp	r0, #0
 8007caa:	f43f adb6 	beq.w	800781a <process_cmd.constprop.0+0x206>
 8007cae:	9d0c      	ldr	r5, [sp, #48]	@ 0x30
 8007cb0:	2d00      	cmp	r5, #0
 8007cb2:	f43f adb2 	beq.w	800781a <process_cmd.constprop.0+0x206>
 8007cb6:	f7f8 fffd 	bl	8000cb4 <ACQ_StreamWriteAddress>
 8007cba:	f110 4480 	adds.w	r4, r0, #1073741824	@ 0x40000000
 8007cbe:	d101      	bne.n	8007cc4 <process_cmd.constprop.0+0x6b0>
 8007cc0:	496d      	ldr	r1, [pc, #436]	@ (8007e78 <process_cmd.constprop.0+0x864>)
 8007cc2:	e5b4      	b.n	800782e <process_cmd.constprop.0+0x21a>
 8007cc4:	f7f8 fce0 	bl	8000688 <ACQ_GetFrameBytes>
 8007cc8:	2800      	cmp	r0, #0
 8007cca:	bf08      	it	eq
 8007ccc:	2008      	moveq	r0, #8
 8007cce:	fbb4 f3f0 	udiv	r3, r4, r0
 8007cd2:	fb00 4313 	mls	r3, r0, r3, r4
 8007cd6:	1ae4      	subs	r4, r4, r3
 8007cd8:	42a5      	cmp	r5, r4
 8007cda:	bf88      	it	hi
 8007cdc:	940c      	strhi	r4, [sp, #48]	@ 0x30
 8007cde:	9b0c      	ldr	r3, [sp, #48]	@ 0x30
 8007ce0:	fbb3 f2f0 	udiv	r2, r3, r0
 8007ce4:	fb00 3212 	mls	r2, r0, r2, r3
 8007ce8:	1a9b      	subs	r3, r3, r2
 8007cea:	930c      	str	r3, [sp, #48]	@ 0x30
 8007cec:	2b00      	cmp	r3, #0
 8007cee:	f43f ad94 	beq.w	800781a <process_cmd.constprop.0+0x206>
 8007cf2:	4a62      	ldr	r2, [pc, #392]	@ (8007e7c <process_cmd.constprop.0+0x868>)
 8007cf4:	f04f 4140 	mov.w	r1, #3221225472	@ 0xc0000000
 8007cf8:	6011      	str	r1, [r2, #0]
 8007cfa:	4a61      	ldr	r2, [pc, #388]	@ (8007e80 <process_cmd.constprop.0+0x86c>)
 8007cfc:	6013      	str	r3, [r2, #0]
 8007cfe:	f3bf 8f5f 	dmb	sy
 8007d02:	2005      	movs	r0, #5
 8007d04:	f7f9 ffbc 	bl	8001c80 <SM_SetState>
 8007d08:	495e      	ldr	r1, [pc, #376]	@ (8007e84 <process_cmd.constprop.0+0x870>)
 8007d0a:	e4be      	b.n	800768a <process_cmd.constprop.0+0x76>
 8007d0c:	495e      	ldr	r1, [pc, #376]	@ (8007e88 <process_cmd.constprop.0+0x874>)
 8007d0e:	4620      	mov	r0, r4
 8007d10:	f7f8 fa86 	bl	8000220 <strcmp>
 8007d14:	b928      	cbnz	r0, 8007d22 <process_cmd.constprop.0+0x70e>
 8007d16:	f7f8 fe29 	bl	800096c <ACQ_SoftReset>
 8007d1a:	f7ff fbb3 	bl	8007484 <USB_CDC_Clear>
 8007d1e:	495b      	ldr	r1, [pc, #364]	@ (8007e8c <process_cmd.constprop.0+0x878>)
 8007d20:	e4b3      	b.n	800768a <process_cmd.constprop.0+0x76>
 8007d22:	495b      	ldr	r1, [pc, #364]	@ (8007e90 <process_cmd.constprop.0+0x87c>)
 8007d24:	4620      	mov	r0, r4
 8007d26:	f7f8 fa7b 	bl	8000220 <strcmp>
 8007d2a:	4605      	mov	r5, r0
 8007d2c:	2800      	cmp	r0, #0
 8007d2e:	f040 80c1 	bne.w	8007eb4 <process_cmd.constprop.0+0x8a0>
 8007d32:	4601      	mov	r1, r0
 8007d34:	2210      	movs	r2, #16
 8007d36:	a80c      	add	r0, sp, #48	@ 0x30
 8007d38:	f000 fc6e 	bl	8008618 <memset>
 8007d3c:	4855      	ldr	r0, [pc, #340]	@ (8007e94 <process_cmd.constprop.0+0x880>)
 8007d3e:	f7fa fc93 	bl	8002668 <HAL_ADC_Stop>
 8007d42:	2301      	movs	r3, #1
 8007d44:	4a54      	ldr	r2, [pc, #336]	@ (8007e98 <process_cmd.constprop.0+0x884>)
 8007d46:	a90c      	add	r1, sp, #48	@ 0x30
 8007d48:	4852      	ldr	r0, [pc, #328]	@ (8007e94 <process_cmd.constprop.0+0x880>)
 8007d4a:	e9cd 230c 	strd	r2, r3, [sp, #48]	@ 0x30
 8007d4e:	2307      	movs	r3, #7
 8007d50:	e9cd 350e 	strd	r3, r5, [sp, #56]	@ 0x38
 8007d54:	f7fa fcfa 	bl	800274c <HAL_ADC_ConfigChannel>
 8007d58:	bb58      	cbnz	r0, 8007db2 <process_cmd.constprop.0+0x79e>
 8007d5a:	484e      	ldr	r0, [pc, #312]	@ (8007e94 <process_cmd.constprop.0+0x880>)
 8007d5c:	f7fa fc0c 	bl	8002578 <HAL_ADC_Start>
 8007d60:	bb38      	cbnz	r0, 8007db2 <process_cmd.constprop.0+0x79e>
 8007d62:	210a      	movs	r1, #10
 8007d64:	484b      	ldr	r0, [pc, #300]	@ (8007e94 <process_cmd.constprop.0+0x880>)
 8007d66:	f7fa fc9a 	bl	800269e <HAL_ADC_PollForConversion>
 8007d6a:	bb10      	cbnz	r0, 8007db2 <process_cmd.constprop.0+0x79e>
 8007d6c:	4849      	ldr	r0, [pc, #292]	@ (8007e94 <process_cmd.constprop.0+0x880>)
 8007d6e:	f7fa fce9 	bl	8002744 <HAL_ADC_GetValue>
 8007d72:	ee08 0a10 	vmov	s16, r0
 8007d76:	4847      	ldr	r0, [pc, #284]	@ (8007e94 <process_cmd.constprop.0+0x880>)
 8007d78:	f7fa fc76 	bl	8002668 <HAL_ADC_Stop>
 8007d7c:	eeb8 8a48 	vcvt.f32.u32	s16, s16
 8007d80:	eddf 7a46 	vldr	s15, [pc, #280]	@ 8007e9c <process_cmd.constprop.0+0x888>
 8007d84:	ed9f 7a46 	vldr	s14, [pc, #280]	@ 8007ea0 <process_cmd.constprop.0+0x88c>
 8007d88:	eec8 6a27 	vdiv.f32	s13, s16, s15
 8007d8c:	eddf 7a45 	vldr	s15, [pc, #276]	@ 8007ea4 <process_cmd.constprop.0+0x890>
 8007d90:	eea6 7aa7 	vfma.f32	s14, s13, s15
 8007d94:	eddf 6a44 	vldr	s13, [pc, #272]	@ 8007ea8 <process_cmd.constprop.0+0x894>
 8007d98:	eec7 7a26 	vdiv.f32	s15, s14, s13
 8007d9c:	eeb3 7a09 	vmov.f32	s14, #57	@ 0x41c80000  25.0
 8007da0:	ee77 7a87 	vadd.f32	s15, s15, s14
 8007da4:	ed9f 7a41 	vldr	s14, [pc, #260]	@ 8007eac <process_cmd.constprop.0+0x898>
 8007da8:	eef4 7ac7 	vcmpe.f32	s15, s14
 8007dac:	eef1 fa10 	vmrs	APSR_nzcv, fpscr
 8007db0:	d501      	bpl.n	8007db6 <process_cmd.constprop.0+0x7a2>
 8007db2:	493f      	ldr	r1, [pc, #252]	@ (8007eb0 <process_cmd.constprop.0+0x89c>)
 8007db4:	e53b      	b.n	800782e <process_cmd.constprop.0+0x21a>
 8007db6:	eef5 7ac0 	vcmpe.f32	s15, #0.0
 8007dba:	210a      	movs	r1, #10
 8007dbc:	eeb2 6a04 	vmov.f32	s12, #36	@ 0x41200000  10.0
 8007dc0:	eeb6 7a00 	vmov.f32	s14, #96	@ 0x3f000000  0.5
 8007dc4:	eef1 fa10 	vmrs	APSR_nzcv, fpscr
 8007dc8:	eef5 7ac0 	vcmpe.f32	s15, #0.0
 8007dcc:	bf4c      	ite	mi
 8007dce:	eef1 6a67 	vnegmi.f32	s13, s15
 8007dd2:	eef0 6a67 	vmovpl.f32	s13, s15
 8007dd6:	eef1 fa10 	vmrs	APSR_nzcv, fpscr
 8007dda:	eea6 7a86 	vfma.f32	s14, s13, s12
 8007dde:	eebd 7ac7 	vcvt.s32.f32	s14, s14
 8007de2:	ee17 2a10 	vmov	r2, s14
 8007de6:	fb92 f3f1 	sdiv	r3, r2, r1
 8007dea:	fb01 2213 	mls	r2, r1, r3, r2
 8007dee:	bf49      	itett	mi
 8007df0:	212d      	movmi	r1, #45	@ 0x2d
 8007df2:	2100      	movpl	r1, #0
 8007df4:	f88d 1030 	strbmi.w	r1, [sp, #48]	@ 0x30
 8007df8:	2101      	movmi	r1, #1
 8007dfa:	b193      	cbz	r3, 8007e22 <process_cmd.constprop.0+0x80e>
 8007dfc:	f89d 0020 	ldrb.w	r0, [sp, #32]
 8007e00:	f88d 0020 	strb.w	r0, [sp, #32]
 8007e04:	ae08      	add	r6, sp, #32
 8007e06:	4628      	mov	r0, r5
 8007e08:	240a      	movs	r4, #10
 8007e0a:	2b00      	cmp	r3, #0
 8007e0c:	dc0c      	bgt.n	8007e28 <process_cmd.constprop.0+0x814>
 8007e0e:	ac0c      	add	r4, sp, #48	@ 0x30
 8007e10:	4603      	mov	r3, r0
 8007e12:	ae08      	add	r6, sp, #32
 8007e14:	440c      	add	r4, r1
 8007e16:	b193      	cbz	r3, 8007e3e <process_cmd.constprop.0+0x82a>
 8007e18:	3b01      	subs	r3, #1
 8007e1a:	5d9d      	ldrb	r5, [r3, r6]
 8007e1c:	f804 5b01 	strb.w	r5, [r4], #1
 8007e20:	e7f9      	b.n	8007e16 <process_cmd.constprop.0+0x802>
 8007e22:	2030      	movs	r0, #48	@ 0x30
 8007e24:	2501      	movs	r5, #1
 8007e26:	e7eb      	b.n	8007e00 <process_cmd.constprop.0+0x7ec>
 8007e28:	280c      	cmp	r0, #12
 8007e2a:	d0f0      	beq.n	8007e0e <process_cmd.constprop.0+0x7fa>
 8007e2c:	fb93 f5f4 	sdiv	r5, r3, r4
 8007e30:	fb04 3315 	mls	r3, r4, r5, r3
 8007e34:	3330      	adds	r3, #48	@ 0x30
 8007e36:	5583      	strb	r3, [r0, r6]
 8007e38:	462b      	mov	r3, r5
 8007e3a:	3001      	adds	r0, #1
 8007e3c:	e7e5      	b.n	8007e0a <process_cmd.constprop.0+0x7f6>
 8007e3e:	30b0      	adds	r0, #176	@ 0xb0
 8007e40:	3230      	adds	r2, #48	@ 0x30
 8007e42:	4468      	add	r0, sp
 8007e44:	4408      	add	r0, r1
 8007e46:	212e      	movs	r1, #46	@ 0x2e
 8007e48:	f800 2c7f 	strb.w	r2, [r0, #-127]
 8007e4c:	f800 1c80 	strb.w	r1, [r0, #-128]
 8007e50:	f800 3c7e 	strb.w	r3, [r0, #-126]
 8007e54:	e495      	b.n	8007782 <process_cmd.constprop.0+0x16e>
 8007e56:	bf00      	nop
 8007e58:	08008fac 	.word	0x08008fac
 8007e5c:	08008fb4 	.word	0x08008fb4
 8007e60:	08008e2a 	.word	0x08008e2a
 8007e64:	08008e46 	.word	0x08008e46
 8007e68:	08008fbd 	.word	0x08008fbd
 8007e6c:	08008fc3 	.word	0x08008fc3
 8007e70:	08008fc8 	.word	0x08008fc8
 8007e74:	08008fd2 	.word	0x08008fd2
 8007e78:	08008fd8 	.word	0x08008fd8
 8007e7c:	20000910 	.word	0x20000910
 8007e80:	2000090c 	.word	0x2000090c
 8007e84:	08008fde 	.word	0x08008fde
 8007e88:	08008fe9 	.word	0x08008fe9
 8007e8c:	08008fed 	.word	0x08008fed
 8007e90:	08008ff3 	.word	0x08008ff3
 8007e94:	200008b8 	.word	0x200008b8
 8007e98:	10000012 	.word	0x10000012
 8007e9c:	457ff000 	.word	0x457ff000
 8007ea0:	bf428f5c 	.word	0xbf428f5c
 8007ea4:	40533333 	.word	0x40533333
 8007ea8:	3b23d70a 	.word	0x3b23d70a
 8007eac:	c479c000 	.word	0xc479c000
 8007eb0:	08008ffd 	.word	0x08008ffd
 8007eb4:	2e4c      	cmp	r6, #76	@ 0x4c
 8007eb6:	d132      	bne.n	8007f1e <process_cmd.constprop.0+0x90a>
 8007eb8:	7863      	ldrb	r3, [r4, #1]
 8007eba:	2b4f      	cmp	r3, #79	@ 0x4f
 8007ebc:	d12f      	bne.n	8007f1e <process_cmd.constprop.0+0x90a>
 8007ebe:	78a3      	ldrb	r3, [r4, #2]
 8007ec0:	2b47      	cmp	r3, #71	@ 0x47
 8007ec2:	d12c      	bne.n	8007f1e <process_cmd.constprop.0+0x90a>
 8007ec4:	78e3      	ldrb	r3, [r4, #3]
 8007ec6:	2b43      	cmp	r3, #67	@ 0x43
 8007ec8:	d129      	bne.n	8007f1e <process_cmd.constprop.0+0x90a>
 8007eca:	7923      	ldrb	r3, [r4, #4]
 8007ecc:	2b41      	cmp	r3, #65	@ 0x41
 8007ece:	d126      	bne.n	8007f1e <process_cmd.constprop.0+0x90a>
 8007ed0:	7963      	ldrb	r3, [r4, #5]
 8007ed2:	2b4c      	cmp	r3, #76	@ 0x4c
 8007ed4:	d123      	bne.n	8007f1e <process_cmd.constprop.0+0x90a>
 8007ed6:	79a3      	ldrb	r3, [r4, #6]
 8007ed8:	f013 0fdf 	tst.w	r3, #223	@ 0xdf
 8007edc:	d001      	beq.n	8007ee2 <process_cmd.constprop.0+0x8ce>
 8007ede:	2b09      	cmp	r3, #9
 8007ee0:	d11d      	bne.n	8007f1e <process_cmd.constprop.0+0x90a>
 8007ee2:	3406      	adds	r4, #6
 8007ee4:	4620      	mov	r0, r4
 8007ee6:	f814 3b01 	ldrb.w	r3, [r4], #1
 8007eea:	2b20      	cmp	r3, #32
 8007eec:	d0fa      	beq.n	8007ee4 <process_cmd.constprop.0+0x8d0>
 8007eee:	2b09      	cmp	r3, #9
 8007ef0:	d0f8      	beq.n	8007ee4 <process_cmd.constprop.0+0x8d0>
 8007ef2:	2300      	movs	r3, #0
 8007ef4:	a90c      	add	r1, sp, #48	@ 0x30
 8007ef6:	930c      	str	r3, [sp, #48]	@ 0x30
 8007ef8:	f7ff fb1f 	bl	800753a <parse_u32.constprop.0>
 8007efc:	2800      	cmp	r0, #0
 8007efe:	f43f ac8c 	beq.w	800781a <process_cmd.constprop.0+0x206>
 8007f02:	980c      	ldr	r0, [sp, #48]	@ 0x30
 8007f04:	1e43      	subs	r3, r0, #1
 8007f06:	2b03      	cmp	r3, #3
 8007f08:	f63f ac87 	bhi.w	800781a <process_cmd.constprop.0+0x206>
 8007f0c:	b2c0      	uxtb	r0, r0
 8007f0e:	f7f8 ffab 	bl	8000e68 <CALDUMP_Start>
 8007f12:	2007      	movs	r0, #7
 8007f14:	f7f9 feb4 	bl	8001c80 <SM_SetState>
 8007f18:	4902      	ldr	r1, [pc, #8]	@ (8007f24 <process_cmd.constprop.0+0x910>)
 8007f1a:	f7ff bbb6 	b.w	800768a <process_cmd.constprop.0+0x76>
 8007f1e:	4902      	ldr	r1, [pc, #8]	@ (8007f28 <process_cmd.constprop.0+0x914>)
 8007f20:	e485      	b.n	800782e <process_cmd.constprop.0+0x21a>
 8007f22:	bf00      	nop
 8007f24:	08009001 	.word	0x08009001
 8007f28:	08009010 	.word	0x08009010

08007f2c <CDC_Receive_HS>:
 8007f2c:	e92d 43f8 	stmdb	sp!, {r3, r4, r5, r6, r7, r8, r9, lr}
 8007f30:	4604      	mov	r4, r0
 8007f32:	460f      	mov	r7, r1
 8007f34:	2500      	movs	r5, #0
 8007f36:	4e17      	ldr	r6, [pc, #92]	@ (8007f94 <CDC_Receive_HS+0x68>)
 8007f38:	f8df 8068 	ldr.w	r8, [pc, #104]	@ 8007fa4 <CDC_Receive_HS+0x78>
 8007f3c:	683b      	ldr	r3, [r7, #0]
 8007f3e:	42ab      	cmp	r3, r5
 8007f40:	d809      	bhi.n	8007f56 <CDC_Receive_HS+0x2a>
 8007f42:	4621      	mov	r1, r4
 8007f44:	4814      	ldr	r0, [pc, #80]	@ (8007f98 <CDC_Receive_HS+0x6c>)
 8007f46:	f7fe fdbe 	bl	8006ac6 <USBD_CDC_SetRxBuffer>
 8007f4a:	4813      	ldr	r0, [pc, #76]	@ (8007f98 <CDC_Receive_HS+0x6c>)
 8007f4c:	f7fe fde2 	bl	8006b14 <USBD_CDC_ReceivePacket>
 8007f50:	2000      	movs	r0, #0
 8007f52:	e8bd 83f8 	ldmia.w	sp!, {r3, r4, r5, r6, r7, r8, r9, pc}
 8007f56:	5d62      	ldrb	r2, [r4, r5]
 8007f58:	6833      	ldr	r3, [r6, #0]
 8007f5a:	2a0d      	cmp	r2, #13
 8007f5c:	d001      	beq.n	8007f62 <CDC_Receive_HS+0x36>
 8007f5e:	2a0a      	cmp	r2, #10
 8007f60:	d10a      	bne.n	8007f78 <CDC_Receive_HS+0x4c>
 8007f62:	b13b      	cbz	r3, 8007f74 <CDC_Receive_HS+0x48>
 8007f64:	f04f 0900 	mov.w	r9, #0
 8007f68:	f808 9003 	strb.w	r9, [r8, r3]
 8007f6c:	f7ff fb52 	bl	8007614 <process_cmd.constprop.0>
 8007f70:	f8c6 9000 	str.w	r9, [r6]
 8007f74:	3501      	adds	r5, #1
 8007f76:	e7e1      	b.n	8007f3c <CDC_Receive_HS+0x10>
 8007f78:	1c59      	adds	r1, r3, #1
 8007f7a:	295f      	cmp	r1, #95	@ 0x5f
 8007f7c:	d803      	bhi.n	8007f86 <CDC_Receive_HS+0x5a>
 8007f7e:	6031      	str	r1, [r6, #0]
 8007f80:	f808 2003 	strb.w	r2, [r8, r3]
 8007f84:	e7f6      	b.n	8007f74 <CDC_Receive_HS+0x48>
 8007f86:	2300      	movs	r3, #0
 8007f88:	4904      	ldr	r1, [pc, #16]	@ (8007f9c <CDC_Receive_HS+0x70>)
 8007f8a:	4805      	ldr	r0, [pc, #20]	@ (8007fa0 <CDC_Receive_HS+0x74>)
 8007f8c:	6033      	str	r3, [r6, #0]
 8007f8e:	f7ff fb1b 	bl	80075c8 <send_line>
 8007f92:	e7ef      	b.n	8007f74 <CDC_Receive_HS+0x48>
 8007f94:	20001bf8 	.word	0x20001bf8
 8007f98:	2000091c 	.word	0x2000091c
 8007f9c:	0800901c 	.word	0x0800901c
 8007fa0:	08008e25 	.word	0x08008e25
 8007fa4:	20001bfc 	.word	0x20001bfc

08007fa8 <USBD_HS_DeviceDescriptor>:
 8007fa8:	2312      	movs	r3, #18
 8007faa:	4801      	ldr	r0, [pc, #4]	@ (8007fb0 <USBD_HS_DeviceDescriptor+0x8>)
 8007fac:	800b      	strh	r3, [r1, #0]
 8007fae:	4770      	bx	lr
 8007fb0:	200000f4 	.word	0x200000f4

08007fb4 <USBD_HS_LangIDStrDescriptor>:
 8007fb4:	2304      	movs	r3, #4
 8007fb6:	4801      	ldr	r0, [pc, #4]	@ (8007fbc <USBD_HS_LangIDStrDescriptor+0x8>)
 8007fb8:	800b      	strh	r3, [r1, #0]
 8007fba:	4770      	bx	lr
 8007fbc:	200000e4 	.word	0x200000e4

08007fc0 <USBD_HS_USR_BOSDescriptor>:
 8007fc0:	230c      	movs	r3, #12
 8007fc2:	4801      	ldr	r0, [pc, #4]	@ (8007fc8 <USBD_HS_USR_BOSDescriptor+0x8>)
 8007fc4:	800b      	strh	r3, [r1, #0]
 8007fc6:	4770      	bx	lr
 8007fc8:	200000e8 	.word	0x200000e8

08007fcc <IntToUnicode>:
 8007fcc:	2300      	movs	r3, #0
 8007fce:	b570      	push	{r4, r5, r6, lr}
 8007fd0:	1c4d      	adds	r5, r1, #1
 8007fd2:	461e      	mov	r6, r3
 8007fd4:	0f04      	lsrs	r4, r0, #28
 8007fd6:	f1b0 4f20 	cmp.w	r0, #2684354560	@ 0xa0000000
 8007fda:	ea4f 1000 	mov.w	r0, r0, lsl #4
 8007fde:	bf34      	ite	cc
 8007fe0:	3430      	addcc	r4, #48	@ 0x30
 8007fe2:	3437      	addcs	r4, #55	@ 0x37
 8007fe4:	f801 4013 	strb.w	r4, [r1, r3, lsl #1]
 8007fe8:	f805 6013 	strb.w	r6, [r5, r3, lsl #1]
 8007fec:	3301      	adds	r3, #1
 8007fee:	b2dc      	uxtb	r4, r3
 8007ff0:	42a2      	cmp	r2, r4
 8007ff2:	d8ef      	bhi.n	8007fd4 <IntToUnicode+0x8>
 8007ff4:	bd70      	pop	{r4, r5, r6, pc}
	...

08007ff8 <USBD_HS_SerialStrDescriptor>:
 8007ff8:	231a      	movs	r3, #26
 8007ffa:	b510      	push	{r4, lr}
 8007ffc:	800b      	strh	r3, [r1, #0]
 8007ffe:	4b0a      	ldr	r3, [pc, #40]	@ (8008028 <USBD_HS_SerialStrDescriptor+0x30>)
 8008000:	f8d3 0a10 	ldr.w	r0, [r3, #2576]	@ 0xa10
 8008004:	f8d3 2a18 	ldr.w	r2, [r3, #2584]	@ 0xa18
 8008008:	1880      	adds	r0, r0, r2
 800800a:	d00a      	beq.n	8008022 <USBD_HS_SerialStrDescriptor+0x2a>
 800800c:	f8d3 4a14 	ldr.w	r4, [r3, #2580]	@ 0xa14
 8008010:	2208      	movs	r2, #8
 8008012:	4906      	ldr	r1, [pc, #24]	@ (800802c <USBD_HS_SerialStrDescriptor+0x34>)
 8008014:	f7ff ffda 	bl	8007fcc <IntToUnicode>
 8008018:	2204      	movs	r2, #4
 800801a:	3110      	adds	r1, #16
 800801c:	4620      	mov	r0, r4
 800801e:	f7ff ffd5 	bl	8007fcc <IntToUnicode>
 8008022:	4803      	ldr	r0, [pc, #12]	@ (8008030 <USBD_HS_SerialStrDescriptor+0x38>)
 8008024:	bd10      	pop	{r4, pc}
 8008026:	bf00      	nop
 8008028:	1ff07000 	.word	0x1ff07000
 800802c:	200000ca 	.word	0x200000ca
 8008030:	200000c8 	.word	0x200000c8

08008034 <USBD_HS_ManufacturerStrDescriptor>:
 8008034:	b510      	push	{r4, lr}
 8008036:	4c04      	ldr	r4, [pc, #16]	@ (8008048 <USBD_HS_ManufacturerStrDescriptor+0x14>)
 8008038:	460a      	mov	r2, r1
 800803a:	4804      	ldr	r0, [pc, #16]	@ (800804c <USBD_HS_ManufacturerStrDescriptor+0x18>)
 800803c:	4621      	mov	r1, r4
 800803e:	f7ff f991 	bl	8007364 <USBD_GetString>
 8008042:	4620      	mov	r0, r4
 8008044:	bd10      	pop	{r4, pc}
 8008046:	bf00      	nop
 8008048:	20001cbc 	.word	0x20001cbc
 800804c:	0800902a 	.word	0x0800902a

08008050 <USBD_HS_ProductStrDescriptor>:
 8008050:	b510      	push	{r4, lr}
 8008052:	4c04      	ldr	r4, [pc, #16]	@ (8008064 <USBD_HS_ProductStrDescriptor+0x14>)
 8008054:	460a      	mov	r2, r1
 8008056:	4804      	ldr	r0, [pc, #16]	@ (8008068 <USBD_HS_ProductStrDescriptor+0x18>)
 8008058:	4621      	mov	r1, r4
 800805a:	f7ff f983 	bl	8007364 <USBD_GetString>
 800805e:	4620      	mov	r0, r4
 8008060:	bd10      	pop	{r4, pc}
 8008062:	bf00      	nop
 8008064:	20001cbc 	.word	0x20001cbc
 8008068:	0800903d 	.word	0x0800903d

0800806c <USBD_HS_ConfigStrDescriptor>:
 800806c:	b510      	push	{r4, lr}
 800806e:	4c04      	ldr	r4, [pc, #16]	@ (8008080 <USBD_HS_ConfigStrDescriptor+0x14>)
 8008070:	460a      	mov	r2, r1
 8008072:	4804      	ldr	r0, [pc, #16]	@ (8008084 <USBD_HS_ConfigStrDescriptor+0x18>)
 8008074:	4621      	mov	r1, r4
 8008076:	f7ff f975 	bl	8007364 <USBD_GetString>
 800807a:	4620      	mov	r0, r4
 800807c:	bd10      	pop	{r4, pc}
 800807e:	bf00      	nop
 8008080:	20001cbc 	.word	0x20001cbc
 8008084:	08009045 	.word	0x08009045

08008088 <USBD_HS_InterfaceStrDescriptor>:
 8008088:	b510      	push	{r4, lr}
 800808a:	4c04      	ldr	r4, [pc, #16]	@ (800809c <USBD_HS_InterfaceStrDescriptor+0x14>)
 800808c:	460a      	mov	r2, r1
 800808e:	4804      	ldr	r0, [pc, #16]	@ (80080a0 <USBD_HS_InterfaceStrDescriptor+0x18>)
 8008090:	4621      	mov	r1, r4
 8008092:	f7ff f967 	bl	8007364 <USBD_GetString>
 8008096:	4620      	mov	r0, r4
 8008098:	bd10      	pop	{r4, pc}
 800809a:	bf00      	nop
 800809c:	20001cbc 	.word	0x20001cbc
 80080a0:	08009050 	.word	0x08009050

080080a4 <HAL_PCD_MspInit>:
 80080a4:	b530      	push	{r4, r5, lr}
 80080a6:	b0ad      	sub	sp, #180	@ 0xb4
 80080a8:	4604      	mov	r4, r0
 80080aa:	2214      	movs	r2, #20
 80080ac:	2100      	movs	r1, #0
 80080ae:	a807      	add	r0, sp, #28
 80080b0:	f000 fab2 	bl	8008618 <memset>
 80080b4:	2280      	movs	r2, #128	@ 0x80
 80080b6:	2100      	movs	r1, #0
 80080b8:	a80c      	add	r0, sp, #48	@ 0x30
 80080ba:	f000 faad 	bl	8008618 <memset>
 80080be:	6823      	ldr	r3, [r4, #0]
 80080c0:	f1b3 4fa0 	cmp.w	r3, #1342177280	@ 0x50000000
 80080c4:	d135      	bne.n	8008132 <HAL_PCD_MspInit+0x8e>
 80080c6:	f44f 1300 	mov.w	r3, #2097152	@ 0x200000
 80080ca:	a80c      	add	r0, sp, #48	@ 0x30
 80080cc:	930c      	str	r3, [sp, #48]	@ 0x30
 80080ce:	f7fc fbd7 	bl	8004880 <HAL_RCCEx_PeriphCLKConfig>
 80080d2:	b108      	cbz	r0, 80080d8 <HAL_PCD_MspInit+0x34>
 80080d4:	f7f9 fdd2 	bl	8001c7c <Error_Handler>
 80080d8:	4c3a      	ldr	r4, [pc, #232]	@ (80081c4 <HAL_PCD_MspInit+0x120>)
 80080da:	f44f 51c0 	mov.w	r1, #6144	@ 0x1800
 80080de:	2000      	movs	r0, #0
 80080e0:	6b23      	ldr	r3, [r4, #48]	@ 0x30
 80080e2:	f043 0301 	orr.w	r3, r3, #1
 80080e6:	6323      	str	r3, [r4, #48]	@ 0x30
 80080e8:	6b23      	ldr	r3, [r4, #48]	@ 0x30
 80080ea:	f003 0301 	and.w	r3, r3, #1
 80080ee:	9300      	str	r3, [sp, #0]
 80080f0:	9b00      	ldr	r3, [sp, #0]
 80080f2:	2302      	movs	r3, #2
 80080f4:	e9cd 1307 	strd	r1, r3, [sp, #28]
 80080f8:	2303      	movs	r3, #3
 80080fa:	a907      	add	r1, sp, #28
 80080fc:	e9cd 0309 	strd	r0, r3, [sp, #36]	@ 0x24
 8008100:	230a      	movs	r3, #10
 8008102:	4831      	ldr	r0, [pc, #196]	@ (80081c8 <HAL_PCD_MspInit+0x124>)
 8008104:	930b      	str	r3, [sp, #44]	@ 0x2c
 8008106:	f7fa fccb 	bl	8002aa0 <HAL_GPIO_Init>
 800810a:	6b63      	ldr	r3, [r4, #52]	@ 0x34
 800810c:	f043 0380 	orr.w	r3, r3, #128	@ 0x80
 8008110:	6363      	str	r3, [r4, #52]	@ 0x34
 8008112:	6b63      	ldr	r3, [r4, #52]	@ 0x34
 8008114:	f003 0380 	and.w	r3, r3, #128	@ 0x80
 8008118:	9301      	str	r3, [sp, #4]
 800811a:	9b01      	ldr	r3, [sp, #4]
 800811c:	6c63      	ldr	r3, [r4, #68]	@ 0x44
 800811e:	f443 4380 	orr.w	r3, r3, #16384	@ 0x4000
 8008122:	6463      	str	r3, [r4, #68]	@ 0x44
 8008124:	6c63      	ldr	r3, [r4, #68]	@ 0x44
 8008126:	f403 4380 	and.w	r3, r3, #16384	@ 0x4000
 800812a:	9302      	str	r3, [sp, #8]
 800812c:	9b02      	ldr	r3, [sp, #8]
 800812e:	b02d      	add	sp, #180	@ 0xb4
 8008130:	bd30      	pop	{r4, r5, pc}
 8008132:	4a26      	ldr	r2, [pc, #152]	@ (80081cc <HAL_PCD_MspInit+0x128>)
 8008134:	4293      	cmp	r3, r2
 8008136:	d1fa      	bne.n	800812e <HAL_PCD_MspInit+0x8a>
 8008138:	f44f 1300 	mov.w	r3, #2097152	@ 0x200000
 800813c:	a80c      	add	r0, sp, #48	@ 0x30
 800813e:	930c      	str	r3, [sp, #48]	@ 0x30
 8008140:	f7fc fb9e 	bl	8004880 <HAL_RCCEx_PeriphCLKConfig>
 8008144:	b108      	cbz	r0, 800814a <HAL_PCD_MspInit+0xa6>
 8008146:	f7f9 fd99 	bl	8001c7c <Error_Handler>
 800814a:	4c1e      	ldr	r4, [pc, #120]	@ (80081c4 <HAL_PCD_MspInit+0x120>)
 800814c:	f44f 4240 	mov.w	r2, #49152	@ 0xc000
 8008150:	2500      	movs	r5, #0
 8008152:	a907      	add	r1, sp, #28
 8008154:	6b23      	ldr	r3, [r4, #48]	@ 0x30
 8008156:	481e      	ldr	r0, [pc, #120]	@ (80081d0 <HAL_PCD_MspInit+0x12c>)
 8008158:	f043 0302 	orr.w	r3, r3, #2
 800815c:	6323      	str	r3, [r4, #48]	@ 0x30
 800815e:	6b23      	ldr	r3, [r4, #48]	@ 0x30
 8008160:	f003 0302 	and.w	r3, r3, #2
 8008164:	9303      	str	r3, [sp, #12]
 8008166:	9b03      	ldr	r3, [sp, #12]
 8008168:	2302      	movs	r3, #2
 800816a:	e9cd 2307 	strd	r2, r3, [sp, #28]
 800816e:	2303      	movs	r3, #3
 8008170:	e9cd 5309 	strd	r5, r3, [sp, #36]	@ 0x24
 8008174:	230c      	movs	r3, #12
 8008176:	930b      	str	r3, [sp, #44]	@ 0x2c
 8008178:	f7fa fc92 	bl	8002aa0 <HAL_GPIO_Init>
 800817c:	6c63      	ldr	r3, [r4, #68]	@ 0x44
 800817e:	462a      	mov	r2, r5
 8008180:	4629      	mov	r1, r5
 8008182:	204d      	movs	r0, #77	@ 0x4d
 8008184:	f043 4300 	orr.w	r3, r3, #2147483648	@ 0x80000000
 8008188:	6463      	str	r3, [r4, #68]	@ 0x44
 800818a:	6c63      	ldr	r3, [r4, #68]	@ 0x44
 800818c:	f003 4300 	and.w	r3, r3, #2147483648	@ 0x80000000
 8008190:	9304      	str	r3, [sp, #16]
 8008192:	9b04      	ldr	r3, [sp, #16]
 8008194:	6b23      	ldr	r3, [r4, #48]	@ 0x30
 8008196:	f043 5300 	orr.w	r3, r3, #536870912	@ 0x20000000
 800819a:	6323      	str	r3, [r4, #48]	@ 0x30
 800819c:	6b23      	ldr	r3, [r4, #48]	@ 0x30
 800819e:	f003 5300 	and.w	r3, r3, #536870912	@ 0x20000000
 80081a2:	9305      	str	r3, [sp, #20]
 80081a4:	9b05      	ldr	r3, [sp, #20]
 80081a6:	6b23      	ldr	r3, [r4, #48]	@ 0x30
 80081a8:	f043 4380 	orr.w	r3, r3, #1073741824	@ 0x40000000
 80081ac:	6323      	str	r3, [r4, #48]	@ 0x30
 80081ae:	6b23      	ldr	r3, [r4, #48]	@ 0x30
 80081b0:	f003 4380 	and.w	r3, r3, #1073741824	@ 0x40000000
 80081b4:	9306      	str	r3, [sp, #24]
 80081b6:	9b06      	ldr	r3, [sp, #24]
 80081b8:	f7fa fb88 	bl	80028cc <HAL_NVIC_SetPriority>
 80081bc:	204d      	movs	r0, #77	@ 0x4d
 80081be:	f7fa fbb7 	bl	8002930 <HAL_NVIC_EnableIRQ>
 80081c2:	e7b4      	b.n	800812e <HAL_PCD_MspInit+0x8a>
 80081c4:	40023800 	.word	0x40023800
 80081c8:	40020000 	.word	0x40020000
 80081cc:	40040000 	.word	0x40040000
 80081d0:	40020400 	.word	0x40020400

080081d4 <HAL_PCD_SetupStageCallback>:
 80081d4:	f200 419c 	addw	r1, r0, #1180	@ 0x49c
 80081d8:	f8d0 04dc 	ldr.w	r0, [r0, #1244]	@ 0x4dc
 80081dc:	f7fe bcee 	b.w	8006bbc <USBD_LL_SetupStage>

080081e0 <HAL_PCD_DataOutStageCallback>:
 80081e0:	2324      	movs	r3, #36	@ 0x24
 80081e2:	fb03 0301 	mla	r3, r3, r1, r0
 80081e6:	f8d0 04dc 	ldr.w	r0, [r0, #1244]	@ 0x4dc
 80081ea:	f8d3 2260 	ldr.w	r2, [r3, #608]	@ 0x260
 80081ee:	f7fe bd15 	b.w	8006c1c <USBD_LL_DataOutStage>

080081f2 <HAL_PCD_DataInStageCallback>:
 80081f2:	2324      	movs	r3, #36	@ 0x24
 80081f4:	fb03 0301 	mla	r3, r3, r1, r0
 80081f8:	f8d0 04dc 	ldr.w	r0, [r0, #1244]	@ 0x4dc
 80081fc:	6a1a      	ldr	r2, [r3, #32]
 80081fe:	f7fe bd47 	b.w	8006c90 <USBD_LL_DataInStage>

08008202 <HAL_PCD_SOFCallback>:
 8008202:	f8d0 04dc 	ldr.w	r0, [r0, #1244]	@ 0x4dc
 8008206:	f7fe bde3 	b.w	8006dd0 <USBD_LL_SOF>

0800820a <HAL_PCD_ResetCallback>:
 800820a:	b510      	push	{r4, lr}
 800820c:	79c1      	ldrb	r1, [r0, #7]
 800820e:	4604      	mov	r4, r0
 8008210:	b121      	cbz	r1, 800821c <HAL_PCD_ResetCallback+0x12>
 8008212:	2902      	cmp	r1, #2
 8008214:	d001      	beq.n	800821a <HAL_PCD_ResetCallback+0x10>
 8008216:	f7f9 fd31 	bl	8001c7c <Error_Handler>
 800821a:	2101      	movs	r1, #1
 800821c:	f8d4 04dc 	ldr.w	r0, [r4, #1244]	@ 0x4dc
 8008220:	f7fe fdba 	bl	8006d98 <USBD_LL_SetSpeed>
 8008224:	f8d4 04dc 	ldr.w	r0, [r4, #1244]	@ 0x4dc
 8008228:	e8bd 4010 	ldmia.w	sp!, {r4, lr}
 800822c:	f7fe bd84 	b.w	8006d38 <USBD_LL_Reset>

08008230 <HAL_PCD_SuspendCallback>:
 8008230:	b510      	push	{r4, lr}
 8008232:	4604      	mov	r4, r0
 8008234:	f8d0 04dc 	ldr.w	r0, [r0, #1244]	@ 0x4dc
 8008238:	f7fe fdb1 	bl	8006d9e <USBD_LL_Suspend>
 800823c:	6822      	ldr	r2, [r4, #0]
 800823e:	f8d2 3e00 	ldr.w	r3, [r2, #3584]	@ 0xe00
 8008242:	f043 0301 	orr.w	r3, r3, #1
 8008246:	f8c2 3e00 	str.w	r3, [r2, #3584]	@ 0xe00
 800824a:	7ae3      	ldrb	r3, [r4, #11]
 800824c:	b123      	cbz	r3, 8008258 <HAL_PCD_SuspendCallback+0x28>
 800824e:	4a03      	ldr	r2, [pc, #12]	@ (800825c <HAL_PCD_SuspendCallback+0x2c>)
 8008250:	6913      	ldr	r3, [r2, #16]
 8008252:	f043 0306 	orr.w	r3, r3, #6
 8008256:	6113      	str	r3, [r2, #16]
 8008258:	bd10      	pop	{r4, pc}
 800825a:	bf00      	nop
 800825c:	e000ed00 	.word	0xe000ed00

08008260 <HAL_PCD_ResumeCallback>:
 8008260:	f8d0 04dc 	ldr.w	r0, [r0, #1244]	@ 0x4dc
 8008264:	f7fe bda9 	b.w	8006dba <USBD_LL_Resume>

08008268 <HAL_PCD_ISOOUTIncompleteCallback>:
 8008268:	f8d0 04dc 	ldr.w	r0, [r0, #1244]	@ 0x4dc
 800826c:	f7fe bdd0 	b.w	8006e10 <USBD_LL_IsoOUTIncomplete>

08008270 <HAL_PCD_ISOINIncompleteCallback>:
 8008270:	f8d0 04dc 	ldr.w	r0, [r0, #1244]	@ 0x4dc
 8008274:	f7fe bdb9 	b.w	8006dea <USBD_LL_IsoINIncomplete>

08008278 <HAL_PCD_ConnectCallback>:
 8008278:	f8d0 04dc 	ldr.w	r0, [r0, #1244]	@ 0x4dc
 800827c:	f7fe bddb 	b.w	8006e36 <USBD_LL_DevConnected>

08008280 <HAL_PCD_DisconnectCallback>:
 8008280:	f8d0 04dc 	ldr.w	r0, [r0, #1244]	@ 0x4dc
 8008284:	f7fe bdd9 	b.w	8006e3a <USBD_LL_DevDisconnected>

08008288 <USBD_LL_Init>:
 8008288:	b508      	push	{r3, lr}
 800828a:	7802      	ldrb	r2, [r0, #0]
 800828c:	4603      	mov	r3, r0
 800828e:	2a01      	cmp	r2, #1
 8008290:	d125      	bne.n	80082de <USBD_LL_Init+0x56>
 8008292:	4814      	ldr	r0, [pc, #80]	@ (80082e4 <USBD_LL_Init+0x5c>)
 8008294:	2203      	movs	r2, #3
 8008296:	f8c0 34dc 	str.w	r3, [r0, #1244]	@ 0x4dc
 800829a:	f8c3 02c8 	str.w	r0, [r3, #712]	@ 0x2c8
 800829e:	4b12      	ldr	r3, [pc, #72]	@ (80082e8 <USBD_LL_Init+0x60>)
 80082a0:	7242      	strb	r2, [r0, #9]
 80082a2:	6003      	str	r3, [r0, #0]
 80082a4:	2309      	movs	r3, #9
 80082a6:	7103      	strb	r3, [r0, #4]
 80082a8:	2300      	movs	r3, #0
 80082aa:	7183      	strb	r3, [r0, #6]
 80082ac:	8143      	strh	r3, [r0, #10]
 80082ae:	7303      	strb	r3, [r0, #12]
 80082b0:	81c3      	strh	r3, [r0, #14]
 80082b2:	7403      	strb	r3, [r0, #16]
 80082b4:	f7fb f9ff 	bl	80036b6 <HAL_PCD_Init>
 80082b8:	b108      	cbz	r0, 80082be <USBD_LL_Init+0x36>
 80082ba:	f7f9 fcdf 	bl	8001c7c <Error_Handler>
 80082be:	f44f 7100 	mov.w	r1, #512	@ 0x200
 80082c2:	4808      	ldr	r0, [pc, #32]	@ (80082e4 <USBD_LL_Init+0x5c>)
 80082c4:	f7fb ff56 	bl	8004174 <HAL_PCDEx_SetRxFiFo>
 80082c8:	2240      	movs	r2, #64	@ 0x40
 80082ca:	2100      	movs	r1, #0
 80082cc:	4805      	ldr	r0, [pc, #20]	@ (80082e4 <USBD_LL_Init+0x5c>)
 80082ce:	f7fb ff32 	bl	8004136 <HAL_PCDEx_SetTxFiFo>
 80082d2:	f44f 7200 	mov.w	r2, #512	@ 0x200
 80082d6:	2101      	movs	r1, #1
 80082d8:	4802      	ldr	r0, [pc, #8]	@ (80082e4 <USBD_LL_Init+0x5c>)
 80082da:	f7fb ff2c 	bl	8004136 <HAL_PCDEx_SetTxFiFo>
 80082de:	2000      	movs	r0, #0
 80082e0:	bd08      	pop	{r3, pc}
 80082e2:	bf00      	nop
 80082e4:	20001ebc 	.word	0x20001ebc
 80082e8:	40040000 	.word	0x40040000

080082ec <USBD_LL_IsStallEP>:
 80082ec:	f011 0f80 	tst.w	r1, #128	@ 0x80
 80082f0:	f8d0 32c8 	ldr.w	r3, [r0, #712]	@ 0x2c8
 80082f4:	f04f 0224 	mov.w	r2, #36	@ 0x24
 80082f8:	bf17      	itett	ne
 80082fa:	f001 017f 	andne.w	r1, r1, #127	@ 0x7f
 80082fe:	fb02 3301 	mlaeq	r3, r2, r1, r3
 8008302:	fb02 3301 	mlane	r3, r2, r1, r3
 8008306:	7d98      	ldrbne	r0, [r3, #22]
 8008308:	bf08      	it	eq
 800830a:	f893 0256 	ldrbeq.w	r0, [r3, #598]	@ 0x256
 800830e:	4770      	bx	lr

08008310 <USBD_LL_GetRxDataSize>:
 8008310:	f8d0 02c8 	ldr.w	r0, [r0, #712]	@ 0x2c8
 8008314:	f7fb baf0 	b.w	80038f8 <HAL_PCD_EP_GetRxCount>

08008318 <HAL_PCDEx_LPM_Callback>:
 8008318:	b510      	push	{r4, lr}
 800831a:	4604      	mov	r4, r0
 800831c:	b111      	cbz	r1, 8008324 <HAL_PCDEx_LPM_Callback+0xc>
 800831e:	2901      	cmp	r1, #1
 8008320:	d016      	beq.n	8008350 <HAL_PCDEx_LPM_Callback+0x38>
 8008322:	bd10      	pop	{r4, pc}
 8008324:	7ac3      	ldrb	r3, [r0, #11]
 8008326:	b133      	cbz	r3, 8008336 <HAL_PCDEx_LPM_Callback+0x1e>
 8008328:	f7f9 f91e 	bl	8001568 <SystemClock_Config>
 800832c:	4a12      	ldr	r2, [pc, #72]	@ (8008378 <HAL_PCDEx_LPM_Callback+0x60>)
 800832e:	6913      	ldr	r3, [r2, #16]
 8008330:	f023 0306 	bic.w	r3, r3, #6
 8008334:	6113      	str	r3, [r2, #16]
 8008336:	6822      	ldr	r2, [r4, #0]
 8008338:	f8d4 04dc 	ldr.w	r0, [r4, #1244]	@ 0x4dc
 800833c:	f8d2 3e00 	ldr.w	r3, [r2, #3584]	@ 0xe00
 8008340:	f023 0301 	bic.w	r3, r3, #1
 8008344:	e8bd 4010 	ldmia.w	sp!, {r4, lr}
 8008348:	f8c2 3e00 	str.w	r3, [r2, #3584]	@ 0xe00
 800834c:	f7fe bd35 	b.w	8006dba <USBD_LL_Resume>
 8008350:	6802      	ldr	r2, [r0, #0]
 8008352:	f8d0 04dc 	ldr.w	r0, [r0, #1244]	@ 0x4dc
 8008356:	f8d2 3e00 	ldr.w	r3, [r2, #3584]	@ 0xe00
 800835a:	f043 0301 	orr.w	r3, r3, #1
 800835e:	f8c2 3e00 	str.w	r3, [r2, #3584]	@ 0xe00
 8008362:	f7fe fd1c 	bl	8006d9e <USBD_LL_Suspend>
 8008366:	7ae3      	ldrb	r3, [r4, #11]
 8008368:	2b00      	cmp	r3, #0
 800836a:	d0da      	beq.n	8008322 <HAL_PCDEx_LPM_Callback+0xa>
 800836c:	4a02      	ldr	r2, [pc, #8]	@ (8008378 <HAL_PCDEx_LPM_Callback+0x60>)
 800836e:	6913      	ldr	r3, [r2, #16]
 8008370:	f043 0306 	orr.w	r3, r3, #6
 8008374:	6113      	str	r3, [r2, #16]
 8008376:	e7d4      	b.n	8008322 <HAL_PCDEx_LPM_Callback+0xa>
 8008378:	e000ed00 	.word	0xe000ed00

0800837c <USBD_Get_USB_Status>:
 800837c:	b118      	cbz	r0, 8008386 <USBD_Get_USB_Status+0xa>
 800837e:	2802      	cmp	r0, #2
 8008380:	bf0c      	ite	eq
 8008382:	2001      	moveq	r0, #1
 8008384:	2003      	movne	r0, #3
 8008386:	4770      	bx	lr

08008388 <USBD_LL_Start>:
 8008388:	b508      	push	{r3, lr}
 800838a:	f8d0 02c8 	ldr.w	r0, [r0, #712]	@ 0x2c8
 800838e:	f7fb fa06 	bl	800379e <HAL_PCD_Start>
 8008392:	e8bd 4008 	ldmia.w	sp!, {r3, lr}
 8008396:	f7ff bff1 	b.w	800837c <USBD_Get_USB_Status>

0800839a <USBD_LL_OpenEP>:
 800839a:	b510      	push	{r4, lr}
 800839c:	4614      	mov	r4, r2
 800839e:	f8d0 02c8 	ldr.w	r0, [r0, #712]	@ 0x2c8
 80083a2:	461a      	mov	r2, r3
 80083a4:	4623      	mov	r3, r4
 80083a6:	f7fb fa22 	bl	80037ee <HAL_PCD_EP_Open>
 80083aa:	e8bd 4010 	ldmia.w	sp!, {r4, lr}
 80083ae:	f7ff bfe5 	b.w	800837c <USBD_Get_USB_Status>

080083b2 <USBD_LL_CloseEP>:
 80083b2:	b508      	push	{r3, lr}
 80083b4:	f8d0 02c8 	ldr.w	r0, [r0, #712]	@ 0x2c8
 80083b8:	f7fb fa52 	bl	8003860 <HAL_PCD_EP_Close>
 80083bc:	e8bd 4008 	ldmia.w	sp!, {r3, lr}
 80083c0:	f7ff bfdc 	b.w	800837c <USBD_Get_USB_Status>

080083c4 <USBD_LL_FlushEP>:
 80083c4:	b508      	push	{r3, lr}
 80083c6:	f8d0 02c8 	ldr.w	r0, [r0, #712]	@ 0x2c8
 80083ca:	f7fb fe9b 	bl	8004104 <HAL_PCD_EP_Flush>
 80083ce:	e8bd 4008 	ldmia.w	sp!, {r3, lr}
 80083d2:	f7ff bfd3 	b.w	800837c <USBD_Get_USB_Status>

080083d6 <USBD_LL_StallEP>:
 80083d6:	b508      	push	{r3, lr}
 80083d8:	f8d0 02c8 	ldr.w	r0, [r0, #712]	@ 0x2c8
 80083dc:	f7fb faae 	bl	800393c <HAL_PCD_EP_SetStall>
 80083e0:	e8bd 4008 	ldmia.w	sp!, {r3, lr}
 80083e4:	f7ff bfca 	b.w	800837c <USBD_Get_USB_Status>

080083e8 <USBD_LL_ClearStallEP>:
 80083e8:	b508      	push	{r3, lr}
 80083ea:	f8d0 02c8 	ldr.w	r0, [r0, #712]	@ 0x2c8
 80083ee:	f7fb fadc 	bl	80039aa <HAL_PCD_EP_ClrStall>
 80083f2:	e8bd 4008 	ldmia.w	sp!, {r3, lr}
 80083f6:	f7ff bfc1 	b.w	800837c <USBD_Get_USB_Status>

080083fa <USBD_LL_SetUSBAddress>:
 80083fa:	b508      	push	{r3, lr}
 80083fc:	f8d0 02c8 	ldr.w	r0, [r0, #712]	@ 0x2c8
 8008400:	f7fb f9e2 	bl	80037c8 <HAL_PCD_SetAddress>
 8008404:	e8bd 4008 	ldmia.w	sp!, {r3, lr}
 8008408:	f7ff bfb8 	b.w	800837c <USBD_Get_USB_Status>

0800840c <USBD_LL_Transmit>:
 800840c:	b508      	push	{r3, lr}
 800840e:	f8d0 02c8 	ldr.w	r0, [r0, #712]	@ 0x2c8
 8008412:	f7fb fa79 	bl	8003908 <HAL_PCD_EP_Transmit>
 8008416:	e8bd 4008 	ldmia.w	sp!, {r3, lr}
 800841a:	f7ff bfaf 	b.w	800837c <USBD_Get_USB_Status>

0800841e <USBD_LL_PrepareReceive>:
 800841e:	b508      	push	{r3, lr}
 8008420:	f8d0 02c8 	ldr.w	r0, [r0, #712]	@ 0x2c8
 8008424:	f7fb fa4a 	bl	80038bc <HAL_PCD_EP_Receive>
 8008428:	e8bd 4008 	ldmia.w	sp!, {r3, lr}
 800842c:	f7ff bfa6 	b.w	800837c <USBD_Get_USB_Status>

08008430 <malloc>:
 8008430:	4b02      	ldr	r3, [pc, #8]	@ (800843c <malloc+0xc>)
 8008432:	4601      	mov	r1, r0
 8008434:	6818      	ldr	r0, [r3, #0]
 8008436:	f000 b82d 	b.w	8008494 <_malloc_r>
 800843a:	bf00      	nop
 800843c:	20000128 	.word	0x20000128

08008440 <free>:
 8008440:	4b02      	ldr	r3, [pc, #8]	@ (800844c <free+0xc>)
 8008442:	4601      	mov	r1, r0
 8008444:	6818      	ldr	r0, [r3, #0]
 8008446:	f000 b94b 	b.w	80086e0 <_free_r>
 800844a:	bf00      	nop
 800844c:	20000128 	.word	0x20000128

08008450 <sbrk_aligned>:
 8008450:	b570      	push	{r4, r5, r6, lr}
 8008452:	4e0f      	ldr	r6, [pc, #60]	@ (8008490 <sbrk_aligned+0x40>)
 8008454:	460c      	mov	r4, r1
 8008456:	6831      	ldr	r1, [r6, #0]
 8008458:	4605      	mov	r5, r0
 800845a:	b911      	cbnz	r1, 8008462 <sbrk_aligned+0x12>
 800845c:	f000 f8f6 	bl	800864c <_sbrk_r>
 8008460:	6030      	str	r0, [r6, #0]
 8008462:	4621      	mov	r1, r4
 8008464:	4628      	mov	r0, r5
 8008466:	f000 f8f1 	bl	800864c <_sbrk_r>
 800846a:	1c43      	adds	r3, r0, #1
 800846c:	d103      	bne.n	8008476 <sbrk_aligned+0x26>
 800846e:	f04f 34ff 	mov.w	r4, #4294967295	@ 0xffffffff
 8008472:	4620      	mov	r0, r4
 8008474:	bd70      	pop	{r4, r5, r6, pc}
 8008476:	1cc4      	adds	r4, r0, #3
 8008478:	f024 0403 	bic.w	r4, r4, #3
 800847c:	42a0      	cmp	r0, r4
 800847e:	d0f8      	beq.n	8008472 <sbrk_aligned+0x22>
 8008480:	1a21      	subs	r1, r4, r0
 8008482:	4628      	mov	r0, r5
 8008484:	f000 f8e2 	bl	800864c <_sbrk_r>
 8008488:	3001      	adds	r0, #1
 800848a:	d1f2      	bne.n	8008472 <sbrk_aligned+0x22>
 800848c:	e7ef      	b.n	800846e <sbrk_aligned+0x1e>
 800848e:	bf00      	nop
 8008490:	2000239c 	.word	0x2000239c

08008494 <_malloc_r>:
 8008494:	e92d 43f8 	stmdb	sp!, {r3, r4, r5, r6, r7, r8, r9, lr}
 8008498:	1ccd      	adds	r5, r1, #3
 800849a:	f025 0503 	bic.w	r5, r5, #3
 800849e:	3508      	adds	r5, #8
 80084a0:	2d0c      	cmp	r5, #12
 80084a2:	bf38      	it	cc
 80084a4:	250c      	movcc	r5, #12
 80084a6:	2d00      	cmp	r5, #0
 80084a8:	4606      	mov	r6, r0
 80084aa:	db01      	blt.n	80084b0 <_malloc_r+0x1c>
 80084ac:	42a9      	cmp	r1, r5
 80084ae:	d904      	bls.n	80084ba <_malloc_r+0x26>
 80084b0:	230c      	movs	r3, #12
 80084b2:	6033      	str	r3, [r6, #0]
 80084b4:	2000      	movs	r0, #0
 80084b6:	e8bd 83f8 	ldmia.w	sp!, {r3, r4, r5, r6, r7, r8, r9, pc}
 80084ba:	f8df 80d4 	ldr.w	r8, [pc, #212]	@ 8008590 <_malloc_r+0xfc>
 80084be:	f000 f89f 	bl	8008600 <__malloc_lock>
 80084c2:	f8d8 3000 	ldr.w	r3, [r8]
 80084c6:	461c      	mov	r4, r3
 80084c8:	bb44      	cbnz	r4, 800851c <_malloc_r+0x88>
 80084ca:	4629      	mov	r1, r5
 80084cc:	4630      	mov	r0, r6
 80084ce:	f7ff ffbf 	bl	8008450 <sbrk_aligned>
 80084d2:	1c43      	adds	r3, r0, #1
 80084d4:	4604      	mov	r4, r0
 80084d6:	d158      	bne.n	800858a <_malloc_r+0xf6>
 80084d8:	f8d8 4000 	ldr.w	r4, [r8]
 80084dc:	4627      	mov	r7, r4
 80084de:	2f00      	cmp	r7, #0
 80084e0:	d143      	bne.n	800856a <_malloc_r+0xd6>
 80084e2:	2c00      	cmp	r4, #0
 80084e4:	d04b      	beq.n	800857e <_malloc_r+0xea>
 80084e6:	6823      	ldr	r3, [r4, #0]
 80084e8:	4639      	mov	r1, r7
 80084ea:	4630      	mov	r0, r6
 80084ec:	eb04 0903 	add.w	r9, r4, r3
 80084f0:	f000 f8ac 	bl	800864c <_sbrk_r>
 80084f4:	4581      	cmp	r9, r0
 80084f6:	d142      	bne.n	800857e <_malloc_r+0xea>
 80084f8:	6821      	ldr	r1, [r4, #0]
 80084fa:	1a6d      	subs	r5, r5, r1
 80084fc:	4629      	mov	r1, r5
 80084fe:	4630      	mov	r0, r6
 8008500:	f7ff ffa6 	bl	8008450 <sbrk_aligned>
 8008504:	3001      	adds	r0, #1
 8008506:	d03a      	beq.n	800857e <_malloc_r+0xea>
 8008508:	6823      	ldr	r3, [r4, #0]
 800850a:	442b      	add	r3, r5
 800850c:	6023      	str	r3, [r4, #0]
 800850e:	f8d8 3000 	ldr.w	r3, [r8]
 8008512:	685a      	ldr	r2, [r3, #4]
 8008514:	bb62      	cbnz	r2, 8008570 <_malloc_r+0xdc>
 8008516:	f8c8 7000 	str.w	r7, [r8]
 800851a:	e00f      	b.n	800853c <_malloc_r+0xa8>
 800851c:	6822      	ldr	r2, [r4, #0]
 800851e:	1b52      	subs	r2, r2, r5
 8008520:	d420      	bmi.n	8008564 <_malloc_r+0xd0>
 8008522:	2a0b      	cmp	r2, #11
 8008524:	d917      	bls.n	8008556 <_malloc_r+0xc2>
 8008526:	1961      	adds	r1, r4, r5
 8008528:	42a3      	cmp	r3, r4
 800852a:	6025      	str	r5, [r4, #0]
 800852c:	bf18      	it	ne
 800852e:	6059      	strne	r1, [r3, #4]
 8008530:	6863      	ldr	r3, [r4, #4]
 8008532:	bf08      	it	eq
 8008534:	f8c8 1000 	streq.w	r1, [r8]
 8008538:	5162      	str	r2, [r4, r5]
 800853a:	604b      	str	r3, [r1, #4]
 800853c:	4630      	mov	r0, r6
 800853e:	f000 f865 	bl	800860c <__malloc_unlock>
 8008542:	f104 000b 	add.w	r0, r4, #11
 8008546:	1d23      	adds	r3, r4, #4
 8008548:	f020 0007 	bic.w	r0, r0, #7
 800854c:	1ac2      	subs	r2, r0, r3
 800854e:	bf1c      	itt	ne
 8008550:	1a1b      	subne	r3, r3, r0
 8008552:	50a3      	strne	r3, [r4, r2]
 8008554:	e7af      	b.n	80084b6 <_malloc_r+0x22>
 8008556:	6862      	ldr	r2, [r4, #4]
 8008558:	42a3      	cmp	r3, r4
 800855a:	bf0c      	ite	eq
 800855c:	f8c8 2000 	streq.w	r2, [r8]
 8008560:	605a      	strne	r2, [r3, #4]
 8008562:	e7eb      	b.n	800853c <_malloc_r+0xa8>
 8008564:	4623      	mov	r3, r4
 8008566:	6864      	ldr	r4, [r4, #4]
 8008568:	e7ae      	b.n	80084c8 <_malloc_r+0x34>
 800856a:	463c      	mov	r4, r7
 800856c:	687f      	ldr	r7, [r7, #4]
 800856e:	e7b6      	b.n	80084de <_malloc_r+0x4a>
 8008570:	461a      	mov	r2, r3
 8008572:	685b      	ldr	r3, [r3, #4]
 8008574:	42a3      	cmp	r3, r4
 8008576:	d1fb      	bne.n	8008570 <_malloc_r+0xdc>
 8008578:	2300      	movs	r3, #0
 800857a:	6053      	str	r3, [r2, #4]
 800857c:	e7de      	b.n	800853c <_malloc_r+0xa8>
 800857e:	230c      	movs	r3, #12
 8008580:	6033      	str	r3, [r6, #0]
 8008582:	4630      	mov	r0, r6
 8008584:	f000 f842 	bl	800860c <__malloc_unlock>
 8008588:	e794      	b.n	80084b4 <_malloc_r+0x20>
 800858a:	6005      	str	r5, [r0, #0]
 800858c:	e7d6      	b.n	800853c <_malloc_r+0xa8>
 800858e:	bf00      	nop
 8008590:	200023a0 	.word	0x200023a0

08008594 <sniprintf>:
 8008594:	b40c      	push	{r2, r3}
 8008596:	b530      	push	{r4, r5, lr}
 8008598:	4b18      	ldr	r3, [pc, #96]	@ (80085fc <sniprintf+0x68>)
 800859a:	1e0c      	subs	r4, r1, #0
 800859c:	681d      	ldr	r5, [r3, #0]
 800859e:	b09d      	sub	sp, #116	@ 0x74
 80085a0:	da08      	bge.n	80085b4 <sniprintf+0x20>
 80085a2:	238b      	movs	r3, #139	@ 0x8b
 80085a4:	602b      	str	r3, [r5, #0]
 80085a6:	f04f 30ff 	mov.w	r0, #4294967295	@ 0xffffffff
 80085aa:	b01d      	add	sp, #116	@ 0x74
 80085ac:	e8bd 4030 	ldmia.w	sp!, {r4, r5, lr}
 80085b0:	b002      	add	sp, #8
 80085b2:	4770      	bx	lr
 80085b4:	f44f 7302 	mov.w	r3, #520	@ 0x208
 80085b8:	f8ad 3014 	strh.w	r3, [sp, #20]
 80085bc:	f04f 0300 	mov.w	r3, #0
 80085c0:	931b      	str	r3, [sp, #108]	@ 0x6c
 80085c2:	bf14      	ite	ne
 80085c4:	f104 33ff 	addne.w	r3, r4, #4294967295	@ 0xffffffff
 80085c8:	4623      	moveq	r3, r4
 80085ca:	9304      	str	r3, [sp, #16]
 80085cc:	9307      	str	r3, [sp, #28]
 80085ce:	f64f 73ff 	movw	r3, #65535	@ 0xffff
 80085d2:	9002      	str	r0, [sp, #8]
 80085d4:	9006      	str	r0, [sp, #24]
 80085d6:	f8ad 3016 	strh.w	r3, [sp, #22]
 80085da:	9a20      	ldr	r2, [sp, #128]	@ 0x80
 80085dc:	ab21      	add	r3, sp, #132	@ 0x84
 80085de:	a902      	add	r1, sp, #8
 80085e0:	4628      	mov	r0, r5
 80085e2:	9301      	str	r3, [sp, #4]
 80085e4:	f000 f922 	bl	800882c <_svfiprintf_r>
 80085e8:	1c43      	adds	r3, r0, #1
 80085ea:	bfbc      	itt	lt
 80085ec:	238b      	movlt	r3, #139	@ 0x8b
 80085ee:	602b      	strlt	r3, [r5, #0]
 80085f0:	2c00      	cmp	r4, #0
 80085f2:	d0da      	beq.n	80085aa <sniprintf+0x16>
 80085f4:	9b02      	ldr	r3, [sp, #8]
 80085f6:	2200      	movs	r2, #0
 80085f8:	701a      	strb	r2, [r3, #0]
 80085fa:	e7d6      	b.n	80085aa <sniprintf+0x16>
 80085fc:	20000128 	.word	0x20000128

08008600 <__malloc_lock>:
 8008600:	4801      	ldr	r0, [pc, #4]	@ (8008608 <__malloc_lock+0x8>)
 8008602:	f000 b85d 	b.w	80086c0 <__retarget_lock_acquire_recursive>
 8008606:	bf00      	nop
 8008608:	200024dc 	.word	0x200024dc

0800860c <__malloc_unlock>:
 800860c:	4801      	ldr	r0, [pc, #4]	@ (8008614 <__malloc_unlock+0x8>)
 800860e:	f000 b858 	b.w	80086c2 <__retarget_lock_release_recursive>
 8008612:	bf00      	nop
 8008614:	200024dc 	.word	0x200024dc

08008618 <memset>:
 8008618:	4402      	add	r2, r0
 800861a:	4603      	mov	r3, r0
 800861c:	4293      	cmp	r3, r2
 800861e:	d100      	bne.n	8008622 <memset+0xa>
 8008620:	4770      	bx	lr
 8008622:	f803 1b01 	strb.w	r1, [r3], #1
 8008626:	e7f9      	b.n	800861c <memset+0x4>

08008628 <strncmp>:
 8008628:	b510      	push	{r4, lr}
 800862a:	b16a      	cbz	r2, 8008648 <strncmp+0x20>
 800862c:	3901      	subs	r1, #1
 800862e:	1884      	adds	r4, r0, r2
 8008630:	f810 2b01 	ldrb.w	r2, [r0], #1
 8008634:	f811 3f01 	ldrb.w	r3, [r1, #1]!
 8008638:	429a      	cmp	r2, r3
 800863a:	d103      	bne.n	8008644 <strncmp+0x1c>
 800863c:	42a0      	cmp	r0, r4
 800863e:	d001      	beq.n	8008644 <strncmp+0x1c>
 8008640:	2a00      	cmp	r2, #0
 8008642:	d1f5      	bne.n	8008630 <strncmp+0x8>
 8008644:	1ad0      	subs	r0, r2, r3
 8008646:	bd10      	pop	{r4, pc}
 8008648:	4610      	mov	r0, r2
 800864a:	e7fc      	b.n	8008646 <strncmp+0x1e>

0800864c <_sbrk_r>:
 800864c:	b538      	push	{r3, r4, r5, lr}
 800864e:	4d06      	ldr	r5, [pc, #24]	@ (8008668 <_sbrk_r+0x1c>)
 8008650:	2300      	movs	r3, #0
 8008652:	4604      	mov	r4, r0
 8008654:	4608      	mov	r0, r1
 8008656:	602b      	str	r3, [r5, #0]
 8008658:	f7f9 fd6e 	bl	8002138 <_sbrk>
 800865c:	1c43      	adds	r3, r0, #1
 800865e:	d102      	bne.n	8008666 <_sbrk_r+0x1a>
 8008660:	682b      	ldr	r3, [r5, #0]
 8008662:	b103      	cbz	r3, 8008666 <_sbrk_r+0x1a>
 8008664:	6023      	str	r3, [r4, #0]
 8008666:	bd38      	pop	{r3, r4, r5, pc}
 8008668:	200024e0 	.word	0x200024e0

0800866c <__errno>:
 800866c:	4b01      	ldr	r3, [pc, #4]	@ (8008674 <__errno+0x8>)
 800866e:	6818      	ldr	r0, [r3, #0]
 8008670:	4770      	bx	lr
 8008672:	bf00      	nop
 8008674:	20000128 	.word	0x20000128

08008678 <__libc_init_array>:
 8008678:	b570      	push	{r4, r5, r6, lr}
 800867a:	4d0d      	ldr	r5, [pc, #52]	@ (80086b0 <__libc_init_array+0x38>)
 800867c:	4c0d      	ldr	r4, [pc, #52]	@ (80086b4 <__libc_init_array+0x3c>)
 800867e:	1b64      	subs	r4, r4, r5
 8008680:	10a4      	asrs	r4, r4, #2
 8008682:	2600      	movs	r6, #0
 8008684:	42a6      	cmp	r6, r4
 8008686:	d109      	bne.n	800869c <__libc_init_array+0x24>
 8008688:	4d0b      	ldr	r5, [pc, #44]	@ (80086b8 <__libc_init_array+0x40>)
 800868a:	4c0c      	ldr	r4, [pc, #48]	@ (80086bc <__libc_init_array+0x44>)
 800868c:	f000 fba6 	bl	8008ddc <_init>
 8008690:	1b64      	subs	r4, r4, r5
 8008692:	10a4      	asrs	r4, r4, #2
 8008694:	2600      	movs	r6, #0
 8008696:	42a6      	cmp	r6, r4
 8008698:	d105      	bne.n	80086a6 <__libc_init_array+0x2e>
 800869a:	bd70      	pop	{r4, r5, r6, pc}
 800869c:	f855 3b04 	ldr.w	r3, [r5], #4
 80086a0:	4798      	blx	r3
 80086a2:	3601      	adds	r6, #1
 80086a4:	e7ee      	b.n	8008684 <__libc_init_array+0xc>
 80086a6:	f855 3b04 	ldr.w	r3, [r5], #4
 80086aa:	4798      	blx	r3
 80086ac:	3601      	adds	r6, #1
 80086ae:	e7f2      	b.n	8008696 <__libc_init_array+0x1e>
 80086b0:	08009cc4 	.word	0x08009cc4
 80086b4:	08009cc4 	.word	0x08009cc4
 80086b8:	08009cc4 	.word	0x08009cc4
 80086bc:	08009cc8 	.word	0x08009cc8

080086c0 <__retarget_lock_acquire_recursive>:
 80086c0:	4770      	bx	lr

080086c2 <__retarget_lock_release_recursive>:
 80086c2:	4770      	bx	lr

080086c4 <memcpy>:
 80086c4:	440a      	add	r2, r1
 80086c6:	4291      	cmp	r1, r2
 80086c8:	f100 33ff 	add.w	r3, r0, #4294967295	@ 0xffffffff
 80086cc:	d100      	bne.n	80086d0 <memcpy+0xc>
 80086ce:	4770      	bx	lr
 80086d0:	b510      	push	{r4, lr}
 80086d2:	f811 4b01 	ldrb.w	r4, [r1], #1
 80086d6:	f803 4f01 	strb.w	r4, [r3, #1]!
 80086da:	4291      	cmp	r1, r2
 80086dc:	d1f9      	bne.n	80086d2 <memcpy+0xe>
 80086de:	bd10      	pop	{r4, pc}

080086e0 <_free_r>:
 80086e0:	b538      	push	{r3, r4, r5, lr}
 80086e2:	4605      	mov	r5, r0
 80086e4:	2900      	cmp	r1, #0
 80086e6:	d041      	beq.n	800876c <_free_r+0x8c>
 80086e8:	f851 3c04 	ldr.w	r3, [r1, #-4]
 80086ec:	1f0c      	subs	r4, r1, #4
 80086ee:	2b00      	cmp	r3, #0
 80086f0:	bfb8      	it	lt
 80086f2:	18e4      	addlt	r4, r4, r3
 80086f4:	f7ff ff84 	bl	8008600 <__malloc_lock>
 80086f8:	4a1d      	ldr	r2, [pc, #116]	@ (8008770 <_free_r+0x90>)
 80086fa:	6813      	ldr	r3, [r2, #0]
 80086fc:	b933      	cbnz	r3, 800870c <_free_r+0x2c>
 80086fe:	6063      	str	r3, [r4, #4]
 8008700:	6014      	str	r4, [r2, #0]
 8008702:	4628      	mov	r0, r5
 8008704:	e8bd 4038 	ldmia.w	sp!, {r3, r4, r5, lr}
 8008708:	f7ff bf80 	b.w	800860c <__malloc_unlock>
 800870c:	42a3      	cmp	r3, r4
 800870e:	d908      	bls.n	8008722 <_free_r+0x42>
 8008710:	6820      	ldr	r0, [r4, #0]
 8008712:	1821      	adds	r1, r4, r0
 8008714:	428b      	cmp	r3, r1
 8008716:	bf01      	itttt	eq
 8008718:	6819      	ldreq	r1, [r3, #0]
 800871a:	685b      	ldreq	r3, [r3, #4]
 800871c:	1809      	addeq	r1, r1, r0
 800871e:	6021      	streq	r1, [r4, #0]
 8008720:	e7ed      	b.n	80086fe <_free_r+0x1e>
 8008722:	461a      	mov	r2, r3
 8008724:	685b      	ldr	r3, [r3, #4]
 8008726:	b10b      	cbz	r3, 800872c <_free_r+0x4c>
 8008728:	42a3      	cmp	r3, r4
 800872a:	d9fa      	bls.n	8008722 <_free_r+0x42>
 800872c:	6811      	ldr	r1, [r2, #0]
 800872e:	1850      	adds	r0, r2, r1
 8008730:	42a0      	cmp	r0, r4
 8008732:	d10b      	bne.n	800874c <_free_r+0x6c>
 8008734:	6820      	ldr	r0, [r4, #0]
 8008736:	4401      	add	r1, r0
 8008738:	1850      	adds	r0, r2, r1
 800873a:	4283      	cmp	r3, r0
 800873c:	6011      	str	r1, [r2, #0]
 800873e:	d1e0      	bne.n	8008702 <_free_r+0x22>
 8008740:	6818      	ldr	r0, [r3, #0]
 8008742:	685b      	ldr	r3, [r3, #4]
 8008744:	6053      	str	r3, [r2, #4]
 8008746:	4408      	add	r0, r1
 8008748:	6010      	str	r0, [r2, #0]
 800874a:	e7da      	b.n	8008702 <_free_r+0x22>
 800874c:	d902      	bls.n	8008754 <_free_r+0x74>
 800874e:	230c      	movs	r3, #12
 8008750:	602b      	str	r3, [r5, #0]
 8008752:	e7d6      	b.n	8008702 <_free_r+0x22>
 8008754:	6820      	ldr	r0, [r4, #0]
 8008756:	1821      	adds	r1, r4, r0
 8008758:	428b      	cmp	r3, r1
 800875a:	bf04      	itt	eq
 800875c:	6819      	ldreq	r1, [r3, #0]
 800875e:	685b      	ldreq	r3, [r3, #4]
 8008760:	6063      	str	r3, [r4, #4]
 8008762:	bf04      	itt	eq
 8008764:	1809      	addeq	r1, r1, r0
 8008766:	6021      	streq	r1, [r4, #0]
 8008768:	6054      	str	r4, [r2, #4]
 800876a:	e7ca      	b.n	8008702 <_free_r+0x22>
 800876c:	bd38      	pop	{r3, r4, r5, pc}
 800876e:	bf00      	nop
 8008770:	200023a0 	.word	0x200023a0

08008774 <__ssputs_r>:
 8008774:	e92d 47f0 	stmdb	sp!, {r4, r5, r6, r7, r8, r9, sl, lr}
 8008778:	688e      	ldr	r6, [r1, #8]
 800877a:	461f      	mov	r7, r3
 800877c:	42be      	cmp	r6, r7
 800877e:	680b      	ldr	r3, [r1, #0]
 8008780:	4682      	mov	sl, r0
 8008782:	460c      	mov	r4, r1
 8008784:	4690      	mov	r8, r2
 8008786:	d82d      	bhi.n	80087e4 <__ssputs_r+0x70>
 8008788:	f9b1 200c 	ldrsh.w	r2, [r1, #12]
 800878c:	f412 6f90 	tst.w	r2, #1152	@ 0x480
 8008790:	d026      	beq.n	80087e0 <__ssputs_r+0x6c>
 8008792:	6965      	ldr	r5, [r4, #20]
 8008794:	6909      	ldr	r1, [r1, #16]
 8008796:	eb05 0545 	add.w	r5, r5, r5, lsl #1
 800879a:	eba3 0901 	sub.w	r9, r3, r1
 800879e:	eb05 75d5 	add.w	r5, r5, r5, lsr #31
 80087a2:	1c7b      	adds	r3, r7, #1
 80087a4:	444b      	add	r3, r9
 80087a6:	106d      	asrs	r5, r5, #1
 80087a8:	429d      	cmp	r5, r3
 80087aa:	bf38      	it	cc
 80087ac:	461d      	movcc	r5, r3
 80087ae:	0553      	lsls	r3, r2, #21
 80087b0:	d527      	bpl.n	8008802 <__ssputs_r+0x8e>
 80087b2:	4629      	mov	r1, r5
 80087b4:	f7ff fe6e 	bl	8008494 <_malloc_r>
 80087b8:	4606      	mov	r6, r0
 80087ba:	b360      	cbz	r0, 8008816 <__ssputs_r+0xa2>
 80087bc:	6921      	ldr	r1, [r4, #16]
 80087be:	464a      	mov	r2, r9
 80087c0:	f7ff ff80 	bl	80086c4 <memcpy>
 80087c4:	89a3      	ldrh	r3, [r4, #12]
 80087c6:	f423 6390 	bic.w	r3, r3, #1152	@ 0x480
 80087ca:	f043 0380 	orr.w	r3, r3, #128	@ 0x80
 80087ce:	81a3      	strh	r3, [r4, #12]
 80087d0:	6126      	str	r6, [r4, #16]
 80087d2:	6165      	str	r5, [r4, #20]
 80087d4:	444e      	add	r6, r9
 80087d6:	eba5 0509 	sub.w	r5, r5, r9
 80087da:	6026      	str	r6, [r4, #0]
 80087dc:	60a5      	str	r5, [r4, #8]
 80087de:	463e      	mov	r6, r7
 80087e0:	42be      	cmp	r6, r7
 80087e2:	d900      	bls.n	80087e6 <__ssputs_r+0x72>
 80087e4:	463e      	mov	r6, r7
 80087e6:	6820      	ldr	r0, [r4, #0]
 80087e8:	4632      	mov	r2, r6
 80087ea:	4641      	mov	r1, r8
 80087ec:	f000 fad4 	bl	8008d98 <memmove>
 80087f0:	68a3      	ldr	r3, [r4, #8]
 80087f2:	1b9b      	subs	r3, r3, r6
 80087f4:	60a3      	str	r3, [r4, #8]
 80087f6:	6823      	ldr	r3, [r4, #0]
 80087f8:	4433      	add	r3, r6
 80087fa:	6023      	str	r3, [r4, #0]
 80087fc:	2000      	movs	r0, #0
 80087fe:	e8bd 87f0 	ldmia.w	sp!, {r4, r5, r6, r7, r8, r9, sl, pc}
 8008802:	462a      	mov	r2, r5
 8008804:	f000 fa9a 	bl	8008d3c <_realloc_r>
 8008808:	4606      	mov	r6, r0
 800880a:	2800      	cmp	r0, #0
 800880c:	d1e0      	bne.n	80087d0 <__ssputs_r+0x5c>
 800880e:	6921      	ldr	r1, [r4, #16]
 8008810:	4650      	mov	r0, sl
 8008812:	f7ff ff65 	bl	80086e0 <_free_r>
 8008816:	230c      	movs	r3, #12
 8008818:	f8ca 3000 	str.w	r3, [sl]
 800881c:	89a3      	ldrh	r3, [r4, #12]
 800881e:	f043 0340 	orr.w	r3, r3, #64	@ 0x40
 8008822:	81a3      	strh	r3, [r4, #12]
 8008824:	f04f 30ff 	mov.w	r0, #4294967295	@ 0xffffffff
 8008828:	e7e9      	b.n	80087fe <__ssputs_r+0x8a>
	...

0800882c <_svfiprintf_r>:
 800882c:	e92d 4ff0 	stmdb	sp!, {r4, r5, r6, r7, r8, r9, sl, fp, lr}
 8008830:	4698      	mov	r8, r3
 8008832:	898b      	ldrh	r3, [r1, #12]
 8008834:	061b      	lsls	r3, r3, #24
 8008836:	b09d      	sub	sp, #116	@ 0x74
 8008838:	4607      	mov	r7, r0
 800883a:	460d      	mov	r5, r1
 800883c:	4614      	mov	r4, r2
 800883e:	d510      	bpl.n	8008862 <_svfiprintf_r+0x36>
 8008840:	690b      	ldr	r3, [r1, #16]
 8008842:	b973      	cbnz	r3, 8008862 <_svfiprintf_r+0x36>
 8008844:	2140      	movs	r1, #64	@ 0x40
 8008846:	f7ff fe25 	bl	8008494 <_malloc_r>
 800884a:	6028      	str	r0, [r5, #0]
 800884c:	6128      	str	r0, [r5, #16]
 800884e:	b930      	cbnz	r0, 800885e <_svfiprintf_r+0x32>
 8008850:	230c      	movs	r3, #12
 8008852:	603b      	str	r3, [r7, #0]
 8008854:	f04f 30ff 	mov.w	r0, #4294967295	@ 0xffffffff
 8008858:	b01d      	add	sp, #116	@ 0x74
 800885a:	e8bd 8ff0 	ldmia.w	sp!, {r4, r5, r6, r7, r8, r9, sl, fp, pc}
 800885e:	2340      	movs	r3, #64	@ 0x40
 8008860:	616b      	str	r3, [r5, #20]
 8008862:	2300      	movs	r3, #0
 8008864:	9309      	str	r3, [sp, #36]	@ 0x24
 8008866:	2320      	movs	r3, #32
 8008868:	f88d 3029 	strb.w	r3, [sp, #41]	@ 0x29
 800886c:	f8cd 800c 	str.w	r8, [sp, #12]
 8008870:	2330      	movs	r3, #48	@ 0x30
 8008872:	f8df 819c 	ldr.w	r8, [pc, #412]	@ 8008a10 <_svfiprintf_r+0x1e4>
 8008876:	f88d 302a 	strb.w	r3, [sp, #42]	@ 0x2a
 800887a:	f04f 0901 	mov.w	r9, #1
 800887e:	4623      	mov	r3, r4
 8008880:	469a      	mov	sl, r3
 8008882:	f813 2b01 	ldrb.w	r2, [r3], #1
 8008886:	b10a      	cbz	r2, 800888c <_svfiprintf_r+0x60>
 8008888:	2a25      	cmp	r2, #37	@ 0x25
 800888a:	d1f9      	bne.n	8008880 <_svfiprintf_r+0x54>
 800888c:	ebba 0b04 	subs.w	fp, sl, r4
 8008890:	d00b      	beq.n	80088aa <_svfiprintf_r+0x7e>
 8008892:	465b      	mov	r3, fp
 8008894:	4622      	mov	r2, r4
 8008896:	4629      	mov	r1, r5
 8008898:	4638      	mov	r0, r7
 800889a:	f7ff ff6b 	bl	8008774 <__ssputs_r>
 800889e:	3001      	adds	r0, #1
 80088a0:	f000 80a7 	beq.w	80089f2 <_svfiprintf_r+0x1c6>
 80088a4:	9a09      	ldr	r2, [sp, #36]	@ 0x24
 80088a6:	445a      	add	r2, fp
 80088a8:	9209      	str	r2, [sp, #36]	@ 0x24
 80088aa:	f89a 3000 	ldrb.w	r3, [sl]
 80088ae:	2b00      	cmp	r3, #0
 80088b0:	f000 809f 	beq.w	80089f2 <_svfiprintf_r+0x1c6>
 80088b4:	2300      	movs	r3, #0
 80088b6:	f04f 32ff 	mov.w	r2, #4294967295	@ 0xffffffff
 80088ba:	e9cd 2305 	strd	r2, r3, [sp, #20]
 80088be:	f10a 0a01 	add.w	sl, sl, #1
 80088c2:	9304      	str	r3, [sp, #16]
 80088c4:	9307      	str	r3, [sp, #28]
 80088c6:	f88d 3053 	strb.w	r3, [sp, #83]	@ 0x53
 80088ca:	931a      	str	r3, [sp, #104]	@ 0x68
 80088cc:	4654      	mov	r4, sl
 80088ce:	2205      	movs	r2, #5
 80088d0:	f814 1b01 	ldrb.w	r1, [r4], #1
 80088d4:	484e      	ldr	r0, [pc, #312]	@ (8008a10 <_svfiprintf_r+0x1e4>)
 80088d6:	f7f7 fcbb 	bl	8000250 <memchr>
 80088da:	9a04      	ldr	r2, [sp, #16]
 80088dc:	b9d8      	cbnz	r0, 8008916 <_svfiprintf_r+0xea>
 80088de:	06d0      	lsls	r0, r2, #27
 80088e0:	bf44      	itt	mi
 80088e2:	2320      	movmi	r3, #32
 80088e4:	f88d 3053 	strbmi.w	r3, [sp, #83]	@ 0x53
 80088e8:	0711      	lsls	r1, r2, #28
 80088ea:	bf44      	itt	mi
 80088ec:	232b      	movmi	r3, #43	@ 0x2b
 80088ee:	f88d 3053 	strbmi.w	r3, [sp, #83]	@ 0x53
 80088f2:	f89a 3000 	ldrb.w	r3, [sl]
 80088f6:	2b2a      	cmp	r3, #42	@ 0x2a
 80088f8:	d015      	beq.n	8008926 <_svfiprintf_r+0xfa>
 80088fa:	9a07      	ldr	r2, [sp, #28]
 80088fc:	4654      	mov	r4, sl
 80088fe:	2000      	movs	r0, #0
 8008900:	f04f 0c0a 	mov.w	ip, #10
 8008904:	4621      	mov	r1, r4
 8008906:	f811 3b01 	ldrb.w	r3, [r1], #1
 800890a:	3b30      	subs	r3, #48	@ 0x30
 800890c:	2b09      	cmp	r3, #9
 800890e:	d94b      	bls.n	80089a8 <_svfiprintf_r+0x17c>
 8008910:	b1b0      	cbz	r0, 8008940 <_svfiprintf_r+0x114>
 8008912:	9207      	str	r2, [sp, #28]
 8008914:	e014      	b.n	8008940 <_svfiprintf_r+0x114>
 8008916:	eba0 0308 	sub.w	r3, r0, r8
 800891a:	fa09 f303 	lsl.w	r3, r9, r3
 800891e:	4313      	orrs	r3, r2
 8008920:	9304      	str	r3, [sp, #16]
 8008922:	46a2      	mov	sl, r4
 8008924:	e7d2      	b.n	80088cc <_svfiprintf_r+0xa0>
 8008926:	9b03      	ldr	r3, [sp, #12]
 8008928:	1d19      	adds	r1, r3, #4
 800892a:	681b      	ldr	r3, [r3, #0]
 800892c:	9103      	str	r1, [sp, #12]
 800892e:	2b00      	cmp	r3, #0
 8008930:	bfbb      	ittet	lt
 8008932:	425b      	neglt	r3, r3
 8008934:	f042 0202 	orrlt.w	r2, r2, #2
 8008938:	9307      	strge	r3, [sp, #28]
 800893a:	9307      	strlt	r3, [sp, #28]
 800893c:	bfb8      	it	lt
 800893e:	9204      	strlt	r2, [sp, #16]
 8008940:	7823      	ldrb	r3, [r4, #0]
 8008942:	2b2e      	cmp	r3, #46	@ 0x2e
 8008944:	d10a      	bne.n	800895c <_svfiprintf_r+0x130>
 8008946:	7863      	ldrb	r3, [r4, #1]
 8008948:	2b2a      	cmp	r3, #42	@ 0x2a
 800894a:	d132      	bne.n	80089b2 <_svfiprintf_r+0x186>
 800894c:	9b03      	ldr	r3, [sp, #12]
 800894e:	1d1a      	adds	r2, r3, #4
 8008950:	681b      	ldr	r3, [r3, #0]
 8008952:	9203      	str	r2, [sp, #12]
 8008954:	ea43 73e3 	orr.w	r3, r3, r3, asr #31
 8008958:	3402      	adds	r4, #2
 800895a:	9305      	str	r3, [sp, #20]
 800895c:	f8df a0c0 	ldr.w	sl, [pc, #192]	@ 8008a20 <_svfiprintf_r+0x1f4>
 8008960:	7821      	ldrb	r1, [r4, #0]
 8008962:	2203      	movs	r2, #3
 8008964:	4650      	mov	r0, sl
 8008966:	f7f7 fc73 	bl	8000250 <memchr>
 800896a:	b138      	cbz	r0, 800897c <_svfiprintf_r+0x150>
 800896c:	9b04      	ldr	r3, [sp, #16]
 800896e:	eba0 000a 	sub.w	r0, r0, sl
 8008972:	2240      	movs	r2, #64	@ 0x40
 8008974:	4082      	lsls	r2, r0
 8008976:	4313      	orrs	r3, r2
 8008978:	3401      	adds	r4, #1
 800897a:	9304      	str	r3, [sp, #16]
 800897c:	f814 1b01 	ldrb.w	r1, [r4], #1
 8008980:	4824      	ldr	r0, [pc, #144]	@ (8008a14 <_svfiprintf_r+0x1e8>)
 8008982:	f88d 1028 	strb.w	r1, [sp, #40]	@ 0x28
 8008986:	2206      	movs	r2, #6
 8008988:	f7f7 fc62 	bl	8000250 <memchr>
 800898c:	2800      	cmp	r0, #0
 800898e:	d036      	beq.n	80089fe <_svfiprintf_r+0x1d2>
 8008990:	4b21      	ldr	r3, [pc, #132]	@ (8008a18 <_svfiprintf_r+0x1ec>)
 8008992:	bb1b      	cbnz	r3, 80089dc <_svfiprintf_r+0x1b0>
 8008994:	9b03      	ldr	r3, [sp, #12]
 8008996:	3307      	adds	r3, #7
 8008998:	f023 0307 	bic.w	r3, r3, #7
 800899c:	3308      	adds	r3, #8
 800899e:	9303      	str	r3, [sp, #12]
 80089a0:	9b09      	ldr	r3, [sp, #36]	@ 0x24
 80089a2:	4433      	add	r3, r6
 80089a4:	9309      	str	r3, [sp, #36]	@ 0x24
 80089a6:	e76a      	b.n	800887e <_svfiprintf_r+0x52>
 80089a8:	fb0c 3202 	mla	r2, ip, r2, r3
 80089ac:	460c      	mov	r4, r1
 80089ae:	2001      	movs	r0, #1
 80089b0:	e7a8      	b.n	8008904 <_svfiprintf_r+0xd8>
 80089b2:	2300      	movs	r3, #0
 80089b4:	3401      	adds	r4, #1
 80089b6:	9305      	str	r3, [sp, #20]
 80089b8:	4619      	mov	r1, r3
 80089ba:	f04f 0c0a 	mov.w	ip, #10
 80089be:	4620      	mov	r0, r4
 80089c0:	f810 2b01 	ldrb.w	r2, [r0], #1
 80089c4:	3a30      	subs	r2, #48	@ 0x30
 80089c6:	2a09      	cmp	r2, #9
 80089c8:	d903      	bls.n	80089d2 <_svfiprintf_r+0x1a6>
 80089ca:	2b00      	cmp	r3, #0
 80089cc:	d0c6      	beq.n	800895c <_svfiprintf_r+0x130>
 80089ce:	9105      	str	r1, [sp, #20]
 80089d0:	e7c4      	b.n	800895c <_svfiprintf_r+0x130>
 80089d2:	fb0c 2101 	mla	r1, ip, r1, r2
 80089d6:	4604      	mov	r4, r0
 80089d8:	2301      	movs	r3, #1
 80089da:	e7f0      	b.n	80089be <_svfiprintf_r+0x192>
 80089dc:	ab03      	add	r3, sp, #12
 80089de:	9300      	str	r3, [sp, #0]
 80089e0:	462a      	mov	r2, r5
 80089e2:	4b0e      	ldr	r3, [pc, #56]	@ (8008a1c <_svfiprintf_r+0x1f0>)
 80089e4:	a904      	add	r1, sp, #16
 80089e6:	4638      	mov	r0, r7
 80089e8:	f3af 8000 	nop.w
 80089ec:	1c42      	adds	r2, r0, #1
 80089ee:	4606      	mov	r6, r0
 80089f0:	d1d6      	bne.n	80089a0 <_svfiprintf_r+0x174>
 80089f2:	89ab      	ldrh	r3, [r5, #12]
 80089f4:	065b      	lsls	r3, r3, #25
 80089f6:	f53f af2d 	bmi.w	8008854 <_svfiprintf_r+0x28>
 80089fa:	9809      	ldr	r0, [sp, #36]	@ 0x24
 80089fc:	e72c      	b.n	8008858 <_svfiprintf_r+0x2c>
 80089fe:	ab03      	add	r3, sp, #12
 8008a00:	9300      	str	r3, [sp, #0]
 8008a02:	462a      	mov	r2, r5
 8008a04:	4b05      	ldr	r3, [pc, #20]	@ (8008a1c <_svfiprintf_r+0x1f0>)
 8008a06:	a904      	add	r1, sp, #16
 8008a08:	4638      	mov	r0, r7
 8008a0a:	f000 f879 	bl	8008b00 <_printf_i>
 8008a0e:	e7ed      	b.n	80089ec <_svfiprintf_r+0x1c0>
 8008a10:	0800905e 	.word	0x0800905e
 8008a14:	08009068 	.word	0x08009068
 8008a18:	00000000 	.word	0x00000000
 8008a1c:	08008775 	.word	0x08008775
 8008a20:	08009064 	.word	0x08009064

08008a24 <_printf_common>:
 8008a24:	e92d 47f0 	stmdb	sp!, {r4, r5, r6, r7, r8, r9, sl, lr}
 8008a28:	4616      	mov	r6, r2
 8008a2a:	4698      	mov	r8, r3
 8008a2c:	688a      	ldr	r2, [r1, #8]
 8008a2e:	690b      	ldr	r3, [r1, #16]
 8008a30:	f8dd 9020 	ldr.w	r9, [sp, #32]
 8008a34:	4293      	cmp	r3, r2
 8008a36:	bfb8      	it	lt
 8008a38:	4613      	movlt	r3, r2
 8008a3a:	6033      	str	r3, [r6, #0]
 8008a3c:	f891 2043 	ldrb.w	r2, [r1, #67]	@ 0x43
 8008a40:	4607      	mov	r7, r0
 8008a42:	460c      	mov	r4, r1
 8008a44:	b10a      	cbz	r2, 8008a4a <_printf_common+0x26>
 8008a46:	3301      	adds	r3, #1
 8008a48:	6033      	str	r3, [r6, #0]
 8008a4a:	6823      	ldr	r3, [r4, #0]
 8008a4c:	0699      	lsls	r1, r3, #26
 8008a4e:	bf42      	ittt	mi
 8008a50:	6833      	ldrmi	r3, [r6, #0]
 8008a52:	3302      	addmi	r3, #2
 8008a54:	6033      	strmi	r3, [r6, #0]
 8008a56:	6825      	ldr	r5, [r4, #0]
 8008a58:	f015 0506 	ands.w	r5, r5, #6
 8008a5c:	d106      	bne.n	8008a6c <_printf_common+0x48>
 8008a5e:	f104 0a19 	add.w	sl, r4, #25
 8008a62:	68e3      	ldr	r3, [r4, #12]
 8008a64:	6832      	ldr	r2, [r6, #0]
 8008a66:	1a9b      	subs	r3, r3, r2
 8008a68:	42ab      	cmp	r3, r5
 8008a6a:	dc26      	bgt.n	8008aba <_printf_common+0x96>
 8008a6c:	f894 3043 	ldrb.w	r3, [r4, #67]	@ 0x43
 8008a70:	6822      	ldr	r2, [r4, #0]
 8008a72:	3b00      	subs	r3, #0
 8008a74:	bf18      	it	ne
 8008a76:	2301      	movne	r3, #1
 8008a78:	0692      	lsls	r2, r2, #26
 8008a7a:	d42b      	bmi.n	8008ad4 <_printf_common+0xb0>
 8008a7c:	f104 0243 	add.w	r2, r4, #67	@ 0x43
 8008a80:	4641      	mov	r1, r8
 8008a82:	4638      	mov	r0, r7
 8008a84:	47c8      	blx	r9
 8008a86:	3001      	adds	r0, #1
 8008a88:	d01e      	beq.n	8008ac8 <_printf_common+0xa4>
 8008a8a:	6823      	ldr	r3, [r4, #0]
 8008a8c:	6922      	ldr	r2, [r4, #16]
 8008a8e:	f003 0306 	and.w	r3, r3, #6
 8008a92:	2b04      	cmp	r3, #4
 8008a94:	bf02      	ittt	eq
 8008a96:	68e5      	ldreq	r5, [r4, #12]
 8008a98:	6833      	ldreq	r3, [r6, #0]
 8008a9a:	1aed      	subeq	r5, r5, r3
 8008a9c:	68a3      	ldr	r3, [r4, #8]
 8008a9e:	bf0c      	ite	eq
 8008aa0:	ea25 75e5 	biceq.w	r5, r5, r5, asr #31
 8008aa4:	2500      	movne	r5, #0
 8008aa6:	4293      	cmp	r3, r2
 8008aa8:	bfc4      	itt	gt
 8008aaa:	1a9b      	subgt	r3, r3, r2
 8008aac:	18ed      	addgt	r5, r5, r3
 8008aae:	2600      	movs	r6, #0
 8008ab0:	341a      	adds	r4, #26
 8008ab2:	42b5      	cmp	r5, r6
 8008ab4:	d11a      	bne.n	8008aec <_printf_common+0xc8>
 8008ab6:	2000      	movs	r0, #0
 8008ab8:	e008      	b.n	8008acc <_printf_common+0xa8>
 8008aba:	2301      	movs	r3, #1
 8008abc:	4652      	mov	r2, sl
 8008abe:	4641      	mov	r1, r8
 8008ac0:	4638      	mov	r0, r7
 8008ac2:	47c8      	blx	r9
 8008ac4:	3001      	adds	r0, #1
 8008ac6:	d103      	bne.n	8008ad0 <_printf_common+0xac>
 8008ac8:	f04f 30ff 	mov.w	r0, #4294967295	@ 0xffffffff
 8008acc:	e8bd 87f0 	ldmia.w	sp!, {r4, r5, r6, r7, r8, r9, sl, pc}
 8008ad0:	3501      	adds	r5, #1
 8008ad2:	e7c6      	b.n	8008a62 <_printf_common+0x3e>
 8008ad4:	18e1      	adds	r1, r4, r3
 8008ad6:	1c5a      	adds	r2, r3, #1
 8008ad8:	2030      	movs	r0, #48	@ 0x30
 8008ada:	f881 0043 	strb.w	r0, [r1, #67]	@ 0x43
 8008ade:	4422      	add	r2, r4
 8008ae0:	f894 1045 	ldrb.w	r1, [r4, #69]	@ 0x45
 8008ae4:	f882 1043 	strb.w	r1, [r2, #67]	@ 0x43
 8008ae8:	3302      	adds	r3, #2
 8008aea:	e7c7      	b.n	8008a7c <_printf_common+0x58>
 8008aec:	2301      	movs	r3, #1
 8008aee:	4622      	mov	r2, r4
 8008af0:	4641      	mov	r1, r8
 8008af2:	4638      	mov	r0, r7
 8008af4:	47c8      	blx	r9
 8008af6:	3001      	adds	r0, #1
 8008af8:	d0e6      	beq.n	8008ac8 <_printf_common+0xa4>
 8008afa:	3601      	adds	r6, #1
 8008afc:	e7d9      	b.n	8008ab2 <_printf_common+0x8e>
	...

08008b00 <_printf_i>:
 8008b00:	e92d 47ff 	stmdb	sp!, {r0, r1, r2, r3, r4, r5, r6, r7, r8, r9, sl, lr}
 8008b04:	7e0f      	ldrb	r7, [r1, #24]
 8008b06:	9e0c      	ldr	r6, [sp, #48]	@ 0x30
 8008b08:	2f78      	cmp	r7, #120	@ 0x78
 8008b0a:	4691      	mov	r9, r2
 8008b0c:	4680      	mov	r8, r0
 8008b0e:	460c      	mov	r4, r1
 8008b10:	469a      	mov	sl, r3
 8008b12:	f101 0243 	add.w	r2, r1, #67	@ 0x43
 8008b16:	d807      	bhi.n	8008b28 <_printf_i+0x28>
 8008b18:	2f62      	cmp	r7, #98	@ 0x62
 8008b1a:	d80a      	bhi.n	8008b32 <_printf_i+0x32>
 8008b1c:	2f00      	cmp	r7, #0
 8008b1e:	f000 80d1 	beq.w	8008cc4 <_printf_i+0x1c4>
 8008b22:	2f58      	cmp	r7, #88	@ 0x58
 8008b24:	f000 80b8 	beq.w	8008c98 <_printf_i+0x198>
 8008b28:	f104 0642 	add.w	r6, r4, #66	@ 0x42
 8008b2c:	f884 7042 	strb.w	r7, [r4, #66]	@ 0x42
 8008b30:	e03a      	b.n	8008ba8 <_printf_i+0xa8>
 8008b32:	f1a7 0363 	sub.w	r3, r7, #99	@ 0x63
 8008b36:	2b15      	cmp	r3, #21
 8008b38:	d8f6      	bhi.n	8008b28 <_printf_i+0x28>
 8008b3a:	a101      	add	r1, pc, #4	@ (adr r1, 8008b40 <_printf_i+0x40>)
 8008b3c:	f851 f023 	ldr.w	pc, [r1, r3, lsl #2]
 8008b40:	08008b99 	.word	0x08008b99
 8008b44:	08008bad 	.word	0x08008bad
 8008b48:	08008b29 	.word	0x08008b29
 8008b4c:	08008b29 	.word	0x08008b29
 8008b50:	08008b29 	.word	0x08008b29
 8008b54:	08008b29 	.word	0x08008b29
 8008b58:	08008bad 	.word	0x08008bad
 8008b5c:	08008b29 	.word	0x08008b29
 8008b60:	08008b29 	.word	0x08008b29
 8008b64:	08008b29 	.word	0x08008b29
 8008b68:	08008b29 	.word	0x08008b29
 8008b6c:	08008cab 	.word	0x08008cab
 8008b70:	08008bd7 	.word	0x08008bd7
 8008b74:	08008c65 	.word	0x08008c65
 8008b78:	08008b29 	.word	0x08008b29
 8008b7c:	08008b29 	.word	0x08008b29
 8008b80:	08008ccd 	.word	0x08008ccd
 8008b84:	08008b29 	.word	0x08008b29
 8008b88:	08008bd7 	.word	0x08008bd7
 8008b8c:	08008b29 	.word	0x08008b29
 8008b90:	08008b29 	.word	0x08008b29
 8008b94:	08008c6d 	.word	0x08008c6d
 8008b98:	6833      	ldr	r3, [r6, #0]
 8008b9a:	1d1a      	adds	r2, r3, #4
 8008b9c:	681b      	ldr	r3, [r3, #0]
 8008b9e:	6032      	str	r2, [r6, #0]
 8008ba0:	f104 0642 	add.w	r6, r4, #66	@ 0x42
 8008ba4:	f884 3042 	strb.w	r3, [r4, #66]	@ 0x42
 8008ba8:	2301      	movs	r3, #1
 8008baa:	e09c      	b.n	8008ce6 <_printf_i+0x1e6>
 8008bac:	6833      	ldr	r3, [r6, #0]
 8008bae:	6820      	ldr	r0, [r4, #0]
 8008bb0:	1d19      	adds	r1, r3, #4
 8008bb2:	6031      	str	r1, [r6, #0]
 8008bb4:	0606      	lsls	r6, r0, #24
 8008bb6:	d501      	bpl.n	8008bbc <_printf_i+0xbc>
 8008bb8:	681d      	ldr	r5, [r3, #0]
 8008bba:	e003      	b.n	8008bc4 <_printf_i+0xc4>
 8008bbc:	0645      	lsls	r5, r0, #25
 8008bbe:	d5fb      	bpl.n	8008bb8 <_printf_i+0xb8>
 8008bc0:	f9b3 5000 	ldrsh.w	r5, [r3]
 8008bc4:	2d00      	cmp	r5, #0
 8008bc6:	da03      	bge.n	8008bd0 <_printf_i+0xd0>
 8008bc8:	232d      	movs	r3, #45	@ 0x2d
 8008bca:	426d      	negs	r5, r5
 8008bcc:	f884 3043 	strb.w	r3, [r4, #67]	@ 0x43
 8008bd0:	4858      	ldr	r0, [pc, #352]	@ (8008d34 <_printf_i+0x234>)
 8008bd2:	230a      	movs	r3, #10
 8008bd4:	e011      	b.n	8008bfa <_printf_i+0xfa>
 8008bd6:	6821      	ldr	r1, [r4, #0]
 8008bd8:	6833      	ldr	r3, [r6, #0]
 8008bda:	0608      	lsls	r0, r1, #24
 8008bdc:	f853 5b04 	ldr.w	r5, [r3], #4
 8008be0:	d402      	bmi.n	8008be8 <_printf_i+0xe8>
 8008be2:	0649      	lsls	r1, r1, #25
 8008be4:	bf48      	it	mi
 8008be6:	b2ad      	uxthmi	r5, r5
 8008be8:	2f6f      	cmp	r7, #111	@ 0x6f
 8008bea:	4852      	ldr	r0, [pc, #328]	@ (8008d34 <_printf_i+0x234>)
 8008bec:	6033      	str	r3, [r6, #0]
 8008bee:	bf14      	ite	ne
 8008bf0:	230a      	movne	r3, #10
 8008bf2:	2308      	moveq	r3, #8
 8008bf4:	2100      	movs	r1, #0
 8008bf6:	f884 1043 	strb.w	r1, [r4, #67]	@ 0x43
 8008bfa:	6866      	ldr	r6, [r4, #4]
 8008bfc:	60a6      	str	r6, [r4, #8]
 8008bfe:	2e00      	cmp	r6, #0
 8008c00:	db05      	blt.n	8008c0e <_printf_i+0x10e>
 8008c02:	6821      	ldr	r1, [r4, #0]
 8008c04:	432e      	orrs	r6, r5
 8008c06:	f021 0104 	bic.w	r1, r1, #4
 8008c0a:	6021      	str	r1, [r4, #0]
 8008c0c:	d04b      	beq.n	8008ca6 <_printf_i+0x1a6>
 8008c0e:	4616      	mov	r6, r2
 8008c10:	fbb5 f1f3 	udiv	r1, r5, r3
 8008c14:	fb03 5711 	mls	r7, r3, r1, r5
 8008c18:	5dc7      	ldrb	r7, [r0, r7]
 8008c1a:	f806 7d01 	strb.w	r7, [r6, #-1]!
 8008c1e:	462f      	mov	r7, r5
 8008c20:	42bb      	cmp	r3, r7
 8008c22:	460d      	mov	r5, r1
 8008c24:	d9f4      	bls.n	8008c10 <_printf_i+0x110>
 8008c26:	2b08      	cmp	r3, #8
 8008c28:	d10b      	bne.n	8008c42 <_printf_i+0x142>
 8008c2a:	6823      	ldr	r3, [r4, #0]
 8008c2c:	07df      	lsls	r7, r3, #31
 8008c2e:	d508      	bpl.n	8008c42 <_printf_i+0x142>
 8008c30:	6923      	ldr	r3, [r4, #16]
 8008c32:	6861      	ldr	r1, [r4, #4]
 8008c34:	4299      	cmp	r1, r3
 8008c36:	bfde      	ittt	le
 8008c38:	2330      	movle	r3, #48	@ 0x30
 8008c3a:	f806 3c01 	strble.w	r3, [r6, #-1]
 8008c3e:	f106 36ff 	addle.w	r6, r6, #4294967295	@ 0xffffffff
 8008c42:	1b92      	subs	r2, r2, r6
 8008c44:	6122      	str	r2, [r4, #16]
 8008c46:	f8cd a000 	str.w	sl, [sp]
 8008c4a:	464b      	mov	r3, r9
 8008c4c:	aa03      	add	r2, sp, #12
 8008c4e:	4621      	mov	r1, r4
 8008c50:	4640      	mov	r0, r8
 8008c52:	f7ff fee7 	bl	8008a24 <_printf_common>
 8008c56:	3001      	adds	r0, #1
 8008c58:	d14a      	bne.n	8008cf0 <_printf_i+0x1f0>
 8008c5a:	f04f 30ff 	mov.w	r0, #4294967295	@ 0xffffffff
 8008c5e:	b004      	add	sp, #16
 8008c60:	e8bd 87f0 	ldmia.w	sp!, {r4, r5, r6, r7, r8, r9, sl, pc}
 8008c64:	6823      	ldr	r3, [r4, #0]
 8008c66:	f043 0320 	orr.w	r3, r3, #32
 8008c6a:	6023      	str	r3, [r4, #0]
 8008c6c:	4832      	ldr	r0, [pc, #200]	@ (8008d38 <_printf_i+0x238>)
 8008c6e:	2778      	movs	r7, #120	@ 0x78
 8008c70:	f884 7045 	strb.w	r7, [r4, #69]	@ 0x45
 8008c74:	6823      	ldr	r3, [r4, #0]
 8008c76:	6831      	ldr	r1, [r6, #0]
 8008c78:	061f      	lsls	r7, r3, #24
 8008c7a:	f851 5b04 	ldr.w	r5, [r1], #4
 8008c7e:	d402      	bmi.n	8008c86 <_printf_i+0x186>
 8008c80:	065f      	lsls	r7, r3, #25
 8008c82:	bf48      	it	mi
 8008c84:	b2ad      	uxthmi	r5, r5
 8008c86:	6031      	str	r1, [r6, #0]
 8008c88:	07d9      	lsls	r1, r3, #31
 8008c8a:	bf44      	itt	mi
 8008c8c:	f043 0320 	orrmi.w	r3, r3, #32
 8008c90:	6023      	strmi	r3, [r4, #0]
 8008c92:	b11d      	cbz	r5, 8008c9c <_printf_i+0x19c>
 8008c94:	2310      	movs	r3, #16
 8008c96:	e7ad      	b.n	8008bf4 <_printf_i+0xf4>
 8008c98:	4826      	ldr	r0, [pc, #152]	@ (8008d34 <_printf_i+0x234>)
 8008c9a:	e7e9      	b.n	8008c70 <_printf_i+0x170>
 8008c9c:	6823      	ldr	r3, [r4, #0]
 8008c9e:	f023 0320 	bic.w	r3, r3, #32
 8008ca2:	6023      	str	r3, [r4, #0]
 8008ca4:	e7f6      	b.n	8008c94 <_printf_i+0x194>
 8008ca6:	4616      	mov	r6, r2
 8008ca8:	e7bd      	b.n	8008c26 <_printf_i+0x126>
 8008caa:	6833      	ldr	r3, [r6, #0]
 8008cac:	6825      	ldr	r5, [r4, #0]
 8008cae:	6961      	ldr	r1, [r4, #20]
 8008cb0:	1d18      	adds	r0, r3, #4
 8008cb2:	6030      	str	r0, [r6, #0]
 8008cb4:	062e      	lsls	r6, r5, #24
 8008cb6:	681b      	ldr	r3, [r3, #0]
 8008cb8:	d501      	bpl.n	8008cbe <_printf_i+0x1be>
 8008cba:	6019      	str	r1, [r3, #0]
 8008cbc:	e002      	b.n	8008cc4 <_printf_i+0x1c4>
 8008cbe:	0668      	lsls	r0, r5, #25
 8008cc0:	d5fb      	bpl.n	8008cba <_printf_i+0x1ba>
 8008cc2:	8019      	strh	r1, [r3, #0]
 8008cc4:	2300      	movs	r3, #0
 8008cc6:	6123      	str	r3, [r4, #16]
 8008cc8:	4616      	mov	r6, r2
 8008cca:	e7bc      	b.n	8008c46 <_printf_i+0x146>
 8008ccc:	6833      	ldr	r3, [r6, #0]
 8008cce:	1d1a      	adds	r2, r3, #4
 8008cd0:	6032      	str	r2, [r6, #0]
 8008cd2:	681e      	ldr	r6, [r3, #0]
 8008cd4:	6862      	ldr	r2, [r4, #4]
 8008cd6:	2100      	movs	r1, #0
 8008cd8:	4630      	mov	r0, r6
 8008cda:	f7f7 fab9 	bl	8000250 <memchr>
 8008cde:	b108      	cbz	r0, 8008ce4 <_printf_i+0x1e4>
 8008ce0:	1b80      	subs	r0, r0, r6
 8008ce2:	6060      	str	r0, [r4, #4]
 8008ce4:	6863      	ldr	r3, [r4, #4]
 8008ce6:	6123      	str	r3, [r4, #16]
 8008ce8:	2300      	movs	r3, #0
 8008cea:	f884 3043 	strb.w	r3, [r4, #67]	@ 0x43
 8008cee:	e7aa      	b.n	8008c46 <_printf_i+0x146>
 8008cf0:	6923      	ldr	r3, [r4, #16]
 8008cf2:	4632      	mov	r2, r6
 8008cf4:	4649      	mov	r1, r9
 8008cf6:	4640      	mov	r0, r8
 8008cf8:	47d0      	blx	sl
 8008cfa:	3001      	adds	r0, #1
 8008cfc:	d0ad      	beq.n	8008c5a <_printf_i+0x15a>
 8008cfe:	6823      	ldr	r3, [r4, #0]
 8008d00:	079b      	lsls	r3, r3, #30
 8008d02:	d413      	bmi.n	8008d2c <_printf_i+0x22c>
 8008d04:	68e0      	ldr	r0, [r4, #12]
 8008d06:	9b03      	ldr	r3, [sp, #12]
 8008d08:	4298      	cmp	r0, r3
 8008d0a:	bfb8      	it	lt
 8008d0c:	4618      	movlt	r0, r3
 8008d0e:	e7a6      	b.n	8008c5e <_printf_i+0x15e>
 8008d10:	2301      	movs	r3, #1
 8008d12:	4632      	mov	r2, r6
 8008d14:	4649      	mov	r1, r9
 8008d16:	4640      	mov	r0, r8
 8008d18:	47d0      	blx	sl
 8008d1a:	3001      	adds	r0, #1
 8008d1c:	d09d      	beq.n	8008c5a <_printf_i+0x15a>
 8008d1e:	3501      	adds	r5, #1
 8008d20:	68e3      	ldr	r3, [r4, #12]
 8008d22:	9903      	ldr	r1, [sp, #12]
 8008d24:	1a5b      	subs	r3, r3, r1
 8008d26:	42ab      	cmp	r3, r5
 8008d28:	dcf2      	bgt.n	8008d10 <_printf_i+0x210>
 8008d2a:	e7eb      	b.n	8008d04 <_printf_i+0x204>
 8008d2c:	2500      	movs	r5, #0
 8008d2e:	f104 0619 	add.w	r6, r4, #25
 8008d32:	e7f5      	b.n	8008d20 <_printf_i+0x220>
 8008d34:	0800906f 	.word	0x0800906f
 8008d38:	08009080 	.word	0x08009080

08008d3c <_realloc_r>:
 8008d3c:	e92d 41f0 	stmdb	sp!, {r4, r5, r6, r7, r8, lr}
 8008d40:	4607      	mov	r7, r0
 8008d42:	4614      	mov	r4, r2
 8008d44:	460d      	mov	r5, r1
 8008d46:	b921      	cbnz	r1, 8008d52 <_realloc_r+0x16>
 8008d48:	e8bd 41f0 	ldmia.w	sp!, {r4, r5, r6, r7, r8, lr}
 8008d4c:	4611      	mov	r1, r2
 8008d4e:	f7ff bba1 	b.w	8008494 <_malloc_r>
 8008d52:	b92a      	cbnz	r2, 8008d60 <_realloc_r+0x24>
 8008d54:	f7ff fcc4 	bl	80086e0 <_free_r>
 8008d58:	4625      	mov	r5, r4
 8008d5a:	4628      	mov	r0, r5
 8008d5c:	e8bd 81f0 	ldmia.w	sp!, {r4, r5, r6, r7, r8, pc}
 8008d60:	f000 f834 	bl	8008dcc <_malloc_usable_size_r>
 8008d64:	4284      	cmp	r4, r0
 8008d66:	4606      	mov	r6, r0
 8008d68:	d802      	bhi.n	8008d70 <_realloc_r+0x34>
 8008d6a:	ebb4 0f50 	cmp.w	r4, r0, lsr #1
 8008d6e:	d8f4      	bhi.n	8008d5a <_realloc_r+0x1e>
 8008d70:	4621      	mov	r1, r4
 8008d72:	4638      	mov	r0, r7
 8008d74:	f7ff fb8e 	bl	8008494 <_malloc_r>
 8008d78:	4680      	mov	r8, r0
 8008d7a:	b908      	cbnz	r0, 8008d80 <_realloc_r+0x44>
 8008d7c:	4645      	mov	r5, r8
 8008d7e:	e7ec      	b.n	8008d5a <_realloc_r+0x1e>
 8008d80:	42b4      	cmp	r4, r6
 8008d82:	4622      	mov	r2, r4
 8008d84:	4629      	mov	r1, r5
 8008d86:	bf28      	it	cs
 8008d88:	4632      	movcs	r2, r6
 8008d8a:	f7ff fc9b 	bl	80086c4 <memcpy>
 8008d8e:	4629      	mov	r1, r5
 8008d90:	4638      	mov	r0, r7
 8008d92:	f7ff fca5 	bl	80086e0 <_free_r>
 8008d96:	e7f1      	b.n	8008d7c <_realloc_r+0x40>

08008d98 <memmove>:
 8008d98:	4288      	cmp	r0, r1
 8008d9a:	b510      	push	{r4, lr}
 8008d9c:	eb01 0402 	add.w	r4, r1, r2
 8008da0:	d902      	bls.n	8008da8 <memmove+0x10>
 8008da2:	4284      	cmp	r4, r0
 8008da4:	4623      	mov	r3, r4
 8008da6:	d807      	bhi.n	8008db8 <memmove+0x20>
 8008da8:	1e43      	subs	r3, r0, #1
 8008daa:	42a1      	cmp	r1, r4
 8008dac:	d008      	beq.n	8008dc0 <memmove+0x28>
 8008dae:	f811 2b01 	ldrb.w	r2, [r1], #1
 8008db2:	f803 2f01 	strb.w	r2, [r3, #1]!
 8008db6:	e7f8      	b.n	8008daa <memmove+0x12>
 8008db8:	4402      	add	r2, r0
 8008dba:	4601      	mov	r1, r0
 8008dbc:	428a      	cmp	r2, r1
 8008dbe:	d100      	bne.n	8008dc2 <memmove+0x2a>
 8008dc0:	bd10      	pop	{r4, pc}
 8008dc2:	f813 4d01 	ldrb.w	r4, [r3, #-1]!
 8008dc6:	f802 4d01 	strb.w	r4, [r2, #-1]!
 8008dca:	e7f7      	b.n	8008dbc <memmove+0x24>

08008dcc <_malloc_usable_size_r>:
 8008dcc:	f851 3c04 	ldr.w	r3, [r1, #-4]
 8008dd0:	1f18      	subs	r0, r3, #4
 8008dd2:	2b00      	cmp	r3, #0
 8008dd4:	bfbc      	itt	lt
 8008dd6:	580b      	ldrlt	r3, [r1, r0]
 8008dd8:	18c0      	addlt	r0, r0, r3
 8008dda:	4770      	bx	lr

08008ddc <_init>:
 8008ddc:	b5f8      	push	{r3, r4, r5, r6, r7, lr}
 8008dde:	bf00      	nop
 8008de0:	bcf8      	pop	{r3, r4, r5, r6, r7}
 8008de2:	bc08      	pop	{r3}
 8008de4:	469e      	mov	lr, r3
 8008de6:	4770      	bx	lr

08008de8 <_fini>:
 8008de8:	b5f8      	push	{r3, r4, r5, r6, r7, lr}
 8008dea:	bf00      	nop
 8008dec:	bcf8      	pop	{r3, r4, r5, r6, r7}
 8008dee:	bc08      	pop	{r3}
 8008df0:	469e      	mov	lr, r3
 8008df2:	4770      	bx	lr
